
Optional file vector_offset_init.o not found
Archive member included to satisfy reference by file (symbol)

y:/program files/microchip/xc32/v3.01/bin/bin/../../lib/gcc/pic32mx/8.3.1/fpu64\libgcc.a(_udivdi3.o)
                              build/default/production/_ext/1033058136/dhcp.o (__udivdi3)
y:/program files/microchip/xc32/v3.01/bin/bin/../../lib/gcc/pic32mx/8.3.1/../../../../pic32mx/lib/fpu64\libpic32.a(memcmp.o)
                              build/default/production/_ext/732082881/drv_ethmac.o (memcmp)
y:/program files/microchip/xc32/v3.01/bin/bin/../../lib/gcc/pic32mx/8.3.1/../../../../pic32mx/lib/fpu64\libpic32.a(memcpy.o)
                              build/default/production/_ext/1033058136/ipv4.o (memcpy)
y:/program files/microchip/xc32/v3.01/bin/bin/../../lib/gcc/pic32mx/8.3.1/../../../../pic32mx/lib/fpu64\libpic32.a(memset.o)
                              build/default/production/_ext/732082881/drv_ethmac.o (memset)
y:/program files/microchip/xc32/v3.01/bin/bin/../../lib/gcc/pic32mx/8.3.1/../../../../pic32mx/lib/fpu64\libpic32.a(strcmp.o)
                              build/default/production/_ext/1033058136/tcpip_helpers.o (strcmp)
y:/program files/microchip/xc32/v3.01/bin/bin/../../lib/gcc/pic32mx/8.3.1/../../../../pic32mx/lib/fpu64\libpic32.a(strcpy.o)
                              build/default/production/_ext/1033058136/tcpip_helpers.o (strcpy)
y:/program files/microchip/xc32/v3.01/bin/bin/../../lib/gcc/pic32mx/8.3.1/../../../../pic32mx/lib/fpu64\libpic32.a(strlen.o)
                              build/default/production/_ext/1033058136/helpers.o (strlen)
y:/program files/microchip/xc32/v3.01/bin/bin/../../lib/gcc/pic32mx/8.3.1/../../../../pic32mx/lib/fpu64\libpic32.a(default-on-reset.o)
                              C:\Users\DANIEL~1.RAI\AppData\Local\Temp\ccdMNJnB.o (_on_reset)
y:/program files/microchip/xc32/v3.01/bin/bin/../../lib/gcc/pic32mx/8.3.1/../../../../pic32mx/lib/fpu64\libpic32.a(default-on-bootstrap.o)
                              C:\Users\DANIEL~1.RAI\AppData\Local\Temp\ccdMNJnB.o (_on_bootstrap)
y:/program files/microchip/xc32/v3.01/bin/bin/../../lib/gcc/pic32mx/8.3.1/../../../../pic32mx/lib/fpu64\libpic32.a(default-nmi-handler.o)
                              C:\Users\DANIEL~1.RAI\AppData\Local\Temp\ccdMNJnB.o (_nmi_handler)
y:/program files/microchip/xc32/v3.01/bin/bin/../../lib/gcc/pic32mx/8.3.1/../../../../pic32mx/lib/fpu64\libpic32.a(pic32_data_init.o)
                              C:\Users\DANIEL~1.RAI\AppData\Local\Temp\ccdMNJnB.o (__pic32_data_init)
y:/program files/microchip/xc32/v3.01/bin/bin/../../lib/gcc/pic32mx/8.3.1/../../../../pic32mx/lib/fpu64\libpic32.a(pic32_init_cache.o)
                              C:\Users\DANIEL~1.RAI\AppData\Local\Temp\ccdMNJnB.o (__pic32_init_cache)
y:/program files/microchip/xc32/v3.01/bin/bin/../../lib/gcc/pic32mx/8.3.1/../../../../pic32mx/lib/fpu64\libpic32.a(pic32_init_tlb_ebi_sqi.o)
                              C:\Users\DANIEL~1.RAI\AppData\Local\Temp\ccdMNJnB.o (__pic32_tlb_init_ebi_sqi)
y:/program files/microchip/xc32/v3.01/bin/bin/../../lib/gcc/pic32mx/8.3.1/../../../../pic32mx/lib/fpu64\libpic32.a(general-exception.o)
                              C:\Users\DANIEL~1.RAI\AppData\Local\Temp\ccdMNJnB.o (_general_exception_context)
y:/program files/microchip/xc32/v3.01/bin/bin/../../lib/gcc/pic32mx/8.3.1/../../../../pic32mx/lib/fpu64\libpic32.a(cache-err-exception.o)
                              C:\Users\DANIEL~1.RAI\AppData\Local\Temp\ccdMNJnB.o (_cache_err_exception_context)
y:/program files/microchip/xc32/v3.01/bin/bin/../../lib/gcc/pic32mx/8.3.1/../../../../pic32mx/lib/fpu64\libpic32.a(simple-tlb-refill-exception.o)
                              C:\Users\DANIEL~1.RAI\AppData\Local\Temp\ccdMNJnB.o (_simple_tlb_refill_exception_context)
y:/program files/microchip/xc32/v3.01/bin/bin/../../lib/gcc/pic32mx/8.3.1/../../../../pic32mx/lib/fpu64\libpic32.a(defaultinterrupt.o)
                              C:\Users\DANIEL~1.RAI\AppData\Local\Temp\ccXcxPD4.o (_DefaultInterrupt)
y:/program files/microchip/xc32/v3.01/bin/bin/../../lib/gcc/pic32mx/8.3.1/../../../../pic32mx/lib/fpu64\libc.a(calloc.o)
                              build/default/production/_ext/1376093119/sys_command.o (calloc)
y:/program files/microchip/xc32/v3.01/bin/bin/../../lib/gcc/pic32mx/8.3.1/../../../../pic32mx/lib/fpu64\libc.a(ctype.o)
                              build/default/production/_ext/1033058136/dhcp.o (_ctype)
y:/program files/microchip/xc32/v3.01/bin/bin/../../lib/gcc/pic32mx/8.3.1/../../../../pic32mx/lib/fpu64\libc.a(ctypef.o)
                              build/default/production/_ext/1033058136/helpers.o (tolower)
y:/program files/microchip/xc32/v3.01/bin/bin/../../lib/gcc/pic32mx/8.3.1/../../../../pic32mx/lib/fpu64\libc.a(malloc.o)
                              build/default/production/_ext/1171490990/initialization.o (malloc)
y:/program files/microchip/xc32/v3.01/bin/bin/../../lib/gcc/pic32mx/8.3.1/../../../../pic32mx/lib/fpu64\libc.a(rand.o)
                              build/default/production/_ext/1033058136/dhcp.o (rand)
y:/program files/microchip/xc32/v3.01/bin/bin/../../lib/gcc/pic32mx/8.3.1/../../../../pic32mx/lib/fpu64\libc.a(strchr.o)
                              build/default/production/_ext/1376093119/sys_command.o (strchr)
y:/program files/microchip/xc32/v3.01/bin/bin/../../lib/gcc/pic32mx/8.3.1/../../../../pic32mx/lib/fpu64\libc.a(strncmp.o)
                              build/default/production/_ext/1376093119/sys_command.o (strncmp)
y:/program files/microchip/xc32/v3.01/bin/bin/../../lib/gcc/pic32mx/8.3.1/../../../../pic32mx/lib/fpu64\libc.a(strncpy.o)
                              build/default/production/_ext/732082881/drv_ethmac.o (strncpy)
y:/program files/microchip/xc32/v3.01/bin/bin/../../lib/gcc/pic32mx/8.3.1/../../../../pic32mx/lib/fpu64\libc.a(strtok.o)
                              build/default/production/_ext/1376093119/sys_command.o (strtok)
y:/program files/microchip/xc32/v3.01/bin/bin/../../lib/gcc/pic32mx/8.3.1/../../../../pic32mx/lib/fpu64\libc.a(strtol.o)
                              build/default/production/_ext/1033058136/tcpip_helpers.o (strtol)
y:/program files/microchip/xc32/v3.01/bin/bin/../../lib/gcc/pic32mx/8.3.1/../../../../pic32mx/lib/fpu64\libc.a(snprintf_cdnopsuxX.eo)
                              build/default/production/_ext/1033058136/tcpip_manager.o (_snprintf_cdnopsuxX)
y:/program files/microchip/xc32/v3.01/bin/bin/../../lib/gcc/pic32mx/8.3.1/../../../../pic32mx/lib/fpu64\libc.a(sprintf_cdnopsuxX.eo)
                              build/default/production/_ext/1376093119/sys_command.o (_sprintf_cdnopsuxX)
y:/program files/microchip/xc32/v3.01/bin/bin/../../lib/gcc/pic32mx/8.3.1/../../../../pic32mx/lib/fpu64\libc.a(sprintf_cdnopuxX.eo)
                              build/default/production/_ext/1033058136/tcpip_helpers.o (_sprintf_cdnopuxX)
y:/program files/microchip/xc32/v3.01/bin/bin/../../lib/gcc/pic32mx/8.3.1/../../../../pic32mx/lib/fpu64\libc.a(vsnprintf_cdnopsuxX.eo)
                              y:/program files/microchip/xc32/v3.01/bin/bin/../../lib/gcc/pic32mx/8.3.1/../../../../pic32mx/lib/fpu64\libc.a(snprintf_cdnopsuxX.eo) (_vsnprintf_cdnopsuxX)
y:/program files/microchip/xc32/v3.01/bin/bin/../../lib/gcc/pic32mx/8.3.1/../../../../pic32mx/lib/fpu64\libc.a(vsnprintf.o)
                              build/default/production/_ext/1376093119/sys_command.o (vsnprintf)
y:/program files/microchip/xc32/v3.01/bin/bin/../../lib/gcc/pic32mx/8.3.1/../../../../pic32mx/lib/fpu64\libc.a(errno.o)
                              y:/program files/microchip/xc32/v3.01/bin/bin/../../lib/gcc/pic32mx/8.3.1/../../../../pic32mx/lib/fpu64\libc.a(strtol.o) (errno)
y:/program files/microchip/xc32/v3.01/bin/bin/../../lib/gcc/pic32mx/8.3.1/../../../../pic32mx/lib/fpu64\libc.a(strcspn.o)
                              y:/program files/microchip/xc32/v3.01/bin/bin/../../lib/gcc/pic32mx/8.3.1/../../../../pic32mx/lib/fpu64\libc.a(strtok.o) (strcspn)
y:/program files/microchip/xc32/v3.01/bin/bin/../../lib/gcc/pic32mx/8.3.1/../../../../pic32mx/lib/fpu64\libc.a(strspn.o)
                              y:/program files/microchip/xc32/v3.01/bin/bin/../../lib/gcc/pic32mx/8.3.1/../../../../pic32mx/lib/fpu64\libc.a(strtok.o) (strspn)
y:/program files/microchip/xc32/v3.01/bin/bin/../../lib/gcc/pic32mx/8.3.1/../../../../pic32mx/lib/fpu64\libc.a(doprnt_cdnopsuxX.eo)
                              y:/program files/microchip/xc32/v3.01/bin/bin/../../lib/gcc/pic32mx/8.3.1/../../../../pic32mx/lib/fpu64\libc.a(sprintf_cdnopsuxX.eo) (_vfprintf_cdnopsuxX)
y:/program files/microchip/xc32/v3.01/bin/bin/../../lib/gcc/pic32mx/8.3.1/../../../../pic32mx/lib/fpu64\libc.a(doprnt_cdnopuxX.eo)
                              y:/program files/microchip/xc32/v3.01/bin/bin/../../lib/gcc/pic32mx/8.3.1/../../../../pic32mx/lib/fpu64\libc.a(sprintf_cdnopuxX.eo) (_vfprintf_cdnopuxX)
y:/program files/microchip/xc32/v3.01/bin/bin/../../lib/gcc/pic32mx/8.3.1/../../../../pic32mx/lib/fpu64\libc.a(doprnt.o)
                              y:/program files/microchip/xc32/v3.01/bin/bin/../../lib/gcc/pic32mx/8.3.1/../../../../pic32mx/lib/fpu64\libc.a(vsnprintf.o) (vfprintf)
y:/program files/microchip/xc32/v3.01/bin/bin/../../lib/gcc/pic32mx/8.3.1/../../../../pic32mx/lib/fpu64\libc.a(_fputc_simple.o)
                              y:/program files/microchip/xc32/v3.01/bin/bin/../../lib/gcc/pic32mx/8.3.1/../../../../pic32mx/lib/fpu64\libc.a(doprnt_cdnopsuxX.eo) (fputc)
y:/program files/microchip/xc32/v3.01/bin/bin/../../lib/gcc/pic32mx/8.3.1/../../../../pic32mx/lib/fpu64\libc.a(ldpowers.o)
                              y:/program files/microchip/xc32/v3.01/bin/bin/../../lib/gcc/pic32mx/8.3.1/../../../../pic32mx/lib/fpu64\libc.a(doprnt.o) (_npowers_)
y:/program files/microchip/xc32/v3.01/bin/bin/../../lib/gcc/pic32mx/8.3.1/../../../../pic32mx/lib/fpu64\libc.a(_iob.o)
                              y:/program files/microchip/xc32/v3.01/bin/bin/../../lib/gcc/pic32mx/8.3.1/../../../../pic32mx/lib/fpu64\libc.a(_fputc_simple.o) (_outdone)
y:/program files/microchip/xc32/v3.01/bin/bin/../../lib/gcc/pic32mx/8.3.1/../../../../pic32mx/lib/fpu64\libc.a(_flsbuf_simple.o)
                              y:/program files/microchip/xc32/v3.01/bin/bin/../../lib/gcc/pic32mx/8.3.1/../../../../pic32mx/lib/fpu64\libc.a(_fputc_simple.o) (_flsbuf)
y:/program files/microchip/xc32/v3.01/bin/bin/../../lib/gcc/pic32mx/8.3.1/../../../../pic32mx/lib/fpu64\libmfd.a(s_frexp.o)
                              y:/program files/microchip/xc32/v3.01/bin/bin/../../lib/gcc/pic32mx/8.3.1/../../../../pic32mx/lib/fpu64\libc.a(doprnt.o) (_frexpx)
y:/program files/microchip/xc32/v3.01/bin/bin/../../lib/gcc/pic32mx/8.3.1/fpu64\libgcc.a(_lshrdi3.o)
                              y:/program files/microchip/xc32/v3.01/bin/bin/../../lib/gcc/pic32mx/8.3.1/../../../../pic32mx/lib/fpu64\libc.a(doprnt_cdnopsuxX.eo) (__lshrdi3)
y:/program files/microchip/xc32/v3.01/bin/bin/../../lib/gcc/pic32mx/8.3.1/fpu64\libgcc.a(_cmpdi2.o)
                              y:/program files/microchip/xc32/v3.01/bin/bin/../../lib/gcc/pic32mx/8.3.1/../../../../pic32mx/lib/fpu64\libc.a(doprnt.o) (__cmpdi2)
y:/program files/microchip/xc32/v3.01/bin/bin/../../lib/gcc/pic32mx/8.3.1/fpu64\libgcc.a(_divdi3.o)
                              y:/program files/microchip/xc32/v3.01/bin/bin/../../lib/gcc/pic32mx/8.3.1/../../../../pic32mx/lib/fpu64\libc.a(doprnt.o) (__divdi3)
y:/program files/microchip/xc32/v3.01/bin/bin/../../lib/gcc/pic32mx/8.3.1/fpu64\libgcc.a(_moddi3.o)
                              y:/program files/microchip/xc32/v3.01/bin/bin/../../lib/gcc/pic32mx/8.3.1/../../../../pic32mx/lib/fpu64\libc.a(doprnt.o) (__moddi3)
y:/program files/microchip/xc32/v3.01/bin/bin/../../lib/gcc/pic32mx/8.3.1/fpu64\libgcc.a(_umoddi3.o)
                              y:/program files/microchip/xc32/v3.01/bin/bin/../../lib/gcc/pic32mx/8.3.1/../../../../pic32mx/lib/fpu64\libc.a(doprnt_cdnopsuxX.eo) (__umoddi3)
y:/program files/microchip/xc32/v3.01/bin/bin/../../lib/gcc/pic32mx/8.3.1/../../../../pic32mx/lib/fpu64\libpic32.a(sbrk.o)
                              y:/program files/microchip/xc32/v3.01/bin/bin/../../lib/gcc/pic32mx/8.3.1/../../../../pic32mx/lib/fpu64\libc.a(malloc.o) (sbrk)
y:/program files/microchip/xc32/v3.01/bin/bin/../../lib/gcc/pic32mx/8.3.1/../../../../pic32mx/lib/fpu64\libpic32.a(write.o)
                              y:/program files/microchip/xc32/v3.01/bin/bin/../../lib/gcc/pic32mx/8.3.1/../../../../pic32mx/lib/fpu64\libc.a(_fputc_simple.o) (write)

Microchip PIC32 Memory-Usage Report

kseg0 Program-Memory Usage
section                    address  length [bytes]      (dec)  Description
-------                 ----------  -------------------------  -----------
.simple_tlb_refill_excp 0x9d000000           0x10          16   
.text.DRV_ETHMAC_PIC32M 0x9d000010           0xf0         240   
.cache_err_excpt        0x9d000100           0x10          16   
.text._MacRxFreeCallbac 0x9d000110           0x70         112   
.app_excpt              0x9d000180           0x10          16  General-Exception 
.text._DRV_ETHPHY_Setup 0x9d000190           0x70         112   
.vectors                0x9d000200          0x4fc        1276   
.text.vfprintf          0x9d0006fc         0x1934        6452   
.text.TCPIP_STACK_Task  0x9d002030          0x92c        2348   
.text._vfprintf_cdnopsu 0x9d00295c          0x8cc        2252   
.dinit                  0x9d003228          0x880        2176   
.text.TCPIP_DHCP_Task   0x9d003aa8          0x744        1860   
.text._TCPIP_DoInitiali 0x9d0041ec          0x6c0        1728   
.text.SYS_CMD_Tasks     0x9d0048ac          0x6b4        1716   
.text.TCPIP_SNTP_Task   0x9d004f60          0x64c        1612   
.text.DRV_ETHMAC_PIC32M 0x9d0055ac          0x55c        1372   
.rodata.str1.4          0x9d005b08          0x490        1168   
.text.TCPIP_ARP_Task    0x9d005f98          0x450        1104   
.text                   0x9d0063e8          0x7e4        2020  App's exec code 
.text.TCPIP_STACK_Bring 0x9d006bcc          0x3a0         928   
.text.TCPIP_ARP_Initial 0x9d006f6c          0x38c         908   
.text.TCPIP_IPV4_Task   0x9d0072f8          0x358         856   
.text.TCPIP_IPV4_PktTx  0x9d007650          0x34c         844   
.text.TCPIP_UDP_Flush   0x9d00799c          0x32c         812   
.text._DHCPReceive      0x9d007cc8          0x300         768   
.text._DRV_ETHPHY_Defau 0x9d007fc8          0x2f8         760   
.text.TCPIP_UDP_Task    0x9d0082c0          0x2f4         756   
.text.TCPIP_UDP_Options 0x9d0085b4          0x2ec         748   
.text._DHCPSend         0x9d0088a0          0x2cc         716   
.text.CommandHelp       0x9d008b6c          0x2c4         708   
.text.DRV_MIIM_Tasks    0x9d008e30          0x2a8         680   
.text._DHCPOptionHostNa 0x9d0090d8          0x288         648   
.rodata.str1.4          0x9d009360          0x26c         620   
.text                   0x9d0095cc          0x25c         604  App's exec code 
.text.DRV_ETHMAC_PIC32M 0x9d009828          0x254         596   
.text.TCPIP_DHCP_Initia 0x9d009a7c          0x254         596   
.text._UDPOpen          0x9d009cd0          0x250         592   
.text.TCPIP_IPV4_Packet 0x9d009f20          0x238         568   
.text.DRV_ETHMAC_LibRxB 0x9d00a158          0x22c         556   
.text.malloc            0x9d00a384          0x224         548   
.text._TCPIP_HEAP_Free  0x9d00a5a8          0x220         544   
.text.TCPIP_UDP_Bind    0x9d00a7c8          0x218         536   
.text._LoadNetworkConfi 0x9d00a9e0          0x210         528   
.text.TCPIP_Helper_Stri 0x9d00abf0          0x1fc         508   
.text.TCPIP_ARP_EntryRe 0x9d00adec          0x1ec         492   
.text.TCPIP_UDP_Options 0x9d00afd8          0x1e4         484   
.text.SYS_TIME_PLIBCall 0x9d00b1bc          0x1e0         480   
.text.TCPIP_IPV4_Initia 0x9d00b39c          0x1d8         472   
.text.TCPIP_UDP_Deiniti 0x9d00b574          0x1d8         472   
.text.CORE_TIMER_Handle 0x9d00b74c          0x1d0         464   
.text.UART2_FAULT_Handl 0x9d00b91c          0x1d0         464   
.text.UART2_RX_Handler  0x9d00baec          0x1d0         464   
.text.UART2_TX_Handler  0x9d00bcbc          0x1d0         464   
.text.ETHERNET_Handler  0x9d00be8c          0x1d0         464   
.text.FLASH_CONTROL_Han 0x9d00c05c          0x1d0         464   
.text.TCPIP_UDP_ArrayGe 0x9d00c22c          0x1c0         448   
.text.DRV_ETHMAC_LibRxA 0x9d00c3ec          0x1bc         444   
.text.APP_Tasks         0x9d00c5a8          0x1bc         444   
.text.DRV_ETHMAC_PIC32M 0x9d00c764          0x1b4         436   
.text._EthAckPacket     0x9d00c918          0x1b4         436   
.text.TCPIP_SNTP_Initia 0x9d00cacc          0x1a8         424   
.text.xTaskIncrementTic 0x9d00cc74          0x1a4         420   
.text._EthAppendBusyLis 0x9d00ce18          0x1a0         416   
.rodata                 0x9d00cfb8          0x1a0         416  Read-only const 
.text                   0x9d00d158          0x1a0         416  App's exec code 
.text._TCPIP_HEAP_Mallo 0x9d00d2f8          0x19c         412   
.text._DRV_MIIM_StartOp 0x9d00d494          0x198         408   
.text.DRV_ETHMAC_LibRxG 0x9d00d62c          0x194         404   
.text.TCPIP_ICMP_Task   0x9d00d7c0          0x194         404   
.text._ARPProbeAddress  0x9d00d954          0x190         400   
.text._DRV_ETHMAC_AddRx 0x9d00dae4          0x18c         396   
.text.UART2_RX_Interrup 0x9d00dc70          0x18c         396   
.text.DRV_MIIM_Setup    0x9d00ddfc          0x188         392   
.text.TCPIP_Helper_Stri 0x9d00df84          0x184         388   
.text.UART2_TX_Interrup 0x9d00e108          0x184         388   
.text._DRV_MIIM_ClientD 0x9d00e28c          0x17c         380   
.text.TCPIP_IPV4_ArpHan 0x9d00e408          0x17c         380   
.text.TCPIP_UDP_Initial 0x9d00e584          0x17c         380   
.text.SYS_TIME_HwTimerC 0x9d00e700          0x17c         380   
.text.DRV_EXTPHY_MDIXCo 0x9d00e87c          0x178         376   
.text.DRV_ETHMAC_PIC32M 0x9d00e9f4          0x170         368   
.text.DRV_ETHMAC_LibTxS 0x9d00eb64          0x170         368   
.text.TCPIP_IPV4_DeInit 0x9d00ecd4          0x170         368   
.text.DRV_ETHMAC_PIC32M 0x9d00ee44          0x168         360   
.text.DRV_ETHPHY_Setup  0x9d00efac          0x168         360   
.text                   0x9d00f114          0x2d0         720  App's exec code 
.rodata                 0x9d00f3e4            0x4           4  Read-only const 
.rodata                 0x9d00f3e8          0x160         352  Read-only const 
.text._DRV_ETHPHY_NegRe 0x9d00f548          0x15c         348   
.text.DRV_EXTPHY_MIICon 0x9d00f6a4          0x158         344   
.text.scale             0x9d00f7fc          0x158         344   
.text._sbrk_init        0x9d00f954          0x154         340   
.text._ARPSendIfPkt     0x9d00faa8          0x150         336   
.text.TCPIP_HEAP_Create 0x9d00fbf8          0x150         336   
.text.TCPIP_STACK_KillS 0x9d00fd48          0x14c         332   
.text._ARPDeleteResourc 0x9d00fe94          0x148         328   
.text.TCPIP_IPV4_MacPac 0x9d00ffdc          0x144         324   
.text.SYS_TIME_Initiali 0x9d010120          0x144         324   
.text.DRV_ETHMAC_Tasks_ 0x9d010264          0x140         320   
.text._DRV_ETHPHY_Setup 0x9d0103a4          0x140         320   
.text.DRV_MIIM_Operatio 0x9d0104e4          0x140         320   
.text._UDPv4TxAckFnc    0x9d010624          0x140         320   
.text.UART2_Write       0x9d010764          0x140         320   
.text.DisplayNodeMsg    0x9d0108a4          0x138         312   
.text.DRV_ETHMAC_PIC32M 0x9d0109dc          0x134         308   
.text.TCPIP_ARP_IsResol 0x9d010b10          0x134         308   
.text.DRV_ETHMAC_LibDes 0x9d010c44          0x130         304   
.text.SYS_TIME_TimerObj 0x9d010d74          0x130         304   
.text.DRV_ETHMAC_LibIni 0x9d010ea4          0x12c         300   
.text.TCPIP_DHCP_InfoGe 0x9d010fd0          0x128         296   
.text.fputc             0x9d0110f8          0x128         296   
.text._DRV_ETHPHY_Setup 0x9d011220          0x124         292   
.text.vTaskSwitchContex 0x9d011344          0x124         292   
.text._DHCPProcessRecei 0x9d011468          0x120         288   
.text                   0x9d011588          0x120         288  App's exec code 
.text.DRV_ETHMAC_PIC32M 0x9d0116a8          0x11c         284   
.text._DRV_PHY_SMITrans 0x9d0117c4          0x11c         284   
.text.TCPIP_Helper_Pack 0x9d0118e0          0x11c         284   
.text._MACDeinit        0x9d0119fc          0x118         280   
.rodata                 0x9d011b14          0x114         276  Read-only const 
.text._UDPsetPacketInfo 0x9d011c28          0x114         276   
.text._DHCPSetLeaseTime 0x9d011d3c          0x110         272   
.text._OAHashFindBkt    0x9d011e4c          0x110         272   
.text.TCPIP_UDP_RemoteB 0x9d011f5c          0x10c         268   
.text._flsbuf           0x9d012068          0x10c         268   
.text._UDPv4AllocateSkt 0x9d012174          0x108         264   
.text.SYS_Initialize    0x9d01227c          0x108         264   
.text._DRV_ETHPHY_Setup 0x9d012384          0x104         260   
.text._DHCPEnable       0x9d012488          0x104         260   
.text._DHCPClientClose  0x9d01258c          0x104         260   
.rodata                 0x9d012690          0x104         260  Read-only const 
.text.TCPIP_SNTP_CurrTi 0x9d012794          0x100         256   
.text.TCPIP_UDP_Disconn 0x9d012894          0x100         256   
.text.SYS_TIME_AddToLis 0x9d012994          0x100         256   
.text.DRV_ETHMAC_LibMAC 0x9d012a94           0xfc         252   
.text.DRV_MIIM_Open     0x9d012b90           0xfc         252   
.text._MacRxPacketAck   0x9d012c8c           0xf8         248   
.rodata                 0x9d012d84           0xf8         248  Read-only const 
.text.DRV_MIIM_Initiali 0x9d012e7c           0xf4         244   
.text._TCPIP_StackSyncF 0x9d012f70           0xf4         244   
.text._DHCPPacketFilter 0x9d013064           0xec         236   
.text._TCPIP_PKT_Packet 0x9d013150           0xec         236   
.text.TCPIP_OAHASH_Entr 0x9d01323c           0xe8         232   
.text._DRV_ETHPHY_NegCo 0x9d013324           0xe4         228   
.text.UART2_Initialize  0x9d013408           0xe4         228   
.text.TCPIP_ARP_EntryRe 0x9d0134ec           0xe0         224   
.text.TCPIP_STACK_Bring 0x9d0135cc           0xe0         224   
.text._DRV_ETHPHY_Setup 0x9d0136ac           0xdc         220   
.text.TCPIP_DHCP_Connec 0x9d013788           0xdc         220   
.text.general_exception 0x9d013864           0xdc         220   
.text._cache_err_except 0x9d013940           0xd8         216   
.text.simple_tlb_refill 0x9d013a18           0xd8         216   
.text._DRV_ETHMAC_LinkS 0x9d013af0           0xd0         208   
.text._DHCPCleanup      0x9d013bc0           0xd0         208   
.text._MacTxPendingPack 0x9d013c90           0xcc         204   
.text.TCPIP_OAHASH_Entr 0x9d013d5c           0xcc         204   
.text.TCPIP_STACK_Initi 0x9d013e28           0xcc         204   
.text.DRV_ETHPHY_Open   0x9d013ef4           0xc8         200   
.text._ARPUpdateEntry   0x9d013fbc           0xc8         200   
.text._DHCPOptionWriteS 0x9d014084           0xc8         200   
.text.DRV_ETHMAC_LibTxA 0x9d01414c           0xc4         196   
.text._DRV_ETHPHY_Reset 0x9d014210           0xc4         196   
.text.TCPIP_IPV4_Select 0x9d0142d4           0xc4         196   
.text.TCPIP_UDP_SocketI 0x9d014398           0xc4         196   
.text.SYS_CMDIO_ADD     0x9d01445c           0xc4         196   
.text.fround            0x9d014520           0xc4         196   
.text.DRV_ETHPHY_Vendor 0x9d0145e4           0xc0         192   
.text.Ipv4FilterSetActi 0x9d0146a4           0xc0         192   
.text._TCPIPStackModule 0x9d014764           0xc0         192   
.text.UART2_Read        0x9d014824           0xc0         192   
.text.SendCommandPrint  0x9d0148e4           0xc0         192   
.text.DRV_ETHMAC_PIC32M 0x9d0149a4           0xbc         188   
.text.DRV_ETHPHY_Vendor 0x9d014a60           0xbc         188   
.text.DRV_MIIM_Operatio 0x9d014b1c           0xbc         188   
.text._DHCPOptionWriteI 0x9d014bd8           0xbc         188   
.text.UART2_FAULT_Inter 0x9d014c94           0xbc         188   
.tlb.__pic32_tlb_init_e 0x9d014d50           0xbc         188   
.text._EthTxSchedBuffer 0x9d014e0c           0xb8         184   
.text.DRV_ETHPHY_Vendor 0x9d014ec4           0xb8         184   
.text._DRV_ETHPHY_NegCo 0x9d014f7c           0xb8         184   
.text._ARPNotifyClients 0x9d015034           0xb8         184   
.text._DHCPOptionProces 0x9d0150ec           0xb8         184   
.text._TCPIPStackInsert 0x9d0151a4           0xb8         184   
.text.TCPIP_UDP_ArrayPu 0x9d01525c           0xb8         184   
.text._DRV_ETHMAC_LinkS 0x9d015314           0xb4         180   
.text.TCPIP_ARP_Probe   0x9d0153c8           0xb4         180   
.text.TCPIP_Notificatio 0x9d01547c           0xb4         180   
.text.SYS_TIME_TimerSta 0x9d015530           0xb4         180   
.text.DRV_ETHPHY_Initia 0x9d0155e4           0xb0         176   
.text._DRV_ETHPHY_NegRe 0x9d015694           0xb0         176   
.text.TCPIP_UDP_BcastIP 0x9d015744           0xb0         176   
.text.SYS_CONSOLE_Print 0x9d0157f4           0xb0         176   
.text._sbrk             0x9d0158a4           0xb0         176   
.text.TCPIP_IPV4_Select 0x9d015954           0xac         172   
.text.TCPIP_Helper_Form 0x9d015a00           0xac         172   
.text.GPIO_Initialize   0x9d015aac           0xac         172   
.text.SYS_TIME_Callback 0x9d015b58           0xac         172   
.text.DRV_ETHMAC_PIC32M 0x9d015c04           0xa8         168   
.text._EthTxSchedList   0x9d015cac           0xa8         168   
.text._DRV_ETHPHY_Setup 0x9d015d54           0xa8         168   
.text.TCPIP_ARP_Deiniti 0x9d015dfc           0xa8         168   
.text.SYS_CONSOLE_Statu 0x9d015ea4           0xa8         168   
.text                   0x9d015f4c           0xa8         168  App's exec code 
.text.DRV_ETHMAC_LibDes 0x9d015ff4           0xa4         164   
.text._DRV_MIIM_GetClie 0x9d016098           0xa4         164   
.text.TCPIP_STACK_Strin 0x9d01613c           0xa4         164   
.text.TCPIP_PKT_PacketM 0x9d0161e0           0xa4         164   
.text.TCPIP_PKT_DataSeg 0x9d016284           0xa4         164   
.text.TCPIP_ARP_EntryGe 0x9d016328           0xa0         160   
.text._TCPIP_HEAP_MaxSi 0x9d0163c8           0xa0         160   
.text.TCPIP_Helper_IPAd 0x9d016468           0xa0         160   
.text._TCPIPStackModule 0x9d016508           0xa0         160   
.text.SYS_TIME_RemoveFr 0x9d0165a8           0xa0         160   
.text.strtok            0x9d016648           0xa0         160   
.rodata                 0x9d0166e8          0x140         320  Read-only const 
.text._DRV_PHY_SMITrans 0x9d016828           0x9c         156   
.text.TCPIP_Helper_Sing 0x9d0168c4           0x9c         156   
.text.TCPIP_UDP_PutIsRe 0x9d016960           0x9c         156   
.text.TCPIP_UDP_Destina 0x9d0169fc           0x9c         156   
.text._DRV_ETHMAC_LinkS 0x9d016a98           0x98         152   
.text.DRV_ETHMAC_LibClo 0x9d016b30           0x98         152   
.text._DRV_ETHPHY_LinkS 0x9d016bc8           0x98         152   
.text.IPv4RegisterFilte 0x9d016c60           0x98         152   
.text.TCPIP_Helper_Prot 0x9d016cf8           0x98         152   
.text.TCPIP_Helper_Prot 0x9d016d90           0x98         152   
.text                   0x9d016e28           0x98         152  App's exec code 
.text._frexpx           0x9d016ec0           0x98         152   
.text._DRV_ETHMAC_LinkS 0x9d016f58           0x94         148   
.text.TCPIP_Helper_Prot 0x9d016fec           0x94         148   
.text._TCPIPStackIpAddF 0x9d017080           0x94         148   
.text._UDPSetNewRxPacke 0x9d017114           0x94         148   
.text.CLK_Initialize    0x9d0171a8           0x94         148   
.text._DRV_MIIM_GetObje 0x9d01723c           0x90         144   
.text.Helper_SingleList 0x9d0172cc           0x90         144   
.text._DRV_MIIM_Release 0x9d01735c           0x90         144   
.text._DHCPNotifyClient 0x9d0173ec           0x90         144   
.text.TCPIP_Helper_Prot 0x9d01747c           0x90         144   
.text.TCPIP_UDP_TxOffse 0x9d01750c           0x90         144   
.text.SYS_TIME_TimerAdd 0x9d01759c           0x90         144   
.text._DRV_ETHPHY_Reset 0x9d01762c           0x8c         140   
.text._TCPIP_PKT_Packet 0x9d0176b8           0x8c         140   
.text.TCPIP_SNTP_Connec 0x9d017744           0x8c         140   
.text.SYS_TIME_GetTimer 0x9d0177d0           0x8c         140   
.text.main              0x9d01785c           0x8c         140   
.text._TCPIP_PKT_Packet 0x9d0178e8           0x88         136   
.text.TCPIP_UDP_Close   0x9d017970           0x88         136   
.text.write             0x9d0179f8           0x88         136   
.text.DRV_MIIM_Register 0x9d017a80           0x84         132   
.text.TCPIP_IPV4_Cleanu 0x9d017b04           0x84         132   
.text._UDPAllocateEphem 0x9d017b88           0x84         132   
.text.TCPIP_UDP_SourceI 0x9d017c0c           0x84         132   
.text.SYS_CONSOLE_Initi 0x9d017c90           0x84         132   
.text                   0x9d017d14           0x84         132  App's exec code 
.text._DRV_ETHPHY_NegCo 0x9d017d98           0x80         128   
.text.hexatob           0x9d017e18           0x80         128   
.text.TCPIP_Helper_Stri 0x9d017e98           0x80         128   
.text.TCPIP_Helper_Prot 0x9d017f18           0x80         128   
.text._TCPIP_SelectDefa 0x9d017f98           0x80         128   
.text.TCPIP_STACK_NetHa 0x9d018018           0x80         128   
.text.TCPIP_STACK_Addre 0x9d018098           0x80         128   
.text.NVM_StartOperatio 0x9d018118           0x80         128   
.rodata                 0x9d018198           0xfc         252  Read-only const 
.text._TCPIP_MacEventCB 0x9d018294           0x7c         124   
.text._TCPIPStackAnyNet 0x9d018310           0x7c         124   
.text._TCPIPStackModule 0x9d01838c           0x7c         124   
.text.TCPIP_Notificatio 0x9d018408           0x7c         124   
.text.TCPIP_SNTP_TimeSt 0x9d018484           0x7c         124   
.text.TCPIP_UDP_RxOffse 0x9d018500           0x7c         124   
.text.SYS_TIME_TimerDes 0x9d01857c           0x7c         124   
.text._EnetPoolFreeDcpt 0x9d0185f8           0x78         120   
.rodata.str1.4          0x9d018670           0x78         120   
.text._DHCPOptionProces 0x9d0186e8           0x78         120   
.text.TCPIP_SNTP_TimeGe 0x9d018760           0x78         120   
.text._keyEndProcess    0x9d0187d8           0x78         120   
.text._keyHomeProcess   0x9d018850           0x78         120   
.text.SYS_TIME_Counter6 0x9d0188c8           0x78         120   
.text.rand              0x9d018940           0x78         120   
.text.DRV_ETHMAC_PIC32M 0x9d0189b8           0x74         116   
.text._DRV_ETHPHY_Setup 0x9d018a2c           0x74         116   
.text.DRV_MIIM_Deregist 0x9d018aa0           0x74         116   
.text.DRV_MIIM_Deinitia 0x9d018b14           0x74         116   
.text._TCPIP_HEAP_Delet 0x9d018b88           0x74         116   
.text._DHCPOptionProces 0x9d018bfc           0x74         116   
.text._TCPIPStackSignal 0x9d018c70           0x74         116   
.text.RTCC_Initialize   0x9d018ce4           0x74         116   
.text.SYS_TIME_UpdateTi 0x9d018d58           0x74         116   
.text._DRV_ETHPHY_Setup 0x9d018dcc           0x70         112   
.text._DRV_ETHPHY_Setup 0x9d018e3c           0x70         112   
.text._DRV_ETHPHY_Setup 0x9d018eac           0x70         112   
.text._DRV_ETHPHY_NegRe 0x9d018f1c           0x70         112   
.text.TCPIP_ICMP_Initia 0x9d018f8c           0x70         112   
.text._ARPSetEntry      0x9d018ffc           0x70         112   
.text._UDPClose         0x9d01906c           0x70         112   
.text.TCPIP_UDP_SocketN 0x9d0190dc           0x70         112   
.text.TCPIP_UDP_SignalH 0x9d01914c           0x70         112   
.text.SYS_CMD_Initializ 0x9d0191bc           0x70         112   
.text.Console_UART_Read 0x9d01922c           0x70         112   
.text.Console_UART_Writ 0x9d01929c           0x70         112   
.text.DRV_ETHMAC_PIC32M 0x9d01930c           0x6c         108   
.text._DRV_ETHPHY_NegCo 0x9d019378           0x6c         108   
.text._DHCPOptionClient 0x9d0193e4           0x6c         108   
.text.TCPIP_STACK_Match 0x9d019450           0x6c         108   
.rodata                 0x9d0194bc           0x6c         108  Read-only const 
.text._TCPIP_PKT_Socket 0x9d019528           0x6c         108   
.text.SYS_CONSOLE_Messa 0x9d019594           0x6c         108   
.text._MacTxFreeCallbac 0x9d019600           0x68         104   
.text._ARPRemoveEntry   0x9d019668           0x68         104   
.text._DHCPSetRunFail   0x9d0196d0           0x68         104   
.text._DHCPSetTimeout   0x9d019738           0x68         104   
.text._DHCPSetBoundStat 0x9d0197a0           0x68         104   
.text.TCPIP_DHCP_Deinit 0x9d019808           0x68         104   
.text.TCPIP_UDP_IsConne 0x9d019870           0x68         104   
.text.Console_UART_Writ 0x9d0198d8           0x68         104   
.text.Console_UART_Writ 0x9d019940           0x68         104   
.text.Console_UART_Read 0x9d0199a8           0x68         104   
.text.Console_UART_Read 0x9d019a10           0x68         104   
.text._DRV_PHY_SMIReadS 0x9d019a78           0x64         100   
.text._DRV_PHY_SMIWrite 0x9d019adc           0x64         100   
.text.TCPIP_ARP_HashEnt 0x9d019b40           0x64         100   
.text.TCPIP_OAHASH_Entr 0x9d019ba4           0x64         100   
.text.TCPIP_Helper_Prot 0x9d019c08           0x64         100   
.text.TCPIP_STACK_IsBca 0x9d019c6c           0x64         100   
.text._UDPFreeTxResourc 0x9d019cd0           0x64         100   
.text.TCPIP_UDP_OpenCli 0x9d019d34           0x64         100   
.text.CORETIMER_Start   0x9d019d98           0x64         100   
.rodata.str1.4          0x9d019dfc           0x64         100   
.text._sprintf_cdnopsux 0x9d019e60           0x64         100   
.text._vsnprintf_cdnops 0x9d019ec4           0x64         100   
.text.vsnprintf         0x9d019f28           0x64         100   
.text._MacTxDiscardQueu 0x9d019f8c           0x60          96   
.text._EnetDescriptorsC 0x9d019fec           0x60          96   
.text._DRV_ETHPHY_LinkS 0x9d01a04c           0x60          96   
.text.TCPIP_IPV4_CheckP 0x9d01a0ac           0x60          96   
.text._TCPIP_HEAP_Buffe 0x9d01a10c           0x60          96   
.text._DHCPOptionProces 0x9d01a16c           0x60          96   
.text.TCPIP_SNTP_Deinit 0x9d01a1cc           0x60          96   
.text.TCPIP_UDP_GetIsRe 0x9d01a22c           0x60          96   
.text.CommandQuit       0x9d01a28c           0x60          96   
.text.SYS_CONSOLE_Read  0x9d01a2ec           0x60          96   
.text.SYS_CONSOLE_ReadC 0x9d01a34c           0x60          96   
.text.SYS_CONSOLE_Write 0x9d01a3ac           0x60          96   
.text.DRV_ETHMAC_PIC32M 0x9d01a40c           0x5c          92   
.text.DRV_ETHPHY_LinkSt 0x9d01a468           0x5c          92   
.text.DRV_ETHPHY_Negoti 0x9d01a4c4           0x5c          92   
.text.TCPIP_ARP_Handler 0x9d01a520           0x5c          92   
.text.fnv_32_hash       0x9d01a57c           0x5c          92   
.text.TCPIP_STACK_MACId 0x9d01a5d8           0x5c          92   
.text.TCPIP_STACK_NetBy 0x9d01a634           0x5c          92   
.text.TCPIP_SNTP_SetErr 0x9d01a690           0x5c          92   
.text.EVIC_Initialize   0x9d01a6ec           0x5c          92   
.text._keyRightProcess  0x9d01a748           0x5c          92   
.text.strcspn           0x9d01a7a4           0x5c          92   
.text.strspn            0x9d01a800           0x5c          92   
.text.DRV_ETHMAC_PIC32M 0x9d01a85c           0x58          88   
.text._DRV_ETHMAC_LinkS 0x9d01a8b4           0x58          88   
.text.DRV_ETHPHY_Close  0x9d01a90c           0x58          88   
.text._DHCPOptionProces 0x9d01a964           0x58          88   
.text._DHCPOptionProces 0x9d01a9bc           0x58          88   
.text._DHCPOptionProces 0x9d01aa14           0x58          88   
.text.TCPIP_Helper_Prot 0x9d01aa6c           0x58          88   
.text.TCPIP_Notificatio 0x9d01aac4           0x58          88   
.text.SYS_INT_SourceDis 0x9d01ab1c           0x58          88   
.text.SYS_TIME_Resource 0x9d01ab74           0x58          88   
.text._MACTxPacketAckCa 0x9d01abcc           0x54          84   
.text._DRV_ETHPHY_NegRe 0x9d01ac20           0x54          84   
.text._DRV_ETHPHY_NegRe 0x9d01ac74           0x54          84   
.rodata                 0x9d01acc8           0x54          84  Read-only const 
.text._ARPRemoveCacheEn 0x9d01ad1c           0x54          84   
.text.TCPIP_STACK_Addre 0x9d01ad70           0x54          84   
.text.TCPIP_PKT_Initial 0x9d01adc4           0x54          84   
.text.vPortIncrementTic 0x9d01ae18           0x54          84   
.text.main_entry        0x9d01ae6c           0x54          84   
.text._XtlEventsTcp2Eth 0x9d01aec0           0x50          80   
.text.DRV_MIIM_Close    0x9d01af10           0x50          80   
.text.TCPIP_Helper_Prot 0x9d01af60           0x50          80   
.text.TCPIP_STACK_IPAdd 0x9d01afb0           0x50          80   
.text.TCPIP_Notificatio 0x9d01b000           0x50          80   
.text.TCPIP_SNTP_Cleanu 0x9d01b050           0x50          80   
.text.DRV_ETH_MIIMReadS 0x9d01b0a0           0x4c          76   
.text.DRV_ETHPHY_Tasks  0x9d01b0ec           0x4c          76   
.text.DRV_ETHPHY_Reinit 0x9d01b138           0x4c          76   
.text._DRV_PHY_SetOperD 0x9d01b184           0x4c          76   
.text.DRV_ETHPHY_Reset  0x9d01b1d0           0x4c          76   
.text.DRV_ETHPHY_Negoti 0x9d01b21c           0x4c          76   
.text._TCPIP_HEAP_Callo 0x9d01b268           0x4c          76   
.text._DHCPOptionProces 0x9d01b2b4           0x4c          76   
.text.TCPIP_Helper_Sing 0x9d01b300           0x4c          76   
.text._UDPIsAvailablePo 0x9d01b34c           0x4c          76   
.text.SYS_RESET_Softwar 0x9d01b398           0x4c          76   
.text.SYS_TMR_TickCount 0x9d01b3e4           0x4c          76   
.text.SYS_TMR_TickCount 0x9d01b430           0x4c          76   
.text.TCPIP_STACK_Init  0x9d01b47c           0x4c          76   
.text.sbrk              0x9d01b4c8           0x4c          76   
.text.DRV_ETH_MIIMWrite 0x9d01b514           0x48          72   
.text._DRV_ETHPHY_Clien 0x9d01b55c           0x48          72   
.text._DRV_ETHPHY_Clien 0x9d01b5a4           0x48          72   
.text._DRV_ETHPHY_Clien 0x9d01b5ec           0x48          72   
.text._DRV_ETHPHY_Clien 0x9d01b634           0x48          72   
.text._DRV_ETHPHY_Clien 0x9d01b67c           0x48          72   
.text._DRV_ETHPHY_Clien 0x9d01b6c4           0x48          72   
.text._DRV_ETHPHY_Setup 0x9d01b70c           0x48          72   
.text.DRV_ETHPHY_Restar 0x9d01b754           0x48          72   
.text.TCPIP_ARP_Handler 0x9d01b79c           0x48          72   
.text._DHCPOptionProces 0x9d01b7e4           0x48          72   
.text._TCPIP_STACK_Tick 0x9d01b82c           0x48          72   
.text._keyLeftProcess   0x9d01b874           0x48          72   
.text.SYS_TMR_TickCount 0x9d01b8bc           0x48          72   
.text.uxListRemove      0x9d01b904           0x48          72   
.text.DRV_ETHMAC_LibRxP 0x9d01b94c           0x44          68   
.text.DRV_ETHMAC_LibRxS 0x9d01b990           0x44          68   
.text.DRV_ETHMAC_LibTxP 0x9d01b9d4           0x44          68   
.text._DRV_PHY_SMITrans 0x9d01ba18           0x44          68   
.text._DRV_PHY_NegCompl 0x9d01ba5c           0x44          68   
.text.TCPIP_ICMP_Deinit 0x9d01baa0           0x44          68   
.text._SwapARPPacket    0x9d01bae4           0x44          68   
.text.Ipv4DeRegisterFil 0x9d01bb28           0x44          68   
.text._DHCPOptionWriteM 0x9d01bb6c           0x44          68   
.text.TCPIP_STACK_Index 0x9d01bbb0           0x44          68   
.text._TCPIPStackSetCon 0x9d01bbf4           0x44          68   
.text._TCPIPStackSignal 0x9d01bc38           0x44          68   
.text._UDPFreeRxQueue   0x9d01bc7c           0x44          68   
.rodata.str1.4          0x9d01bcc0           0x44          68   
.text.SYS_TIME_Resource 0x9d01bd04           0x44          68   
.text                   0x9d01bd48           0x44          68  App's exec code 
.text.calloc            0x9d01bd8c           0x44          68   
.text.strncpy           0x9d01bdd0           0x44          68   
.text._DRV_ETHPHY_NegCo 0x9d01be14           0x40          64   
.text._DRV_ETHPHY_Reset 0x9d01be54           0x40          64   
.text._DRV_ETHPHY_Setup 0x9d01be94           0x40          64   
.text.TCPIP_HEAP_Create 0x9d01bed4           0x40          64   
.text._DHCPOptionWriteP 0x9d01bf14           0x40          64   
.rodata.str1.4          0x9d01bf54           0x40          64   
.text._TCPIPSignalEntry 0x9d01bf94           0x40          64   
.text.TCPIP_STACK_NetIs 0x9d01bfd4           0x40          64   
.text.TCPIP_UDP_Discard 0x9d01c014           0x40          64   
.text.SendCommandCharac 0x9d01c054           0x40          64   
.text._keyDownProcess   0x9d01c094           0x40          64   
.text._keyUpProcess     0x9d01c0d4           0x40          64   
.text.SYS_Tasks         0x9d01c114           0x40          64   
.text._DRV_ETHMAC_LinkS 0x9d01c154           0x3c          60   
.text.DRV_ETHMAC_Single 0x9d01c190           0x3c          60   
.text._DRV_ETHPHY_LinkS 0x9d01c1cc           0x3c          60   
.text._DRV_ETHPHY_NegCo 0x9d01c208           0x3c          60   
.text._DRV_ETHPHY_NegRe 0x9d01c244           0x3c          60   
.text._DRV_ETHPHY_NegRe 0x9d01c280           0x3c          60   
.text.Helper_SingleList 0x9d01c2bc           0x3c          60   
.text.TCPIP_ARP_HashKey 0x9d01c2f8           0x3c          60   
.text.TCPIP_OAHASH_Init 0x9d01c334           0x3c          60   
.text.TCPIP_Helper_Sing 0x9d01c370           0x3c          60   
.text._TCPIPStackModule 0x9d01c3ac           0x3c          60   
.text.CORE_TIMER_Interr 0x9d01c3e8           0x3c          60   
.text.SYS_TIME_Counter6 0x9d01c424           0x3c          60   
.text.strncmp           0x9d01c460           0x3c          60   
.text                   0x9d01c49c           0x3c          60  App's exec code 
.text.DRV_MIIM_Status   0x9d01c4d8           0x38          56   
.text._ARPAllocateTxPac 0x9d01c510           0x38          56   
.text._ARPTxAckFnc      0x9d01c548           0x38          56   
.text._TCPIPStackPacket 0x9d01c580           0x38          56   
.text._UDPTxPktValid    0x9d01c5b8           0x38          56   
.text.SendCommandMessag 0x9d01c5f0           0x38          56   
.text.SYS_TIME_GetElaps 0x9d01c628           0x38          56   
.text.uxPortSetInterrup 0x9d01c660           0x38          56   
.text.prvResetNextTaskU 0x9d01c698           0x38          56   
.rodata.cst8            0x9d01c6d0           0x38          56   
.text.DRV_ETHMAC_PIC32M 0x9d01c708           0x34          52   
.text.DRV_ETHMAC_LibDes 0x9d01c73c           0x34          52   
.text.DRV_ETH_RxSetBuff 0x9d01c770           0x34          52   
.text.DRV_ETH_MACSetAdd 0x9d01c7a4           0x34          52   
.text.DRV_ETH_MACGetAdd 0x9d01c7d8           0x34          52   
.text.DRV_ETHPHY_PhyAdd 0x9d01c80c           0x34          52   
.text._DHCPSocketRxSign 0x9d01c840           0x34          52   
.text._TCPIPStackHandle 0x9d01c874           0x34          52   
.text.TCPIP_STACK_NetIs 0x9d01c8a8           0x34          52   
.text.TCPIP_PKT_Payload 0x9d01c8dc           0x34          52   
.text.TCPIP_SNTP_Socket 0x9d01c910           0x34          52   
.text.TCPIP_SNTP_Connec 0x9d01c944           0x34          52   
.text._UDPUpdatePacketL 0x9d01c978           0x34          52   
.text.CORETIMER_Stop    0x9d01c9ac           0x34          52   
.text.NVM_InterruptHand 0x9d01c9e0           0x34          52   
.text.UART2_WritePendin 0x9d01ca14           0x34          52   
.text.UART2_ReadCountGe 0x9d01ca48           0x34          52   
.text.CommandReset      0x9d01ca7c           0x34          52   
.text.SYS_TIME_MSToCoun 0x9d01cab0           0x34          52   
.text                   0x9d01cae4           0x34          52  App's exec code 
.text.DRV_ETHMAC_Single 0x9d01cb18           0x30          48   
.text.DRV_ETHPHY_HWConf 0x9d01cb48           0x30          48   
.text.DRV_ETHPHY_Vendor 0x9d01cb78           0x30          48   
.text.DRV_ETHPHY_Client 0x9d01cba8           0x30          48   
.text.Helper_SingleList 0x9d01cbd8           0x30          48   
.text.DRV_MIIM_Read     0x9d01cc08           0x30          48   
.text.DRV_MIIM_Write    0x9d01cc38           0x30          48   
.text.DRV_MIIM_Scan     0x9d01cc68           0x30          48   
.text.TCPIP_OAHASH_Entr 0x9d01cc98           0x30          48   
.text.TCPIP_Helper_Sing 0x9d01ccc8           0x30          48   
.text.TCPIP_STACK_NetAd 0x9d01ccf8           0x30          48   
.text.TCPIP_STACK_Addre 0x9d01cd28           0x30          48   
.text._TCPIPStackModule 0x9d01cd58           0x30          48   
.text._UDPSocketDcpt    0x9d01cd88           0x30          48   
.text.UART2_ReadFreeBuf 0x9d01cdb8           0x30          48   
.text.UART2_WriteFreeBu 0x9d01cde8           0x30          48   
.rodata                 0x9d01ce18           0x30          48  Read-only const 
.text.vListInsertEnd    0x9d01ce48           0x30          48   
.text.free              0x9d01ce78           0x30          48   
.rodata.str1.4          0x9d01cea8           0x60          96   
.text._MacCallocCallbac 0x9d01cf08           0x2c          44   
.text.TCPIP_ICMP_Cleanu 0x9d01cf34           0x2c          44   
.rodata.str1.4          0x9d01cf60           0x2c          44   
.text.TCPIP_STACK_NetAd 0x9d01cf8c           0x2c          44   
.text._TCPIPStackSignal 0x9d01cfb8           0x2c          44   
.text.TCPIP_Notificatio 0x9d01cfe4           0x2c          44   
.text.CORETIMER_Initial 0x9d01d010           0x2c          44   
.text.Console_UART_Init 0x9d01d03c           0x2c          44   
.text.SYS_INT_SourceRes 0x9d01d068           0x2c          44   
.text.SYS_TMR_CallbackP 0x9d01d094           0x2c          44   
.text._stub_sbd_memlayo 0x9d01d0c0           0x2c          44   
.rodata.str1.4          0x9d01d0ec           0x28          40   
.text.DRV_MIIM_ClientSt 0x9d01d114           0x28          40   
.text._DHCPOptionWriteE 0x9d01d13c           0x28          40   
.text.TCPIP_OAHASH_Entr 0x9d01d164           0x28          40   
.text.TCPIP_STACK_NetAd 0x9d01d18c           0x28          40   
.text.TCPIP_STACK_NetMa 0x9d01d1b4           0x28          40   
.text.TCPIP_STACK_Netwo 0x9d01d1dc           0x28          40   
.text.TCPIP_STACK_NetUp 0x9d01d204           0x28          40   
.text.TCPIP_SNTP_Event  0x9d01d22c           0x28          40   
.text.EVIC_SourceEnable 0x9d01d254           0x28          40   
.text.EVIC_SourceDisabl 0x9d01d27c           0x28          40   
.text.EVIC_SourceStatus 0x9d01d2a4           0x28          40   
.text.EVIC_INT_Restore  0x9d01d2cc           0x28          40   
.text.NVM_WriteUnlockSe 0x9d01d2f4           0x28          40   
.text.GetCommandCharact 0x9d01d31c           0x28          40   
.text.retTimeSNTP       0x9d01d344           0x28          40   
.text.toupper           0x9d01d36c           0x28          40   
.text.strchr            0x9d01d394           0x28          40   
.text.DRV_ETHMAC_PIC32M 0x9d01d3bc           0x24          36   
.text._TCPIP_HEAP_FreeS 0x9d01d3e0           0x24          36   
.rodata                 0x9d01d404           0x24          36  Read-only const 
.text.NVM_Initialize    0x9d01d428           0x24          36   
.text.SYS_DEBUG_Initial 0x9d01d44c           0x24          36   
.text.vApplicationStack 0x9d01d470           0x24          36   
.text._snprintf_cdnopsu 0x9d01d494           0x24          36   
.text.DRV_ETHMAC_PIC32M 0x9d01d4b8           0x20          32   
.rodata.str1.4          0x9d01d4d8           0x20          32   
.text.Ipv4DeRegisterCal 0x9d01d4f8           0x20          32   
.text.TCPIP_IPV4_Packet 0x9d01d518           0x20          32   
.text.TCPIP_HEAP_Malloc 0x9d01d538           0x20          32   
.text.TCPIP_HEAP_Calloc 0x9d01d558           0x20          32   
.text.TCPIP_HEAP_FreeOu 0x9d01d578           0x20          32   
.rodata                 0x9d01d598           0x20          32  Read-only const 
.text.TCPIP_STACK_Statu 0x9d01d5b8           0x20          32   
.rodata.str1.4          0x9d01d5d8           0x20          32   
.text.EVIC_SourceIsEnab 0x9d01d5f8           0x20          32   
.text.EVIC_INT_Disable  0x9d01d618           0x20          32   
.text.sy_time_h2_adapte 0x9d01d638           0x20          32   
.text._DRV_ETHMAC_GetMC 0x9d01d658           0x1c          28   
.text._DRV_ETHMAC_GetSC 0x9d01d674           0x1c          28   
.text._DRV_ETHMAC_GetAl 0x9d01d690           0x1c          28   
.text._DRV_ETHMAC_GetFr 0x9d01d6ac           0x1c          28   
.text._DRV_ETHMAC_GetFr 0x9d01d6c8           0x1c          28   
.text._DRV_ETHMAC_GetFr 0x9d01d6e4           0x1c          28   
.text._DRV_ETHMAC_GetFr 0x9d01d700           0x1c          28   
.text._DRV_ETHMAC_GetFr 0x9d01d71c           0x1c          28   
.text.ETHERNET_Interrup 0x9d01d738           0x1c          28   
.text.DRV_ETH_NonBackTo 0x9d01d754           0x1c          28   
.text.DRV_ETHPHY_Deinit 0x9d01d770           0x1c          28   
.text.DRV_ETHPHY_Vendor 0x9d01d78c           0x1c          28   
.text._DRV_ETHPHY_NegRe 0x9d01d7a8           0x1c          28   
.text.TCPIP_ARP_HashKey 0x9d01d7c4           0x1c          28   
.text._TCPIP_HEAP_Size  0x9d01d7e0           0x1c          28   
.text._TCPIP_HEAP_HighW 0x9d01d7fc           0x1c          28   
.text._TCPIP_HEAP_LastE 0x9d01d818           0x1c          28   
.text.TCPIP_Helper_Chec 0x9d01d834           0x1c          28   
.text.TCPIP_STACK_Gatew 0x9d01d850           0x1c          28   
.text.TCPIP_Notificatio 0x9d01d86c           0x1c          28   
.text.TCPIP_UDP_ClientO 0x9d01d888           0x1c          28   
.text.TCPIP_UDP_TxPutIs 0x9d01d8a4           0x1c          28   
.text.CORETIMER_Compare 0x9d01d8c0           0x1c          28   
.text.UART2_WriteCountG 0x9d01d8dc           0x1c          28   
.text.IsCommandReady    0x9d01d8f8           0x1c          28   
.text.Console_UART_Stat 0x9d01d914           0x1c          28   
.text.SYS_INT_Disable   0x9d01d930           0x1c          28   
.text.SYS_INT_Restore   0x9d01d94c           0x1c          28   
.text.srand             0x9d01d968           0x1c          28   
.MIPS.abiflags          0x9d01d988           0x18          24   
.text.DRV_ETH_BackToBac 0x9d01d9a0           0x18          24   
.text.DRV_ETH_NonBackTo 0x9d01d9b8           0x18          24   
.text.DRV_ETHPHY_Status 0x9d01d9d0           0x18          24   
.text.DRV_ETHPHY_Client 0x9d01d9e8           0x18          24   
.text.DRV_ETHPHY_Client 0x9d01da00           0x18          24   
.text.TCPIP_STACK_NetIx 0x9d01da18           0x18          24   
.text.CORETIMER_Counter 0x9d01da30           0x18          24   
.text._general_exceptio 0x9d01da48           0x18          24   
.text._bootstrap_except 0x9d01da60           0x18          24   
.text._cache_err_except 0x9d01da78           0x18          24   
.text._simple_tlb_refil 0x9d01da90           0x18          24   
.text.APP_Initialize    0x9d01daa8           0x18          24   
.rodata.str1.4          0x9d01dac0           0x18          24   
.text                   0x9d01dad8           0x18          24  App's exec code 
.text.DRV_ETH_TxPacketD 0x9d01daf0           0x14          20   
.text.DRV_ETH_RxPacketD 0x9d01db04           0x14          20   
.rodata                 0x9d01db18           0x14          20  Read-only const 
.text.DRV_ETH_RxBufferC 0x9d01db2c           0x10          16   
.text.DRV_ETH_MIIResetE 0x9d01db3c           0x10          16   
.text.DRV_ETH_MIIResetD 0x9d01db4c           0x10          16   
.text.DRV_ETH_Disable   0x9d01db5c           0x10          16   
.text.DRV_ETH_Enable    0x9d01db6c           0x10          16   
.text.DRV_ETH_TxRTSDisa 0x9d01db7c           0x10          16   
.text.DRV_ETH_TxRTSEnab 0x9d01db8c           0x10          16   
.text.DRV_ETH_RxDisable 0x9d01db9c           0x10          16   
.text.DRV_ETH_RxEnable  0x9d01dbac           0x10          16   
.text.DRV_ETH_Collision 0x9d01dbbc           0x10          16   
.text.DRV_ETH_ReTxMaxSe 0x9d01dbcc           0x10          16   
.text.DRV_ETH_RMIIReset 0x9d01dbdc           0x10          16   
.text.DRV_ETH_RMIIReset 0x9d01dbec           0x10          16   
.text.DRV_ETH_RMIISpeed 0x9d01dbfc           0x10          16   
.text.DRV_ETH_RxFilters 0x9d01dc0c           0x10          16   
.text.DRV_ETH_RxFilters 0x9d01dc1c           0x10          16   
.text.DRV_ETH_PauseTime 0x9d01dc2c           0x10          16   
.text.DRV_ETH_TxPauseEn 0x9d01dc3c           0x10          16   
.text.DRV_ETH_RxPauseEn 0x9d01dc4c           0x10          16   
.text.DRV_ETH_AutoFlowC 0x9d01dc5c           0x10          16   
.text.DRV_ETH_RxFilters 0x9d01dc6c           0x10          16   
.text.DRV_ETH_MIIMNoPre 0x9d01dc7c           0x10          16   
.text.DRV_ETH_MIIMNoPre 0x9d01dc8c           0x10          16   
.text.DRV_ETH_MIIMScanI 0x9d01dc9c           0x10          16   
.text.DRV_ETH_MIIMScanI 0x9d01dcac           0x10          16   
.text.DRV_ETH_PHYAddres 0x9d01dcbc           0x10          16   
.text.DRV_ETH_RegisterA 0x9d01dccc           0x10          16   
.text.DRV_ETH_ClearData 0x9d01dcdc           0x10          16   
.text.DRV_ETH_MIIMScanM 0x9d01dcec           0x10          16   
.text.DRV_ETH_MIIMScanM 0x9d01dcfc           0x10          16   
.text.DRV_ETH_MIIMWrite 0x9d01dd0c           0x10          16   
.text.DRV_ETH_MIIMReset 0x9d01dd1c           0x10          16   
.text.DRV_ETH_MIIMReset 0x9d01dd2c           0x10          16   
.text.DRV_ETH_MIIMClock 0x9d01dd3c           0x10          16   
.text.TCPIP_ARP_HashKey 0x9d01dd4c           0x10          16   
.text.TCPIP_Helper_Sing 0x9d01dd5c           0x10          16   
.text.CORETIMER_Callbac 0x9d01dd6c           0x10          16   
.text.DRV_ETHMAC_PIC32M 0x9d01dd7c            0xc          12   
.text.DRV_ETH_EthernetI 0x9d01dd88            0xc          12   
.text.DRV_ETH_TransmitI 0x9d01dd94            0xc          12   
.text.DRV_ETH_ReceiveIs 0x9d01dda0            0xc          12   
.text.DRV_ETH_EventsClr 0x9d01ddac            0xc          12   
.text.DRV_ETH_EventsEna 0x9d01ddb8            0xc          12   
.text.DRV_ETH_EventsEna 0x9d01ddc4            0xc          12   
.text.DRV_ETH_EventsCle 0x9d01ddd0            0xc          12   
.text.DRV_ETH_IsEnabled 0x9d01dddc            0xc          12   
.text.DRV_ETH_MIIMIsBus 0x9d01dde8            0xc          12   
.text.DRV_ETH_DataNotVa 0x9d01ddf4            0xc          12   
.text.DRV_EXTPHY_SMIClo 0x9d01de00            0xc          12   
.text.TCPIP_STACK_Numbe 0x9d01de0c            0xc          12   
.text.TCPIP_STACK_NetBI 0x9d01de18            0xc          12   
.text.CORETIMER_Frequen 0x9d01de24            0xc          12   
.text.SYS_TIME_Frequenc 0x9d01de30            0xc          12   
.text.getTimeSNTP       0x9d01de3c            0xc          12   
.text.BSP_Initialize    0x9d01de48            0x8           8   
.text.DRV_ETHMAC_PIC32M 0x9d01de50            0x8           8   
.text.DRV_ETHMAC_PIC32M 0x9d01de58            0x8           8   
.text.DRV_ETH_MaxFrameL 0x9d01de60            0x8           8   
.text.DRV_ETH_RxPacketC 0x9d01de68            0x8           8   
.text.DRV_ETH_TxPacketD 0x9d01de70            0x8           8   
.text.DRV_ETH_RxPacketD 0x9d01de78            0x8           8   
.text.DRV_ETH_RxFullWma 0x9d01de80            0x8           8   
.text.DRV_ETH_RxEmptyWm 0x9d01de88            0x8           8   
.text.DRV_ETH_FramesTxd 0x9d01de90            0x8           8   
.text.DRV_ETH_FramesRxd 0x9d01de98            0x8           8   
.text.DRV_ETH_RxOverflo 0x9d01dea0            0x8           8   
.text.DRV_ETH_FCSErrorC 0x9d01dea8            0x8           8   
.text.DRV_ETH_AlignErro 0x9d01deb0            0x8           8   
.text.DRV_ETH_SingleCol 0x9d01deb8            0x8           8   
.text.DRV_ETH_MultipleC 0x9d01dec0            0x8           8   
.text.DRV_ETH_EventsGet 0x9d01dec8            0x8           8   
.text.DRV_ETH_MIIMReadD 0x9d01ded0            0x8           8   
.text._DRV_ETHPHY_Clien 0x9d01ded8            0x8           8   
.text.DRV_MIIM_Reinitia 0x9d01dee0            0x8           8   
.text._DHCPOptionProces 0x9d01dee8            0x8           8   
.text.TCPIP_DNS_Resolve 0x9d01def0            0x8           8   
.text.TCPIP_DNS_IsResol 0x9d01def8            0x8           8   
.text.TCPIP_PKT_Deiniti 0x9d01df00            0x8           8   
.text.TCPIP_PKT_SegLoad 0x9d01df08            0x8           8   
.text._mon_putc         0x9d01df10            0x8           8   
.text.Console_UART_Flus 0x9d01df18            0x8           8   
.text.Console_UART_Task 0x9d01df20            0x8           8   
.text.SYS_DEBUG_Console 0x9d01df28            0x8           8   
.text.SYS_DEBUG_ErrorLe 0x9d01df30            0x8           8   
.text.registerUTCCallba 0x9d01df38            0x8           8   
.text._on_reset         0x9d01df40            0x8           8   
.text._on_bootstrap     0x9d01df48            0x8           8   
.rodata.cst8            0x9d01df50            0x8           8   
      Total kseg0_program_mem used  :     0x1df54      122708  5.9% of 0x200000

kseg0 Boot-Memory Usage
section                    address  length [bytes]      (dec)  Description
-------                 ----------  -------------------------  -----------
         Total kseg0_boot_mem used  :           0           0  

kseg1 Boot-Memory Usage
section                    address  length [bytes]      (dec)  Description
-------                 ----------  -------------------------  -----------
.reset                  0xbfc00000          0x1c4         452  Reset handler 
.bev_excpt              0xbfc00380           0x10          16  BEV-Exception 
         Total kseg1_boot_mem used  :       0x1d4         468  40.6% of 0x480
        --------------------------------------------------------------------------
         Total Program Memory used  :     0x1e128      123176  5.9% of 0x200480
        --------------------------------------------------------------------------


kseg0 Data-Memory Usage
section                    address  length [bytes]      (dec)  Description
-------                 ----------  -------------------------  -----------
.sdata                  0x80000000           0x40          64  Small init data 
.sbss                   0x80000040          0x15c         348  Small uninit data 
.bss                    0x8000019c            0x4           4  Uninitialized data 
.bss                    0x800001a0          0xcc4        3268  Uninitialized data 
.bss                    0x80000e64          0x7d4        2004  Uninitialized data 
.data                   0x80001640          0x140         320  Initialized data 
.bss                    0x80001780          0x1c0         448  Uninitialized data 
.bss                    0x80001940          0x160         352  Uninitialized data 
.bss                    0x80001aa0           0x74         116  Uninitialized data 
.bss.errno              0x80001b14            0x4           4   
.bss                    0x80001b18           0x4f          79  Uninitialized data 
.bss                    0x80001b68           0x94         148  Uninitialized data 
.bss                    0x80001bfc           0x41          65  Uninitialized data 
.bss                    0x80001c40           0x50          80  Uninitialized data 
.bss                    0x80001c90           0x20          32  Uninitialized data 
.data                   0x80001cb0           0x1c          28  Initialized data 
.bss                    0x80001ccc           0x24          36  Uninitialized data 
.bss                    0x80001cf0           0x1c          28  Uninitialized data 
         Total kseg0_data_mem used  :      0x1d00        7424  1.4% of 0x80000
        --------------------------------------------------------------------------
            Total Data Memory used  :      0x1d00        7424  1.4% of 0x80000
        --------------------------------------------------------------------------


Dynamic Data-Memory Reservation
section                    address  length [bytes]      (dec)  Description
-------                 ----------  -------------------------  -----------
heap                    0x80001d10         0xfdc0       64960  Reserved for heap 
stack                   0x80011ae8        0x6e508      451848  Reserved for stack 

        --------------------------------------------------------------------------

Discarded input sections

 .text          0x0000000000000000        0x0 y:/program files/microchip/xc32/v3.01/bin/bin/../../lib/gcc/pic32mx/8.3.1/../../../../pic32mx/lib/fpu64\debug-exception-return.o
 .data          0x0000000000000000        0x0 y:/program files/microchip/xc32/v3.01/bin/bin/../../lib/gcc/pic32mx/8.3.1/../../../../pic32mx/lib/fpu64\debug-exception-return.o
 .bss           0x0000000000000000        0x0 y:/program files/microchip/xc32/v3.01/bin/bin/../../lib/gcc/pic32mx/8.3.1/../../../../pic32mx/lib/fpu64\debug-exception-return.o
 .xc_stack_usage.hdr
                0x0000000000000000        0xe y:/program files/microchip/xc32/v3.01/bin/bin/../../lib/gcc/pic32mx/8.3.1/../../../../pic32mx/lib/fpu64\debug-exception-return.o
 .xc_stack_usage
                0x0000000000000000       0x1d y:/program files/microchip/xc32/v3.01/bin/bin/../../lib/gcc/pic32mx/8.3.1/../../../../pic32mx/lib/fpu64\debug-exception-return.o
 .text          0x0000000000000000        0x0 build/default/production/_ext/1434821282/bsp.o
 .data          0x0000000000000000        0x0 build/default/production/_ext/1434821282/bsp.o
 .bss           0x0000000000000000        0x0 build/default/production/_ext/1434821282/bsp.o
 .reginfo       0x0000000000000000       0x18 build/default/production/_ext/1434821282/bsp.o
 .MIPS.abiflags
                0x0000000000000000       0x18 build/default/production/_ext/1434821282/bsp.o
 .text          0x0000000000000000        0x0 build/default/production/_ext/732082881/drv_ethmac.o
 .bss           0x0000000000000000        0x0 build/default/production/_ext/732082881/drv_ethmac.o
 .reginfo       0x0000000000000000       0x18 build/default/production/_ext/732082881/drv_ethmac.o
 .MIPS.abiflags
                0x0000000000000000       0x18 build/default/production/_ext/732082881/drv_ethmac.o
 .text          0x0000000000000000        0x0 build/default/production/_ext/732082881/drv_ethmac_lib.o
 .data          0x0000000000000000        0x0 build/default/production/_ext/732082881/drv_ethmac_lib.o
 .bss           0x0000000000000000        0x0 build/default/production/_ext/732082881/drv_ethmac_lib.o
 .reginfo       0x0000000000000000       0x18 build/default/production/_ext/732082881/drv_ethmac_lib.o
 .MIPS.abiflags
                0x0000000000000000       0x18 build/default/production/_ext/732082881/drv_ethmac_lib.o
 .text.DRV_ETHMAC_LibDescriptorsPoolRemove
                0x0000000000000000       0xb0 build/default/production/_ext/732082881/drv_ethmac_lib.o
 .text.DRV_ETHMAC_LibTxSendBuffer
                0x0000000000000000       0xe0 build/default/production/_ext/732082881/drv_ethmac_lib.o
 .text.DRV_ETHMAC_LibTxGetBufferStatus
                0x0000000000000000       0x80 build/default/production/_ext/732082881/drv_ethmac_lib.o
 .text.DRV_ETHMAC_LibRxGetBuffer
                0x0000000000000000       0x3c build/default/production/_ext/732082881/drv_ethmac_lib.o
 .text          0x0000000000000000        0x0 build/default/production/_ext/732082881/drv_eth_pic32_lib.o
 .data          0x0000000000000000        0x0 build/default/production/_ext/732082881/drv_eth_pic32_lib.o
 .bss           0x0000000000000000        0x0 build/default/production/_ext/732082881/drv_eth_pic32_lib.o
 .reginfo       0x0000000000000000       0x18 build/default/production/_ext/732082881/drv_eth_pic32_lib.o
 .MIPS.abiflags
                0x0000000000000000       0x18 build/default/production/_ext/732082881/drv_eth_pic32_lib.o
 .text          0x0000000000000000        0x0 build/default/production/_ext/444070925/drv_ethphy.o
 .data          0x0000000000000000        0x0 build/default/production/_ext/444070925/drv_ethphy.o
 .reginfo       0x0000000000000000       0x18 build/default/production/_ext/444070925/drv_ethphy.o
 .MIPS.abiflags
                0x0000000000000000       0x18 build/default/production/_ext/444070925/drv_ethphy.o
 .text          0x0000000000000000        0x0 build/default/production/_ext/444070925/drv_extphy_smsc8740.o
 .data          0x0000000000000000        0x0 build/default/production/_ext/444070925/drv_extphy_smsc8740.o
 .bss           0x0000000000000000        0x0 build/default/production/_ext/444070925/drv_extphy_smsc8740.o
 .reginfo       0x0000000000000000       0x18 build/default/production/_ext/444070925/drv_extphy_smsc8740.o
 .MIPS.abiflags
                0x0000000000000000       0x18 build/default/production/_ext/444070925/drv_extphy_smsc8740.o
 .text          0x0000000000000000        0x0 build/default/production/_ext/438849557/drv_miim.o
 .data          0x0000000000000000        0x0 build/default/production/_ext/438849557/drv_miim.o
 .reginfo       0x0000000000000000       0x18 build/default/production/_ext/438849557/drv_miim.o
 .MIPS.abiflags
                0x0000000000000000       0x18 build/default/production/_ext/438849557/drv_miim.o
 .text.Helper_SingleListInitialize
                0x0000000000000000       0x10 build/default/production/_ext/438849557/drv_miim.o
 .text          0x0000000000000000        0x0 build/default/production/_ext/1033058136/helpers.o
 .data          0x0000000000000000        0x0 build/default/production/_ext/1033058136/helpers.o
 .bss           0x0000000000000000        0x0 build/default/production/_ext/1033058136/helpers.o
 .reginfo       0x0000000000000000       0x18 build/default/production/_ext/1033058136/helpers.o
 .MIPS.abiflags
                0x0000000000000000       0x18 build/default/production/_ext/1033058136/helpers.o
 .text.uitoa    0x0000000000000000       0x90 build/default/production/_ext/1033058136/helpers.o
 .text.btohexa_high
                0x0000000000000000       0x18 build/default/production/_ext/1033058136/helpers.o
 .text.btohexa_low
                0x0000000000000000       0x18 build/default/production/_ext/1033058136/helpers.o
 .text.strncpy_m
                0x0000000000000000       0xdc build/default/production/_ext/1033058136/helpers.o
 .text.stricmp  0x0000000000000000       0xa8 build/default/production/_ext/1033058136/helpers.o
 .text          0x0000000000000000        0x0 build/default/production/_ext/1033058136/icmp.o
 .data          0x0000000000000000        0x0 build/default/production/_ext/1033058136/icmp.o
 .bss           0x0000000000000000        0x0 build/default/production/_ext/1033058136/icmp.o
 .reginfo       0x0000000000000000       0x18 build/default/production/_ext/1033058136/icmp.o
 .MIPS.abiflags
                0x0000000000000000       0x18 build/default/production/_ext/1033058136/icmp.o
 .text          0x0000000000000000        0x0 build/default/production/_ext/1033058136/arp.o
 .data          0x0000000000000000        0x0 build/default/production/_ext/1033058136/arp.o
 .reginfo       0x0000000000000000       0x18 build/default/production/_ext/1033058136/arp.o
 .MIPS.abiflags
                0x0000000000000000       0x18 build/default/production/_ext/1033058136/arp.o
 .text.TCPIP_ARP_Resolve
                0x0000000000000000       0x84 build/default/production/_ext/1033058136/arp.o
 .text.TCPIP_ARP_EntrySet
                0x0000000000000000      0x168 build/default/production/_ext/1033058136/arp.o
 .text.TCPIP_ARP_EntryRemoveAll
                0x0000000000000000       0xf8 build/default/production/_ext/1033058136/arp.o
 .text.TCPIP_ARP_EntryQuery
                0x0000000000000000      0x110 build/default/production/_ext/1033058136/arp.o
 .text.TCPIP_ARP_CacheEntriesNoGet
                0x0000000000000000       0xd8 build/default/production/_ext/1033058136/arp.o
 .text.TCPIP_ARP_CacheThresholdSet
                0x0000000000000000       0xa8 build/default/production/_ext/1033058136/arp.o
 .text          0x0000000000000000        0x0 build/default/production/_ext/1033058136/ipv4.o
 .data          0x0000000000000000        0x0 build/default/production/_ext/1033058136/ipv4.o
 .reginfo       0x0000000000000000       0x18 build/default/production/_ext/1033058136/ipv4.o
 .MIPS.abiflags
                0x0000000000000000       0x18 build/default/production/_ext/1033058136/ipv4.o
 .text.TCPIP_IPv4_ArpStatGet
                0x0000000000000000        0x8 build/default/production/_ext/1033058136/ipv4.o
 .text.TCPIP_IPv4_ForwardStatGet
                0x0000000000000000        0x8 build/default/production/_ext/1033058136/ipv4.o
 .text.TCPIP_IPV4_PacketFilterSet
                0x0000000000000000       0x10 build/default/production/_ext/1033058136/ipv4.o
 .text.TCPIP_IPV4_PacketFilterClear
                0x0000000000000000       0x14 build/default/production/_ext/1033058136/ipv4.o
 .text.TCPIP_IPV4_MacPacketTransmit
                0x0000000000000000       0xb0 build/default/production/_ext/1033058136/ipv4.o
 .text.TCPIP_IPV4_PacketAlloc
                0x0000000000000000       0xc8 build/default/production/_ext/1033058136/ipv4.o
 .text.TCPIP_IPV4_PacketOptionFieldSet
                0x0000000000000000       0x44 build/default/production/_ext/1033058136/ipv4.o
 .text.TCPIP_IPV4_PacketOptionListGet
                0x0000000000000000       0x7c build/default/production/_ext/1033058136/ipv4.o
 .text.TCPIP_IPV4_PacketOptionGet
                0x0000000000000000       0xbc build/default/production/_ext/1033058136/ipv4.o
 .text.TCPIP_IPV4_MaxDatagramDataSizeGet
                0x0000000000000000       0x28 build/default/production/_ext/1033058136/ipv4.o
 .text.TCPIP_IPV4_IsFragmentationEnabled
                0x0000000000000000        0x8 build/default/production/_ext/1033058136/ipv4.o
 .text          0x0000000000000000        0x0 build/default/production/_ext/1033058136/tcpip_heap_alloc.o
 .data          0x0000000000000000        0x0 build/default/production/_ext/1033058136/tcpip_heap_alloc.o
 .bss           0x0000000000000000        0x0 build/default/production/_ext/1033058136/tcpip_heap_alloc.o
 .reginfo       0x0000000000000000       0x18 build/default/production/_ext/1033058136/tcpip_heap_alloc.o
 .MIPS.abiflags
                0x0000000000000000       0x18 build/default/production/_ext/1033058136/tcpip_heap_alloc.o
 .text._TCPIP_HEAP_PointerMapCached
                0x0000000000000000       0x1c build/default/production/_ext/1033058136/tcpip_heap_alloc.o
 .text          0x0000000000000000        0x0 build/default/production/_ext/1033058136/tcpip_heap_internal.o
 .data          0x0000000000000000        0x0 build/default/production/_ext/1033058136/tcpip_heap_internal.o
 .bss           0x0000000000000000        0x0 build/default/production/_ext/1033058136/tcpip_heap_internal.o
 .reginfo       0x0000000000000000       0x18 build/default/production/_ext/1033058136/tcpip_heap_internal.o
 .MIPS.abiflags
                0x0000000000000000       0x18 build/default/production/_ext/1033058136/tcpip_heap_internal.o
 .text          0x0000000000000000        0x0 build/default/production/_ext/1033058136/dhcp.o
 .data          0x0000000000000000        0x0 build/default/production/_ext/1033058136/dhcp.o
 .reginfo       0x0000000000000000       0x18 build/default/production/_ext/1033058136/dhcp.o
 .MIPS.abiflags
                0x0000000000000000       0x18 build/default/production/_ext/1033058136/dhcp.o
 .text.TCPIP_DHCP_Disable
                0x0000000000000000       0xbc build/default/production/_ext/1033058136/dhcp.o
 .text.TCPIP_DHCP_Enable
                0x0000000000000000       0xa8 build/default/production/_ext/1033058136/dhcp.o
 .text.TCPIP_DHCP_Renew
                0x0000000000000000       0xa0 build/default/production/_ext/1033058136/dhcp.o
 .text.TCPIP_DHCP_Request
                0x0000000000000000      0x10c build/default/production/_ext/1033058136/dhcp.o
 .text.TCPIP_DHCP_IsEnabled
                0x0000000000000000       0x78 build/default/production/_ext/1033058136/dhcp.o
 .text.TCPIP_DHCP_IsActive
                0x0000000000000000       0x38 build/default/production/_ext/1033058136/dhcp.o
 .text.TCPIP_DHCP_IsBound
                0x0000000000000000       0x78 build/default/production/_ext/1033058136/dhcp.o
 .text.TCPIP_DHCP_IsServerDetected
                0x0000000000000000       0x78 build/default/production/_ext/1033058136/dhcp.o
 .text.TCPIP_DHCP_RequestTimeoutSet
                0x0000000000000000       0xa8 build/default/production/_ext/1033058136/dhcp.o
 .text.TCPIP_DHCP_HandlerRegister
                0x0000000000000000       0x50 build/default/production/_ext/1033058136/dhcp.o
 .text.TCPIP_DHCP_HandlerDeRegister
                0x0000000000000000       0x3c build/default/production/_ext/1033058136/dhcp.o
 .text.TCPIP_DHCP_HostNameCallbackRegister
                0x0000000000000000       0xa0 build/default/production/_ext/1033058136/dhcp.o
 .text          0x0000000000000000        0x0 build/default/production/_ext/1033058136/dns.o
 .data          0x0000000000000000        0x0 build/default/production/_ext/1033058136/dns.o
 .bss           0x0000000000000000        0x0 build/default/production/_ext/1033058136/dns.o
 .reginfo       0x0000000000000000       0x18 build/default/production/_ext/1033058136/dns.o
 .MIPS.abiflags
                0x0000000000000000       0x18 build/default/production/_ext/1033058136/dns.o
 .text.TCPIP_DNS_IsEnabled
                0x0000000000000000        0x8 build/default/production/_ext/1033058136/dns.o
 .text.TCPIP_DNS_Enable
                0x0000000000000000        0x8 build/default/production/_ext/1033058136/dns.o
 .text.TCPIP_DNS_Disable
                0x0000000000000000        0x8 build/default/production/_ext/1033058136/dns.o
 .text.TCPIP_DNS_IsNameResolved
                0x0000000000000000        0x8 build/default/production/_ext/1033058136/dns.o
 .text.TCPIP_DNS_RemoveEntry
                0x0000000000000000        0x8 build/default/production/_ext/1033058136/dns.o
 .text.TCPIP_DNS_RemoveAll
                0x0000000000000000        0x8 build/default/production/_ext/1033058136/dns.o
 .text.TCPIP_DNS_ClientInfoGet
                0x0000000000000000        0x8 build/default/production/_ext/1033058136/dns.o
 .text.TCPIP_DNS_EntryQuery
                0x0000000000000000        0x8 build/default/production/_ext/1033058136/dns.o
 .text          0x0000000000000000        0x0 build/default/production/_ext/1033058136/hash_fnv.o
 .data          0x0000000000000000        0x0 build/default/production/_ext/1033058136/hash_fnv.o
 .bss           0x0000000000000000        0x0 build/default/production/_ext/1033058136/hash_fnv.o
 .reginfo       0x0000000000000000       0x18 build/default/production/_ext/1033058136/hash_fnv.o
 .MIPS.abiflags
                0x0000000000000000       0x18 build/default/production/_ext/1033058136/hash_fnv.o
 .text.fnv_32a_hash
                0x0000000000000000       0x5c build/default/production/_ext/1033058136/hash_fnv.o
 .text          0x0000000000000000        0x0 build/default/production/_ext/1033058136/oahash.o
 .data          0x0000000000000000        0x0 build/default/production/_ext/1033058136/oahash.o
 .bss           0x0000000000000000        0x0 build/default/production/_ext/1033058136/oahash.o
 .reginfo       0x0000000000000000       0x18 build/default/production/_ext/1033058136/oahash.o
 .MIPS.abiflags
                0x0000000000000000       0x18 build/default/production/_ext/1033058136/oahash.o
 .text          0x0000000000000000        0x0 build/default/production/_ext/1033058136/tcpip_helpers.o
 .data          0x0000000000000000       0x28 build/default/production/_ext/1033058136/tcpip_helpers.o
 .bss           0x0000000000000000        0x0 build/default/production/_ext/1033058136/tcpip_helpers.o
 .reginfo       0x0000000000000000       0x18 build/default/production/_ext/1033058136/tcpip_helpers.o
 .MIPS.abiflags
                0x0000000000000000       0x18 build/default/production/_ext/1033058136/tcpip_helpers.o
 .text._TCPIP_Helper_SecurePortEntry
                0x0000000000000000       0x5c build/default/production/_ext/1033058136/tcpip_helpers.o
 .text.TCPIP_Helper_StringToIPv6Address
                0x0000000000000000      0x6ec build/default/production/_ext/1033058136/tcpip_helpers.o
 .text.TCPIP_Helper_IPv6AddressToString
                0x0000000000000000      0x164 build/default/production/_ext/1033058136/tcpip_helpers.o
 .text.TCPIP_Helper_IsPrivateAddress
                0x0000000000000000       0x3c build/default/production/_ext/1033058136/tcpip_helpers.o
 .text.TCPIP_Helper_MACAddressToString
                0x0000000000000000       0x88 build/default/production/_ext/1033058136/tcpip_helpers.o
 .text.TCPIP_Helper_PowerModeToString
                0x0000000000000000       0x28 build/default/production/_ext/1033058136/tcpip_helpers.o
 .text.TCPIP_Helper_Base64Decode
                0x0000000000000000      0x1dc build/default/production/_ext/1033058136/tcpip_helpers.o
 .text.TCPIP_Helper_Base64Encode
                0x0000000000000000      0x1e0 build/default/production/_ext/1033058136/tcpip_helpers.o
 .text.TCPIP_Helper_PacketCopy
                0x0000000000000000      0x128 build/default/production/_ext/1033058136/tcpip_helpers.o
 .text.TCPIP_Helper_FindCommonPrefix
                0x0000000000000000       0x88 build/default/production/_ext/1033058136/tcpip_helpers.o
 .text.TCPIP_Helper_SingleListHeadAdd
                0x0000000000000000       0x28 build/default/production/_ext/1033058136/tcpip_helpers.o
 .text.TCPIP_Helper_SingleListMidAdd
                0x0000000000000000       0x1c build/default/production/_ext/1033058136/tcpip_helpers.o
 .text.TCPIP_Helper_SingleListNextRemove
                0x0000000000000000       0x5c build/default/production/_ext/1033058136/tcpip_helpers.o
 .text.TCPIP_Helper_SingleListFind
                0x0000000000000000       0x48 build/default/production/_ext/1033058136/tcpip_helpers.o
 .text.TCPIP_Helper_ProtectedSingleListHeadAdd
                0x0000000000000000       0x94 build/default/production/_ext/1033058136/tcpip_helpers.o
 .text.TCPIP_Helper_ProtectedSingleListMidAdd
                0x0000000000000000       0xa8 build/default/production/_ext/1033058136/tcpip_helpers.o
 .text.TCPIP_Helper_ProtectedSingleListNextRemove
                0x0000000000000000       0x98 build/default/production/_ext/1033058136/tcpip_helpers.o
 .text.TCPIP_Helper_ProtectedSingleListAppend
                0x0000000000000000       0x94 build/default/production/_ext/1033058136/tcpip_helpers.o
 .text.TCPIP_Helper_DoubleListInitialize
                0x0000000000000000       0x10 build/default/production/_ext/1033058136/tcpip_helpers.o
 .text.TCPIP_Helper_DoubleListHeadAdd
                0x0000000000000000       0x40 build/default/production/_ext/1033058136/tcpip_helpers.o
 .text.TCPIP_Helper_DoubleListTailAdd
                0x0000000000000000       0x40 build/default/production/_ext/1033058136/tcpip_helpers.o
 .text.TCPIP_Helper_DoubleListMidAdd
                0x0000000000000000       0x28 build/default/production/_ext/1033058136/tcpip_helpers.o
 .text.TCPIP_Helper_DoubleListHeadRemove
                0x0000000000000000       0x40 build/default/production/_ext/1033058136/tcpip_helpers.o
 .text.TCPIP_Helper_DoubleListTailRemove
                0x0000000000000000       0x40 build/default/production/_ext/1033058136/tcpip_helpers.o
 .text.TCPIP_Helper_DoubleListMidRemove
                0x0000000000000000       0x24 build/default/production/_ext/1033058136/tcpip_helpers.o
 .text.TCPIP_Helper_DoubleListNodeRemove
                0x0000000000000000       0x54 build/default/production/_ext/1033058136/tcpip_helpers.o
 .text.TCPIP_Helper_DoubleListFind
                0x0000000000000000       0x48 build/default/production/_ext/1033058136/tcpip_helpers.o
 .text.TCPIP_Helper_ProtectedDoubleListInitialize
                0x0000000000000000       0x50 build/default/production/_ext/1033058136/tcpip_helpers.o
 .text.TCPIP_Helper_ProtectedDoubleListDeinitialize
                0x0000000000000000       0x80 build/default/production/_ext/1033058136/tcpip_helpers.o
 .text.TCPIP_Helper_ProtectedDoubleListHeadAdd
                0x0000000000000000       0x94 build/default/production/_ext/1033058136/tcpip_helpers.o
 .text.TCPIP_Helper_ProtectedDoubleListTailAdd
                0x0000000000000000       0x94 build/default/production/_ext/1033058136/tcpip_helpers.o
 .text.TCPIP_Helper_ProtectedDoubleListMidAdd
                0x0000000000000000       0xa4 build/default/production/_ext/1033058136/tcpip_helpers.o
 .text.TCPIP_Helper_ProtectedDoubleListHeadRemove
                0x0000000000000000       0x90 build/default/production/_ext/1033058136/tcpip_helpers.o
 .text.TCPIP_Helper_ProtectedDoubleListTailRemove
                0x0000000000000000       0x90 build/default/production/_ext/1033058136/tcpip_helpers.o
 .text.TCPIP_Helper_ProtectedDoubleListMidRemove
                0x0000000000000000       0x94 build/default/production/_ext/1033058136/tcpip_helpers.o
 .text.TCPIP_Helper_ProtectedDoubleListNodeRemove
                0x0000000000000000       0x94 build/default/production/_ext/1033058136/tcpip_helpers.o
 .text.TCPIP_Helper_ProtectedDoubleListRemoveAll
                0x0000000000000000       0x98 build/default/production/_ext/1033058136/tcpip_helpers.o
 .text.TCPIP_Helper_ProtectedDoubleListLock
                0x0000000000000000       0x60 build/default/production/_ext/1033058136/tcpip_helpers.o
 .text.TCPIP_Helper_ProtectedDoubleListUnlock
                0x0000000000000000       0x4c build/default/production/_ext/1033058136/tcpip_helpers.o
 .text.TCPIP_Helper_TCPSecurePortGet
                0x0000000000000000       0x30 build/default/production/_ext/1033058136/tcpip_helpers.o
 .text.TCPIP_Helper_UDPSecurePortGet
                0x0000000000000000       0x30 build/default/production/_ext/1033058136/tcpip_helpers.o
 .text.TCPIP_Helper_SecurePortGetByIndex
                0x0000000000000000       0x54 build/default/production/_ext/1033058136/tcpip_helpers.o
 .text.TCPIP_Helper_SecurePortSet
                0x0000000000000000       0xbc build/default/production/_ext/1033058136/tcpip_helpers.o
 .data          0x0000000000000000        0x0 build/default/production/_ext/1033058136/tcpip_helper_c32.o
 .bss           0x0000000000000000        0x0 build/default/production/_ext/1033058136/tcpip_helper_c32.o
 .reginfo       0x0000000000000000       0x18 build/default/production/_ext/1033058136/tcpip_helper_c32.o
 .MIPS.abiflags
                0x0000000000000000       0x18 build/default/production/_ext/1033058136/tcpip_helper_c32.o
 .text          0x0000000000000000        0x0 build/default/production/_ext/1033058136/tcpip_manager.o
 .data          0x0000000000000000        0x0 build/default/production/_ext/1033058136/tcpip_manager.o
 .reginfo       0x0000000000000000       0x18 build/default/production/_ext/1033058136/tcpip_manager.o
 .MIPS.abiflags
                0x0000000000000000       0x18 build/default/production/_ext/1033058136/tcpip_manager.o
 .text._NetConfigStringToBuffer
                0x0000000000000000       0xc4 build/default/production/_ext/1033058136/tcpip_manager.o
 .text.TCPIP_STACK_InitializeDataGet
                0x0000000000000000       0x60 build/default/production/_ext/1033058136/tcpip_manager.o
 .text.TCPIP_STACK_NetDefaultGet
                0x0000000000000000        0x8 build/default/production/_ext/1033058136/tcpip_manager.o
 .text.TCPIP_STACK_NetDefaultSet
                0x0000000000000000       0x28 build/default/production/_ext/1033058136/tcpip_manager.o
 .text.TCPIP_STACK_NetMulticastGet
                0x0000000000000000        0x8 build/default/production/_ext/1033058136/tcpip_manager.o
 .text.TCPIP_STACK_NetMulticastSet
                0x0000000000000000        0x8 build/default/production/_ext/1033058136/tcpip_manager.o
 .text.TCPIP_STACK_MacToNet
                0x0000000000000000       0x4c build/default/production/_ext/1033058136/tcpip_manager.o
 .text.TCPIP_STACK_MacToNetIndex
                0x0000000000000000       0x4c build/default/production/_ext/1033058136/tcpip_manager.o
 .text.TCPIP_STACK_NetIndexGet
                0x0000000000000000       0x18 build/default/production/_ext/1033058136/tcpip_manager.o
 .text.TCPIP_STACK_NetNameGet
                0x0000000000000000       0x24 build/default/production/_ext/1033058136/tcpip_manager.o
 .text.TCPIP_STACK_NetAliasNameGet
                0x0000000000000000       0x90 build/default/production/_ext/1033058136/tcpip_manager.o
 .text.TCPIP_STACK_MACObjectGet
                0x0000000000000000       0x18 build/default/production/_ext/1033058136/tcpip_manager.o
 .text.TCPIP_STACK_NetAddressGatewaySet
                0x0000000000000000       0x30 build/default/production/_ext/1033058136/tcpip_manager.o
 .text.TCPIP_STACK_NetAddressGateway
                0x0000000000000000       0x28 build/default/production/_ext/1033058136/tcpip_manager.o
 .text.TCPIP_STACK_NetAddressDnsPrimary
                0x0000000000000000       0x28 build/default/production/_ext/1033058136/tcpip_manager.o
 .text.TCPIP_STACK_NetAddressDnsSecond
                0x0000000000000000       0x28 build/default/production/_ext/1033058136/tcpip_manager.o
 .text.TCPIP_STACK_NetAddressDnsPrimarySet
                0x0000000000000000       0x30 build/default/production/_ext/1033058136/tcpip_manager.o
 .text.TCPIP_STACK_NetAddressDnsSecondSet
                0x0000000000000000       0x30 build/default/production/_ext/1033058136/tcpip_manager.o
 .text.TCPIP_STACK_NetAddressMacSet
                0x0000000000000000       0x48 build/default/production/_ext/1033058136/tcpip_manager.o
 .text.TCPIP_STACK_NetBiosNameSet
                0x0000000000000000       0x8c build/default/production/_ext/1033058136/tcpip_manager.o
 .text.TCPIP_STACK_NetMACIdGet
                0x0000000000000000       0x28 build/default/production/_ext/1033058136/tcpip_manager.o
 .text.TCPIP_STACK_NetMACStatisticsGet
                0x0000000000000000       0x50 build/default/production/_ext/1033058136/tcpip_manager.o
 .text.TCPIP_STACK_NetMACRegisterStatisticsGet
                0x0000000000000000       0x50 build/default/production/_ext/1033058136/tcpip_manager.o
 .text.TCPIP_STACK_ModuleConfigGet
                0x0000000000000000       0x7c build/default/production/_ext/1033058136/tcpip_manager.o
 .text.TCPIP_STACK_NetConfigGet
                0x0000000000000000      0x108 build/default/production/_ext/1033058136/tcpip_manager.o
 .text.TCPIP_STACK_NetConfigSet
                0x0000000000000000      0x2e8 build/default/production/_ext/1033058136/tcpip_manager.o
 .text.TCPIP_STACK_MACIdToString
                0x0000000000000000       0x50 build/default/production/_ext/1033058136/tcpip_manager.o
 .text.TCPIP_STACK_NetIsUp
                0x0000000000000000       0x1c build/default/production/_ext/1033058136/tcpip_manager.o
 .text.TCPIP_STACK_DNSServiceSelect
                0x0000000000000000       0x14 build/default/production/_ext/1033058136/tcpip_manager.o
 .text.TCPIP_STACK_AddressServiceCanStart
                0x0000000000000000       0x1c build/default/production/_ext/1033058136/tcpip_manager.o
 .text.TCPIP_STACK_NetAddressSet
                0x0000000000000000       0xd8 build/default/production/_ext/1033058136/tcpip_manager.o
 .text._TCPIPStackAddressServiceIsRunning
                0x0000000000000000        0xc build/default/production/_ext/1033058136/tcpip_manager.o
 .text.TCPIP_STACK_DNSServiceCanStart
                0x0000000000000000       0x44 build/default/production/_ext/1033058136/tcpip_manager.o
 .text.TCPIP_STACK_EventsPendingGet
                0x0000000000000000       0x4c build/default/production/_ext/1033058136/tcpip_manager.o
 .text.TCPIP_STACK_NetStaticIPv6AddressGet
                0x0000000000000000        0x8 build/default/production/_ext/1033058136/tcpip_manager.o
 .text.TCPIP_STACK_NetDefaultIPv6GatewayGet
                0x0000000000000000        0x8 build/default/production/_ext/1033058136/tcpip_manager.o
 .text.TCPIP_STACK_NetMask
                0x0000000000000000       0x44 build/default/production/_ext/1033058136/tcpip_manager.o
 .text.TCPIP_STACK_PrimaryDNSAddressSet
                0x0000000000000000       0x1c build/default/production/_ext/1033058136/tcpip_manager.o
 .text.TCPIP_STACK_SecondaryDNSAddressSet
                0x0000000000000000       0x1c build/default/production/_ext/1033058136/tcpip_manager.o
 .text.TCPIP_STACK_AddressIsOfNetUp
                0x0000000000000000       0x50 build/default/production/_ext/1033058136/tcpip_manager.o
 .text.TCPIP_STACK_NetIsLinked
                0x0000000000000000       0x44 build/default/production/_ext/1033058136/tcpip_manager.o
 .text._TCPIPStackAnyNetDirected
                0x0000000000000000       0x6c build/default/production/_ext/1033058136/tcpip_manager.o
 .text.TCPIP_STACK_NetMACId
                0x0000000000000000       0x18 build/default/production/_ext/1033058136/tcpip_manager.o
 .text.TCPIP_STACK_NetToMAC
                0x0000000000000000       0x18 build/default/production/_ext/1033058136/tcpip_manager.o
 .text.TCPIP_STACK_NetAddressMac
                0x0000000000000000       0x1c build/default/production/_ext/1033058136/tcpip_manager.o
 .text.TCPIP_STACK_Deinitialize
                0x0000000000000000       0x40 build/default/production/_ext/1033058136/tcpip_manager.o
 .text.TCPIP_STACK_NetUp
                0x0000000000000000      0x164 build/default/production/_ext/1033058136/tcpip_manager.o
 .text.TCPIP_STACK_NetDown
                0x0000000000000000       0x68 build/default/production/_ext/1033058136/tcpip_manager.o
 .text.TCPIP_STACK_VersionGet
                0x0000000000000000        0xc build/default/production/_ext/1033058136/tcpip_manager.o
 .text.TCPIP_STACK_VersionStrGet
                0x0000000000000000        0xc build/default/production/_ext/1033058136/tcpip_manager.o
 .text.TCPIP_MODULE_SignalFunctionRegister
                0x0000000000000000       0x54 build/default/production/_ext/1033058136/tcpip_manager.o
 .text.TCPIP_MODULE_SignalFunctionDeregister
                0x0000000000000000       0x18 build/default/production/_ext/1033058136/tcpip_manager.o
 .text.TCPIP_MODULE_SignalGet
                0x0000000000000000       0x50 build/default/production/_ext/1033058136/tcpip_manager.o
 .text.TCPIP_STACK_HeapHandleGet
                0x0000000000000000       0x20 build/default/production/_ext/1033058136/tcpip_manager.o
 .text.TCPIP_STACK_HEAP_Size
                0x0000000000000000       0x30 build/default/production/_ext/1033058136/tcpip_manager.o
 .text.TCPIP_STACK_HEAP_MaxSize
                0x0000000000000000       0x30 build/default/production/_ext/1033058136/tcpip_manager.o
 .text.TCPIP_STACK_HEAP_FreeSize
                0x0000000000000000       0x30 build/default/production/_ext/1033058136/tcpip_manager.o
 .text.TCPIP_STACK_HEAP_HighWatermark
                0x0000000000000000       0x30 build/default/production/_ext/1033058136/tcpip_manager.o
 .text.TCPIP_STACK_HEAP_LastError
                0x0000000000000000       0x30 build/default/production/_ext/1033058136/tcpip_manager.o
 .text._TCPIPStackHeapConfig
                0x0000000000000000        0xc build/default/production/_ext/1033058136/tcpip_manager.o
 .text.TCPIP_STACK_NetGetType
                0x0000000000000000        0x8 build/default/production/_ext/1033058136/tcpip_manager.o
 .text          0x0000000000000000        0x0 build/default/production/_ext/1033058136/tcpip_notify.o
 .data          0x0000000000000000        0x0 build/default/production/_ext/1033058136/tcpip_notify.o
 .bss           0x0000000000000000        0x0 build/default/production/_ext/1033058136/tcpip_notify.o
 .reginfo       0x0000000000000000       0x18 build/default/production/_ext/1033058136/tcpip_notify.o
 .MIPS.abiflags
                0x0000000000000000       0x18 build/default/production/_ext/1033058136/tcpip_notify.o
 .text          0x0000000000000000        0x0 build/default/production/_ext/1033058136/tcpip_packet.o
 .data          0x0000000000000000        0x0 build/default/production/_ext/1033058136/tcpip_packet.o
 .bss           0x0000000000000000        0x0 build/default/production/_ext/1033058136/tcpip_packet.o
 .reginfo       0x0000000000000000       0x18 build/default/production/_ext/1033058136/tcpip_packet.o
 .MIPS.abiflags
                0x0000000000000000       0x18 build/default/production/_ext/1033058136/tcpip_packet.o
 .text.TCPIP_PKT_SegmentAppend
                0x0000000000000000       0x28 build/default/production/_ext/1033058136/tcpip_packet.o
 .text._TCPIP_PKT_SegmentAlloc
                0x0000000000000000       0xac build/default/production/_ext/1033058136/tcpip_packet.o
 .text._TCPIP_PKT_SegmentFree
                0x0000000000000000       0x3c build/default/production/_ext/1033058136/tcpip_packet.o
 .text          0x0000000000000000        0x0 build/default/production/_ext/1033058136/sntp.o
 .data          0x0000000000000000        0x0 build/default/production/_ext/1033058136/sntp.o
 .reginfo       0x0000000000000000       0x18 build/default/production/_ext/1033058136/sntp.o
 .MIPS.abiflags
                0x0000000000000000       0x18 build/default/production/_ext/1033058136/sntp.o
 .text.TCPIP_SNTP_Disable
                0x0000000000000000       0x6c build/default/production/_ext/1033058136/sntp.o
 .text.TCPIP_SNTP_Enable
                0x0000000000000000       0x14 build/default/production/_ext/1033058136/sntp.o
 .text.TCPIP_SNTP_IsEnabled
                0x0000000000000000        0xc build/default/production/_ext/1033058136/sntp.o
 .text.TCPIP_SNTP_UTCSecondsGet
                0x0000000000000000       0x3c build/default/production/_ext/1033058136/sntp.o
 .text.TCPIP_SNTP_TimeStampGet
                0x0000000000000000       0x78 build/default/production/_ext/1033058136/sntp.o
 .text.TCPIP_SNTP_LastErrorGet
                0x0000000000000000        0xc build/default/production/_ext/1033058136/sntp.o
 .text.TCPIP_SNTP_HandlerRegister
                0x0000000000000000       0x30 build/default/production/_ext/1033058136/sntp.o
 .text.TCPIP_SNTP_HandlerDeRegister
                0x0000000000000000       0x20 build/default/production/_ext/1033058136/sntp.o
 .text          0x0000000000000000        0x0 build/default/production/_ext/1033058136/udp.o
 .data          0x0000000000000000        0x0 build/default/production/_ext/1033058136/udp.o
 .bss           0x0000000000000000        0x0 build/default/production/_ext/1033058136/udp.o
 .reginfo       0x0000000000000000       0x18 build/default/production/_ext/1033058136/udp.o
 .MIPS.abiflags
                0x0000000000000000       0x18 build/default/production/_ext/1033058136/udp.o
 .text.TCPIP_UDP_OpenServerSkt
                0x0000000000000000      0x158 build/default/production/_ext/1033058136/udp.o
 .text.TCPIP_UDP_ServerOpen
                0x0000000000000000       0x1c build/default/production/_ext/1033058136/udp.o
 .text.TCPIP_UDP_TxPointerGet
                0x0000000000000000       0x40 build/default/production/_ext/1033058136/udp.o
 .text.TCPIP_UDP_Put
                0x0000000000000000       0x24 build/default/production/_ext/1033058136/udp.o
 .text.TCPIP_UDP_StringPut
                0x0000000000000000       0x64 build/default/production/_ext/1033058136/udp.o
 .text.TCPIP_UDP_TxCountGet
                0x0000000000000000       0x54 build/default/production/_ext/1033058136/udp.o
 .text.TCPIP_UDP_Get
                0x0000000000000000       0x1c build/default/production/_ext/1033058136/udp.o
 .text.TCPIP_UDP_SocketNetGet
                0x0000000000000000       0x24 build/default/production/_ext/1033058136/udp.o
 .text.TCPIP_UDP_DestinationPortSet
                0x0000000000000000       0x48 build/default/production/_ext/1033058136/udp.o
 .text.TCPIP_UDP_SetSplitPayload
                0x0000000000000000       0xb4 build/default/production/_ext/1033058136/udp.o
 .text.TCPIP_UDP_SignalHandlerDeregister
                0x0000000000000000       0x48 build/default/production/_ext/1033058136/udp.o
 .text.TCPIP_UDP_SocketsNumberGet
                0x0000000000000000        0x8 build/default/production/_ext/1033058136/udp.o
 .text          0x0000000000000000        0x0 build/default/production/_ext/60165520/plib_clk.o
 .data          0x0000000000000000        0x0 build/default/production/_ext/60165520/plib_clk.o
 .bss           0x0000000000000000        0x0 build/default/production/_ext/60165520/plib_clk.o
 .reginfo       0x0000000000000000       0x18 build/default/production/_ext/60165520/plib_clk.o
 .MIPS.abiflags
                0x0000000000000000       0x18 build/default/production/_ext/60165520/plib_clk.o
 .text          0x0000000000000000        0x0 build/default/production/_ext/1249264884/plib_coretimer.o
 .data          0x0000000000000000        0x0 build/default/production/_ext/1249264884/plib_coretimer.o
 .bss           0x0000000000000000        0x0 build/default/production/_ext/1249264884/plib_coretimer.o
 .reginfo       0x0000000000000000       0x18 build/default/production/_ext/1249264884/plib_coretimer.o
 .MIPS.abiflags
                0x0000000000000000       0x18 build/default/production/_ext/1249264884/plib_coretimer.o
 .text.CORETIMER_DelayMs
                0x0000000000000000       0x4c build/default/production/_ext/1249264884/plib_coretimer.o
 .text.CORETIMER_DelayUs
                0x0000000000000000       0x3c build/default/production/_ext/1249264884/plib_coretimer.o
 .text          0x0000000000000000        0x0 build/default/production/_ext/1865200349/plib_evic.o
 .data          0x0000000000000000        0x0 build/default/production/_ext/1865200349/plib_evic.o
 .bss           0x0000000000000000        0x0 build/default/production/_ext/1865200349/plib_evic.o
 .reginfo       0x0000000000000000       0x18 build/default/production/_ext/1865200349/plib_evic.o
 .MIPS.abiflags
                0x0000000000000000       0x18 build/default/production/_ext/1865200349/plib_evic.o
 .text.EVIC_SourceStatusGet
                0x0000000000000000       0x20 build/default/production/_ext/1865200349/plib_evic.o
 .text.EVIC_SourceStatusSet
                0x0000000000000000       0x28 build/default/production/_ext/1865200349/plib_evic.o
 .text.EVIC_INT_Enable
                0x0000000000000000       0x18 build/default/production/_ext/1865200349/plib_evic.o
 .text          0x0000000000000000        0x0 build/default/production/_ext/1865254177/plib_gpio.o
 .data          0x0000000000000000        0x0 build/default/production/_ext/1865254177/plib_gpio.o
 .bss           0x0000000000000000        0x0 build/default/production/_ext/1865254177/plib_gpio.o
 .reginfo       0x0000000000000000       0x18 build/default/production/_ext/1865254177/plib_gpio.o
 .MIPS.abiflags
                0x0000000000000000       0x18 build/default/production/_ext/1865254177/plib_gpio.o
 .text.GPIO_PortRead
                0x0000000000000000       0x18 build/default/production/_ext/1865254177/plib_gpio.o
 .text.GPIO_PortWrite
                0x0000000000000000       0x2c build/default/production/_ext/1865254177/plib_gpio.o
 .text.GPIO_PortLatchRead
                0x0000000000000000       0x18 build/default/production/_ext/1865254177/plib_gpio.o
 .text.GPIO_PortSet
                0x0000000000000000       0x1c build/default/production/_ext/1865254177/plib_gpio.o
 .text.GPIO_PortClear
                0x0000000000000000       0x1c build/default/production/_ext/1865254177/plib_gpio.o
 .text.GPIO_PortToggle
                0x0000000000000000       0x1c build/default/production/_ext/1865254177/plib_gpio.o
 .text.GPIO_PortInputEnable
                0x0000000000000000       0x1c build/default/production/_ext/1865254177/plib_gpio.o
 .text.GPIO_PortOutputEnable
                0x0000000000000000       0x1c build/default/production/_ext/1865254177/plib_gpio.o
 .text          0x0000000000000000        0x0 build/default/production/_ext/60176403/plib_nvm.o
 .data          0x0000000000000000        0x0 build/default/production/_ext/60176403/plib_nvm.o
 .bss           0x0000000000000000        0x0 build/default/production/_ext/60176403/plib_nvm.o
 .reginfo       0x0000000000000000       0x18 build/default/production/_ext/60176403/plib_nvm.o
 .MIPS.abiflags
                0x0000000000000000       0x18 build/default/production/_ext/60176403/plib_nvm.o
 .text.NVM_CallbackRegister
                0x0000000000000000        0xc build/default/production/_ext/60176403/plib_nvm.o
 .text.NVM_Read
                0x0000000000000000       0x2c build/default/production/_ext/60176403/plib_nvm.o
 .text.NVM_WordWrite
                0x0000000000000000       0x30 build/default/production/_ext/60176403/plib_nvm.o
 .text.NVM_QuadWordWrite
                0x0000000000000000       0x58 build/default/production/_ext/60176403/plib_nvm.o
 .text.NVM_RowWrite
                0x0000000000000000       0x34 build/default/production/_ext/60176403/plib_nvm.o
 .text.NVM_PageErase
                0x0000000000000000       0x20 build/default/production/_ext/60176403/plib_nvm.o
 .text.NVM_ErrorGet
                0x0000000000000000       0x10 build/default/production/_ext/60176403/plib_nvm.o
 .text.NVM_IsBusy
                0x0000000000000000       0x10 build/default/production/_ext/60176403/plib_nvm.o
 .text.NVM_ProgramFlashSwapBank
                0x0000000000000000       0x4c build/default/production/_ext/60176403/plib_nvm.o
 .text.NVM_ProgramFlashWriteProtect
                0x0000000000000000       0x48 build/default/production/_ext/60176403/plib_nvm.o
 .text.NVM_ProgramFlashWriteProtectLock
                0x0000000000000000       0x40 build/default/production/_ext/60176403/plib_nvm.o
 .text.NVM_BootFlashWriteProtectEnable
                0x0000000000000000       0x48 build/default/production/_ext/60176403/plib_nvm.o
 .text.NVM_BootFlashWriteProtectDisable
                0x0000000000000000       0x48 build/default/production/_ext/60176403/plib_nvm.o
 .text.NVM_BootFlashWriteProtectLock
                0x0000000000000000       0x48 build/default/production/_ext/60176403/plib_nvm.o
 .text          0x0000000000000000        0x0 build/default/production/_ext/1865585524/plib_rtcc.o
 .data          0x0000000000000000        0x0 build/default/production/_ext/1865585524/plib_rtcc.o
 .bss           0x0000000000000000        0x0 build/default/production/_ext/1865585524/plib_rtcc.o
 .reginfo       0x0000000000000000       0x18 build/default/production/_ext/1865585524/plib_rtcc.o
 .MIPS.abiflags
                0x0000000000000000       0x18 build/default/production/_ext/1865585524/plib_rtcc.o
 .text.RTCC_TimeSet
                0x0000000000000000      0x218 build/default/production/_ext/1865585524/plib_rtcc.o
 .text.RTCC_TimeGet
                0x0000000000000000       0xf0 build/default/production/_ext/1865585524/plib_rtcc.o
 .text.RTCC_AlarmSet
                0x0000000000000000      0x1d4 build/default/production/_ext/1865585524/plib_rtcc.o
 .text          0x0000000000000000        0x0 build/default/production/_ext/1865657120/plib_uart2.o
 .data          0x0000000000000000        0x0 build/default/production/_ext/1865657120/plib_uart2.o
 .reginfo       0x0000000000000000       0x18 build/default/production/_ext/1865657120/plib_uart2.o
 .MIPS.abiflags
                0x0000000000000000       0x18 build/default/production/_ext/1865657120/plib_uart2.o
 .text.UART2_SerialSetup
                0x0000000000000000      0x160 build/default/production/_ext/1865657120/plib_uart2.o
 .text.UART2_ReadBufferSizeGet
                0x0000000000000000       0x10 build/default/production/_ext/1865657120/plib_uart2.o
 .text.UART2_ReadNotificationEnable
                0x0000000000000000       0x18 build/default/production/_ext/1865657120/plib_uart2.o
 .text.UART2_ReadThresholdSet
                0x0000000000000000       0x14 build/default/production/_ext/1865657120/plib_uart2.o
 .text.UART2_ReadCallbackRegister
                0x0000000000000000       0x14 build/default/production/_ext/1865657120/plib_uart2.o
 .text.UART2_WriteBufferSizeGet
                0x0000000000000000       0x10 build/default/production/_ext/1865657120/plib_uart2.o
 .text.UART2_WriteNotificationEnable
                0x0000000000000000       0x18 build/default/production/_ext/1865657120/plib_uart2.o
 .text.UART2_WriteThresholdSet
                0x0000000000000000       0x14 build/default/production/_ext/1865657120/plib_uart2.o
 .text.UART2_WriteCallbackRegister
                0x0000000000000000       0x14 build/default/production/_ext/1865657120/plib_uart2.o
 .text.UART2_ErrorGet
                0x0000000000000000       0x18 build/default/production/_ext/1865657120/plib_uart2.o
 .text.UART2_AutoBaudQuery
                0x0000000000000000       0x10 build/default/production/_ext/1865657120/plib_uart2.o
 .text.UART2_AutoBaudSet
                0x0000000000000000       0x18 build/default/production/_ext/1865657120/plib_uart2.o
 .text          0x0000000000000000        0x0 build/default/production/_ext/163028504/xc32_monitor.o
 .data          0x0000000000000000        0x0 build/default/production/_ext/163028504/xc32_monitor.o
 .bss           0x0000000000000000        0x0 build/default/production/_ext/163028504/xc32_monitor.o
 .reginfo       0x0000000000000000       0x18 build/default/production/_ext/163028504/xc32_monitor.o
 .MIPS.abiflags
                0x0000000000000000       0x18 build/default/production/_ext/163028504/xc32_monitor.o
 .text._mon_getc
                0x0000000000000000        0x8 build/default/production/_ext/163028504/xc32_monitor.o
 .text          0x0000000000000000        0x0 build/default/production/_ext/1376093119/sys_command.o
 .data          0x0000000000000000        0x0 build/default/production/_ext/1376093119/sys_command.o
 .reginfo       0x0000000000000000       0x18 build/default/production/_ext/1376093119/sys_command.o
 .MIPS.abiflags
                0x0000000000000000       0x18 build/default/production/_ext/1376093119/sys_command.o
 .text.SYS_CMD_READY_TO_READ
                0x0000000000000000        0x8 build/default/production/_ext/1376093119/sys_command.o
 .text.SYS_CMD_ADDGRP
                0x0000000000000000       0xf4 build/default/production/_ext/1376093119/sys_command.o
 .text.SYS_CMD_MESSAGE
                0x0000000000000000       0x20 build/default/production/_ext/1376093119/sys_command.o
 .text.SYS_CMD_PRINT
                0x0000000000000000       0xc4 build/default/production/_ext/1376093119/sys_command.o
 .text.SYS_CMDIO_GET_HANDLE
                0x0000000000000000       0x2c build/default/production/_ext/1376093119/sys_command.o
 .text.SYS_CMD_DELETE
                0x0000000000000000       0x98 build/default/production/_ext/1376093119/sys_command.o
 .text          0x0000000000000000        0x0 build/default/production/_ext/1832805299/sys_console_uart.o
 .data          0x0000000000000000        0x0 build/default/production/_ext/1832805299/sys_console_uart.o
 .reginfo       0x0000000000000000       0x18 build/default/production/_ext/1832805299/sys_console_uart.o
 .MIPS.abiflags
                0x0000000000000000       0x18 build/default/production/_ext/1832805299/sys_console_uart.o
 .text          0x0000000000000000        0x0 build/default/production/_ext/1832805299/sys_console.o
 .data          0x0000000000000000        0x0 build/default/production/_ext/1832805299/sys_console.o
 .reginfo       0x0000000000000000       0x18 build/default/production/_ext/1832805299/sys_console.o
 .MIPS.abiflags
                0x0000000000000000       0x18 build/default/production/_ext/1832805299/sys_console.o
 .text.SYS_CONSOLE_HandleGet
                0x0000000000000000        0xc build/default/production/_ext/1832805299/sys_console.o
 .text.SYS_CONSOLE_DeviceGet
                0x0000000000000000       0x30 build/default/production/_ext/1832805299/sys_console.o
 .text.SYS_CONSOLE_Tasks
                0x0000000000000000       0x5c build/default/production/_ext/1832805299/sys_console.o
 .text.SYS_CONSOLE_ReadFreeBufferCountGet
                0x0000000000000000       0x60 build/default/production/_ext/1832805299/sys_console.o
 .text.SYS_CONSOLE_WriteFreeBufferCountGet
                0x0000000000000000       0x60 build/default/production/_ext/1832805299/sys_console.o
 .text.SYS_CONSOLE_WriteCountGet
                0x0000000000000000       0x60 build/default/production/_ext/1832805299/sys_console.o
 .text.SYS_CONSOLE_Flush
                0x0000000000000000       0x60 build/default/production/_ext/1832805299/sys_console.o
 .text          0x0000000000000000        0x0 build/default/production/_ext/944882569/sys_debug.o
 .data          0x0000000000000000        0x0 build/default/production/_ext/944882569/sys_debug.o
 .bss           0x0000000000000000        0x0 build/default/production/_ext/944882569/sys_debug.o
 .reginfo       0x0000000000000000       0x18 build/default/production/_ext/944882569/sys_debug.o
 .MIPS.abiflags
                0x0000000000000000       0x18 build/default/production/_ext/944882569/sys_debug.o
 .text.SYS_DEBUG_Status
                0x0000000000000000        0x8 build/default/production/_ext/944882569/sys_debug.o
 .text.SYS_DEBUG_ErrorLevelSet
                0x0000000000000000        0x8 build/default/production/_ext/944882569/sys_debug.o
 .text.SYS_DEBUG_Redirect
                0x0000000000000000       0x18 build/default/production/_ext/944882569/sys_debug.o
 .text          0x0000000000000000        0x0 build/default/production/_ext/1881668453/sys_int.o
 .data          0x0000000000000000        0x0 build/default/production/_ext/1881668453/sys_int.o
 .bss           0x0000000000000000        0x0 build/default/production/_ext/1881668453/sys_int.o
 .reginfo       0x0000000000000000       0x18 build/default/production/_ext/1881668453/sys_int.o
 .MIPS.abiflags
                0x0000000000000000       0x18 build/default/production/_ext/1881668453/sys_int.o
 .text.SYS_INT_Enable
                0x0000000000000000       0x1c build/default/production/_ext/1881668453/sys_int.o
 .text          0x0000000000000000        0x0 build/default/production/_ext/1000052432/sys_reset.o
 .data          0x0000000000000000        0x0 build/default/production/_ext/1000052432/sys_reset.o
 .bss           0x0000000000000000        0x0 build/default/production/_ext/1000052432/sys_reset.o
 .reginfo       0x0000000000000000       0x18 build/default/production/_ext/1000052432/sys_reset.o
 .MIPS.abiflags
                0x0000000000000000       0x18 build/default/production/_ext/1000052432/sys_reset.o
 .text          0x0000000000000000        0x0 build/default/production/_ext/101884895/sys_time.o
 .data          0x0000000000000000        0x0 build/default/production/_ext/101884895/sys_time.o
 .reginfo       0x0000000000000000       0x18 build/default/production/_ext/101884895/sys_time.o
 .MIPS.abiflags
                0x0000000000000000       0x18 build/default/production/_ext/101884895/sys_time.o
 .text.SYS_TIME_Deinitialize
                0x0000000000000000       0x9c build/default/production/_ext/101884895/sys_time.o
 .text.SYS_TIME_Status
                0x0000000000000000       0x24 build/default/production/_ext/101884895/sys_time.o
 .text.SYS_TIME_CounterGet
                0x0000000000000000       0x1c build/default/production/_ext/101884895/sys_time.o
 .text.SYS_TIME_CounterSet
                0x0000000000000000       0x48 build/default/production/_ext/101884895/sys_time.o
 .text.SYS_TIME_CountToUS
                0x0000000000000000       0x84 build/default/production/_ext/101884895/sys_time.o
 .text.SYS_TIME_CountToMS
                0x0000000000000000       0x64 build/default/production/_ext/101884895/sys_time.o
 .text.SYS_TIME_USToCount
                0x0000000000000000       0x38 build/default/production/_ext/101884895/sys_time.o
 .text.SYS_TIME_TimerCreate
                0x0000000000000000       0x30 build/default/production/_ext/101884895/sys_time.o
 .text.SYS_TIME_TimerReload
                0x0000000000000000      0x11c build/default/production/_ext/101884895/sys_time.o
 .text.SYS_TIME_TimerStop
                0x0000000000000000       0x88 build/default/production/_ext/101884895/sys_time.o
 .text.SYS_TIME_TimerCounterGet
                0x0000000000000000       0xfc build/default/production/_ext/101884895/sys_time.o
 .text.SYS_TIME_TimerPeriodHasExpired
                0x0000000000000000       0x5c build/default/production/_ext/101884895/sys_time.o
 .text.SYS_TIME_DelayUS
                0x0000000000000000       0xa0 build/default/production/_ext/101884895/sys_time.o
 .text.SYS_TIME_DelayMS
                0x0000000000000000       0x9c build/default/production/_ext/101884895/sys_time.o
 .text.SYS_TIME_DelayIsComplete
                0x0000000000000000       0x48 build/default/production/_ext/101884895/sys_time.o
 .text.SYS_TIME_CallbackRegisterUS
                0x0000000000000000       0xb0 build/default/production/_ext/101884895/sys_time.o
 .text          0x0000000000000000        0x0 build/default/production/_ext/753841488/sys_time_h2_adapter.o
 .data          0x0000000000000000        0x0 build/default/production/_ext/753841488/sys_time_h2_adapter.o
 .bss           0x0000000000000000        0x0 build/default/production/_ext/753841488/sys_time_h2_adapter.o
 .reginfo       0x0000000000000000       0x18 build/default/production/_ext/753841488/sys_time_h2_adapter.o
 .MIPS.abiflags
                0x0000000000000000       0x18 build/default/production/_ext/753841488/sys_time_h2_adapter.o
 .text          0x0000000000000000        0x0 build/default/production/_ext/1171490990/tasks.o
 .data          0x0000000000000000        0x0 build/default/production/_ext/1171490990/tasks.o
 .bss           0x0000000000000000        0x0 build/default/production/_ext/1171490990/tasks.o
 .reginfo       0x0000000000000000       0x18 build/default/production/_ext/1171490990/tasks.o
 .MIPS.abiflags
                0x0000000000000000       0x18 build/default/production/_ext/1171490990/tasks.o
 .text          0x0000000000000000        0x0 build/default/production/_ext/1171490990/initialization.o
 .reginfo       0x0000000000000000       0x18 build/default/production/_ext/1171490990/initialization.o
 .MIPS.abiflags
                0x0000000000000000       0x18 build/default/production/_ext/1171490990/initialization.o
 .text          0x0000000000000000        0x0 build/default/production/_ext/1171490990/interrupts.o
 .data          0x0000000000000000        0x0 build/default/production/_ext/1171490990/interrupts.o
 .bss           0x0000000000000000        0x0 build/default/production/_ext/1171490990/interrupts.o
 .reginfo       0x0000000000000000       0x18 build/default/production/_ext/1171490990/interrupts.o
 .MIPS.abiflags
                0x0000000000000000       0x18 build/default/production/_ext/1171490990/interrupts.o
 .text          0x0000000000000000        0x0 build/default/production/_ext/1171490990/exceptions.o
 .data          0x0000000000000000        0x0 build/default/production/_ext/1171490990/exceptions.o
 .bss           0x0000000000000000        0x0 build/default/production/_ext/1171490990/exceptions.o
 .reginfo       0x0000000000000000       0x18 build/default/production/_ext/1171490990/exceptions.o
 .MIPS.abiflags
                0x0000000000000000       0x18 build/default/production/_ext/1171490990/exceptions.o
 .text          0x0000000000000000        0x0 build/default/production/_ext/1171490990/freertos_hooks.o
 .data          0x0000000000000000        0x0 build/default/production/_ext/1171490990/freertos_hooks.o
 .bss           0x0000000000000000        0x0 build/default/production/_ext/1171490990/freertos_hooks.o
 .reginfo       0x0000000000000000       0x18 build/default/production/_ext/1171490990/freertos_hooks.o
 .MIPS.abiflags
                0x0000000000000000       0x18 build/default/production/_ext/1171490990/freertos_hooks.o
 .text.vApplicationMallocFailedHook
                0x0000000000000000       0x24 build/default/production/_ext/1171490990/freertos_hooks.o
 .text.vApplicationIdleHook
                0x0000000000000000        0x8 build/default/production/_ext/1171490990/freertos_hooks.o
 .text.vApplicationTickHook
                0x0000000000000000        0x8 build/default/production/_ext/1171490990/freertos_hooks.o
 .text.vAssertCalled
                0x0000000000000000       0x40 build/default/production/_ext/1171490990/freertos_hooks.o
 .text          0x0000000000000000        0x0 build/default/production/_ext/1665200909/heap_1.o
 .data          0x0000000000000000        0x0 build/default/production/_ext/1665200909/heap_1.o
 .bss           0x0000000000000000     0x6d60 build/default/production/_ext/1665200909/heap_1.o
 .reginfo       0x0000000000000000       0x18 build/default/production/_ext/1665200909/heap_1.o
 .MIPS.abiflags
                0x0000000000000000       0x18 build/default/production/_ext/1665200909/heap_1.o
 .text.pvPortMalloc
                0x0000000000000000       0xb8 build/default/production/_ext/1665200909/heap_1.o
 .text.vPortFree
                0x0000000000000000        0x8 build/default/production/_ext/1665200909/heap_1.o
 .text.vPortInitialiseBlocks
                0x0000000000000000        0x8 build/default/production/_ext/1665200909/heap_1.o
 .text.xPortGetFreeHeapSize
                0x0000000000000000       0x10 build/default/production/_ext/1665200909/heap_1.o
 .text          0x0000000000000000        0x0 build/default/production/_ext/951553246/port.o
 .data          0x0000000000000000        0x0 build/default/production/_ext/951553246/port.o
 .reginfo       0x0000000000000000       0x18 build/default/production/_ext/951553246/port.o
 .MIPS.abiflags
                0x0000000000000000       0x18 build/default/production/_ext/951553246/port.o
 .text.prvTaskExitError
                0x0000000000000000       0x24 build/default/production/_ext/951553246/port.o
 .text.pxPortInitialiseStack
                0x0000000000000000       0x60 build/default/production/_ext/951553246/port.o
 .text.vApplicationSetupTickTimerInterrupt
                0x0000000000000000       0x6c build/default/production/_ext/951553246/port.o
 .text.vPortEndScheduler
                0x0000000000000000        0x8 build/default/production/_ext/951553246/port.o
 .text.xPortStartScheduler
                0x0000000000000000       0x5c build/default/production/_ext/951553246/port.o
 .text.vPortClearInterruptMaskFromISR
                0x0000000000000000       0x1c build/default/production/_ext/951553246/port.o
 .text          0x0000000000000000      0x104 build/default/production/_ext/951553246/port_asm.o
 .data          0x0000000000000000        0x0 build/default/production/_ext/951553246/port_asm.o
 .bss           0x0000000000000000        0x0 build/default/production/_ext/951553246/port_asm.o
 .reginfo       0x0000000000000000       0x18 build/default/production/_ext/951553246/port_asm.o
 .MIPS.abiflags
                0x0000000000000000       0x18 build/default/production/_ext/951553246/port_asm.o
 .text          0x0000000000000000        0x0 build/default/production/_ext/404212886/croutine.o
 .data          0x0000000000000000        0x0 build/default/production/_ext/404212886/croutine.o
 .bss           0x0000000000000000        0x0 build/default/production/_ext/404212886/croutine.o
 .reginfo       0x0000000000000000       0x18 build/default/production/_ext/404212886/croutine.o
 .MIPS.abiflags
                0x0000000000000000       0x18 build/default/production/_ext/404212886/croutine.o
 .text          0x0000000000000000        0x0 build/default/production/_ext/404212886/list.o
 .data          0x0000000000000000        0x0 build/default/production/_ext/404212886/list.o
 .bss           0x0000000000000000        0x0 build/default/production/_ext/404212886/list.o
 .reginfo       0x0000000000000000       0x18 build/default/production/_ext/404212886/list.o
 .MIPS.abiflags
                0x0000000000000000       0x18 build/default/production/_ext/404212886/list.o
 .text.vListInitialise
                0x0000000000000000       0x24 build/default/production/_ext/404212886/list.o
 .text.vListInitialiseItem
                0x0000000000000000        0x8 build/default/production/_ext/404212886/list.o
 .text.vListInsert
                0x0000000000000000       0x58 build/default/production/_ext/404212886/list.o
 .text          0x0000000000000000        0x0 build/default/production/_ext/404212886/queue.o
 .data          0x0000000000000000        0x0 build/default/production/_ext/404212886/queue.o
 .bss           0x0000000000000000        0x0 build/default/production/_ext/404212886/queue.o
 .reginfo       0x0000000000000000       0x18 build/default/production/_ext/404212886/queue.o
 .MIPS.abiflags
                0x0000000000000000       0x18 build/default/production/_ext/404212886/queue.o
 .text.prvIsQueueEmpty
                0x0000000000000000       0x34 build/default/production/_ext/404212886/queue.o
 .text.prvCopyDataToQueue
                0x0000000000000000       0xfc build/default/production/_ext/404212886/queue.o
 .text.prvCopyDataFromQueue
                0x0000000000000000       0x58 build/default/production/_ext/404212886/queue.o
 .text.prvUnlockQueue
                0x0000000000000000      0x104 build/default/production/_ext/404212886/queue.o
 .text.xQueueGenericReset
                0x0000000000000000       0xc8 build/default/production/_ext/404212886/queue.o
 .text.xQueueGenericCreate
                0x0000000000000000       0x6c build/default/production/_ext/404212886/queue.o
 .text.xQueueCreateCountingSemaphore
                0x0000000000000000       0x34 build/default/production/_ext/404212886/queue.o
 .text.xQueueGenericSend
                0x0000000000000000      0x218 build/default/production/_ext/404212886/queue.o
 .text.xQueueCreateMutex
                0x0000000000000000       0x58 build/default/production/_ext/404212886/queue.o
 .text.xQueueGenericSendFromISR
                0x0000000000000000       0xfc build/default/production/_ext/404212886/queue.o
 .text.xQueueGiveFromISR
                0x0000000000000000       0xc0 build/default/production/_ext/404212886/queue.o
 .text.xQueueReceive
                0x0000000000000000      0x1f4 build/default/production/_ext/404212886/queue.o
 .text.xQueueSemaphoreTake
                0x0000000000000000      0x26c build/default/production/_ext/404212886/queue.o
 .text.xQueuePeek
                0x0000000000000000      0x1ec build/default/production/_ext/404212886/queue.o
 .text.xQueueReceiveFromISR
                0x0000000000000000       0xe8 build/default/production/_ext/404212886/queue.o
 .text.xQueuePeekFromISR
                0x0000000000000000       0x78 build/default/production/_ext/404212886/queue.o
 .text.uxQueueMessagesWaiting
                0x0000000000000000       0x34 build/default/production/_ext/404212886/queue.o
 .text.uxQueueSpacesAvailable
                0x0000000000000000       0x40 build/default/production/_ext/404212886/queue.o
 .text.uxQueueMessagesWaitingFromISR
                0x0000000000000000        0xc build/default/production/_ext/404212886/queue.o
 .text.vQueueDelete
                0x0000000000000000       0x1c build/default/production/_ext/404212886/queue.o
 .text.xQueueIsQueueEmptyFromISR
                0x0000000000000000        0xc build/default/production/_ext/404212886/queue.o
 .text.xQueueIsQueueFullFromISR
                0x0000000000000000       0x14 build/default/production/_ext/404212886/queue.o
 .text          0x0000000000000000        0x0 build/default/production/_ext/404212886/FreeRTOS_tasks.o
 .data          0x0000000000000000        0x0 build/default/production/_ext/404212886/FreeRTOS_tasks.o
 .reginfo       0x0000000000000000       0x18 build/default/production/_ext/404212886/FreeRTOS_tasks.o
 .MIPS.abiflags
                0x0000000000000000       0x18 build/default/production/_ext/404212886/FreeRTOS_tasks.o
 .text.prvAddCurrentTaskToDelayedList
                0x0000000000000000       0xe8 build/default/production/_ext/404212886/FreeRTOS_tasks.o
 .text.uxTaskPriorityGetFromISR
                0x0000000000000000       0x48 build/default/production/_ext/404212886/FreeRTOS_tasks.o
 .text.vTaskEndScheduler
                0x0000000000000000       0x34 build/default/production/_ext/404212886/FreeRTOS_tasks.o
 .text.vTaskSuspendAll
                0x0000000000000000       0x14 build/default/production/_ext/404212886/FreeRTOS_tasks.o
 .text.xTaskGetTickCount
                0x0000000000000000        0xc build/default/production/_ext/404212886/FreeRTOS_tasks.o
 .text.xTaskGetTickCountFromISR
                0x0000000000000000        0xc build/default/production/_ext/404212886/FreeRTOS_tasks.o
 .text.uxTaskGetNumberOfTasks
                0x0000000000000000        0xc build/default/production/_ext/404212886/FreeRTOS_tasks.o
 .text.pcTaskGetName
                0x0000000000000000       0x1c build/default/production/_ext/404212886/FreeRTOS_tasks.o
 .text.vTaskPlaceOnEventList
                0x0000000000000000       0x38 build/default/production/_ext/404212886/FreeRTOS_tasks.o
 .text.vTaskPlaceOnUnorderedEventList
                0x0000000000000000       0x48 build/default/production/_ext/404212886/FreeRTOS_tasks.o
 .text.xTaskRemoveFromEventList
                0x0000000000000000       0xbc build/default/production/_ext/404212886/FreeRTOS_tasks.o
 .text.vTaskRemoveFromUnorderedEventList
                0x0000000000000000       0x9c build/default/production/_ext/404212886/FreeRTOS_tasks.o
 .text.vTaskInternalSetTimeOutState
                0x0000000000000000       0x14 build/default/production/_ext/404212886/FreeRTOS_tasks.o
 .text.vTaskMissedYield
                0x0000000000000000       0x10 build/default/production/_ext/404212886/FreeRTOS_tasks.o
 .text.xTaskGetCurrentTaskHandle
                0x0000000000000000        0xc build/default/production/_ext/404212886/FreeRTOS_tasks.o
 .text.xTaskPriorityInherit
                0x0000000000000000      0x12c build/default/production/_ext/404212886/FreeRTOS_tasks.o
 .text.xTaskPriorityDisinherit
                0x0000000000000000      0x108 build/default/production/_ext/404212886/FreeRTOS_tasks.o
 .text.vTaskPriorityDisinheritAfterTimeout
                0x0000000000000000      0x100 build/default/production/_ext/404212886/FreeRTOS_tasks.o
 .text.vTaskEnterCritical
                0x0000000000000000       0x48 build/default/production/_ext/404212886/FreeRTOS_tasks.o
 .text.vTaskExitCritical
                0x0000000000000000       0x60 build/default/production/_ext/404212886/FreeRTOS_tasks.o
 .text.xTaskCreate
                0x0000000000000000      0x2dc build/default/production/_ext/404212886/FreeRTOS_tasks.o
 .rodata.str1.4
                0x0000000000000000        0x8 build/default/production/_ext/404212886/FreeRTOS_tasks.o
 .text.vTaskStartScheduler
                0x0000000000000000       0x80 build/default/production/_ext/404212886/FreeRTOS_tasks.o
 .text.vTaskDelete
                0x0000000000000000      0x134 build/default/production/_ext/404212886/FreeRTOS_tasks.o
 .text.uxTaskPriorityGet
                0x0000000000000000       0x44 build/default/production/_ext/404212886/FreeRTOS_tasks.o
 .text.vTaskPrioritySet
                0x0000000000000000      0x178 build/default/production/_ext/404212886/FreeRTOS_tasks.o
 .text.vTaskSuspend
                0x0000000000000000      0x160 build/default/production/_ext/404212886/FreeRTOS_tasks.o
 .text.vTaskResume
                0x0000000000000000       0xe4 build/default/production/_ext/404212886/FreeRTOS_tasks.o
 .text.prvIdleTask
                0x0000000000000000       0xa8 build/default/production/_ext/404212886/FreeRTOS_tasks.o
 .text.xTaskResumeAll
                0x0000000000000000      0x16c build/default/production/_ext/404212886/FreeRTOS_tasks.o
 .text.vTaskDelayUntil
                0x0000000000000000       0xac build/default/production/_ext/404212886/FreeRTOS_tasks.o
 .text.vTaskDelay
                0x0000000000000000       0x5c build/default/production/_ext/404212886/FreeRTOS_tasks.o
 .text.xTaskCatchUpTicks
                0x0000000000000000       0x38 build/default/production/_ext/404212886/FreeRTOS_tasks.o
 .text.vTaskSetTimeOutState
                0x0000000000000000       0x38 build/default/production/_ext/404212886/FreeRTOS_tasks.o
 .text.xTaskCheckForTimeOut
                0x0000000000000000       0xa4 build/default/production/_ext/404212886/FreeRTOS_tasks.o
 .text.uxTaskResetEventItemValue
                0x0000000000000000       0x24 build/default/production/_ext/404212886/FreeRTOS_tasks.o
 .text.pvTaskIncrementMutexHeldCount
                0x0000000000000000       0x28 build/default/production/_ext/404212886/FreeRTOS_tasks.o
 .text.ulTaskNotifyTake
                0x0000000000000000       0xcc build/default/production/_ext/404212886/FreeRTOS_tasks.o
 .text.xTaskNotifyWait
                0x0000000000000000      0x114 build/default/production/_ext/404212886/FreeRTOS_tasks.o
 .text.xTaskGenericNotify
                0x0000000000000000      0x16c build/default/production/_ext/404212886/FreeRTOS_tasks.o
 .text.xTaskGenericNotifyFromISR
                0x0000000000000000      0x1a0 build/default/production/_ext/404212886/FreeRTOS_tasks.o
 .text.vTaskNotifyGiveFromISR
                0x0000000000000000      0x10c build/default/production/_ext/404212886/FreeRTOS_tasks.o
 .text.xTaskNotifyStateClear
                0x0000000000000000       0x6c build/default/production/_ext/404212886/FreeRTOS_tasks.o
 .text.ulTaskNotifyValueClear
                0x0000000000000000       0x70 build/default/production/_ext/404212886/FreeRTOS_tasks.o
 .text          0x0000000000000000        0x0 build/default/production/_ext/404212886/timers.o
 .data          0x0000000000000000        0x0 build/default/production/_ext/404212886/timers.o
 .bss           0x0000000000000000        0x0 build/default/production/_ext/404212886/timers.o
 .reginfo       0x0000000000000000       0x18 build/default/production/_ext/404212886/timers.o
 .MIPS.abiflags
                0x0000000000000000       0x18 build/default/production/_ext/404212886/timers.o
 .text          0x0000000000000000        0x0 build/default/production/_ext/404212886/event_groups.o
 .data          0x0000000000000000        0x0 build/default/production/_ext/404212886/event_groups.o
 .bss           0x0000000000000000        0x0 build/default/production/_ext/404212886/event_groups.o
 .reginfo       0x0000000000000000       0x18 build/default/production/_ext/404212886/event_groups.o
 .MIPS.abiflags
                0x0000000000000000       0x18 build/default/production/_ext/404212886/event_groups.o
 .text.xEventGroupCreate
                0x0000000000000000       0x3c build/default/production/_ext/404212886/event_groups.o
 .text.xEventGroupWaitBits
                0x0000000000000000      0x150 build/default/production/_ext/404212886/event_groups.o
 .text.xEventGroupClearBits
                0x0000000000000000       0x50 build/default/production/_ext/404212886/event_groups.o
 .text.xEventGroupGetBitsFromISR
                0x0000000000000000       0x34 build/default/production/_ext/404212886/event_groups.o
 .text.xEventGroupSetBits
                0x0000000000000000       0xf8 build/default/production/_ext/404212886/event_groups.o
 .text.xEventGroupSync
                0x0000000000000000      0x124 build/default/production/_ext/404212886/event_groups.o
 .text.vEventGroupDelete
                0x0000000000000000       0x54 build/default/production/_ext/404212886/event_groups.o
 .text.vEventGroupSetBitsCallback
                0x0000000000000000       0x1c build/default/production/_ext/404212886/event_groups.o
 .text.vEventGroupClearBitsCallback
                0x0000000000000000       0x1c build/default/production/_ext/404212886/event_groups.o
 .text          0x0000000000000000        0x0 build/default/production/_ext/404212886/stream_buffer.o
 .data          0x0000000000000000        0x0 build/default/production/_ext/404212886/stream_buffer.o
 .bss           0x0000000000000000        0x0 build/default/production/_ext/404212886/stream_buffer.o
 .reginfo       0x0000000000000000       0x18 build/default/production/_ext/404212886/stream_buffer.o
 .MIPS.abiflags
                0x0000000000000000       0x18 build/default/production/_ext/404212886/stream_buffer.o
 .text.prvBytesInBuffer
                0x0000000000000000       0x28 build/default/production/_ext/404212886/stream_buffer.o
 .text.prvWriteBytesToBuffer
                0x0000000000000000       0xac build/default/production/_ext/404212886/stream_buffer.o
 .text.prvReadBytesFromBuffer
                0x0000000000000000       0xc4 build/default/production/_ext/404212886/stream_buffer.o
 .text.xStreamBufferGenericCreate
                0x0000000000000000       0x8c build/default/production/_ext/404212886/stream_buffer.o
 .text.vStreamBufferDelete
                0x0000000000000000       0x3c build/default/production/_ext/404212886/stream_buffer.o
 .text.xStreamBufferReset
                0x0000000000000000       0x9c build/default/production/_ext/404212886/stream_buffer.o
 .text.xStreamBufferSetTriggerLevel
                0x0000000000000000       0x28 build/default/production/_ext/404212886/stream_buffer.o
 .text.xStreamBufferSpacesAvailable
                0x0000000000000000       0x2c build/default/production/_ext/404212886/stream_buffer.o
 .text.xStreamBufferBytesAvailable
                0x0000000000000000       0x1c build/default/production/_ext/404212886/stream_buffer.o
 .text.xStreamBufferSend
                0x0000000000000000      0x1b0 build/default/production/_ext/404212886/stream_buffer.o
 .text.xStreamBufferSendFromISR
                0x0000000000000000      0x11c build/default/production/_ext/404212886/stream_buffer.o
 .text.xStreamBufferReceive
                0x0000000000000000      0x180 build/default/production/_ext/404212886/stream_buffer.o
 .text.xStreamBufferNextMessageLengthBytes
                0x0000000000000000       0x78 build/default/production/_ext/404212886/stream_buffer.o
 .text.xStreamBufferReceiveFromISR
                0x0000000000000000      0x128 build/default/production/_ext/404212886/stream_buffer.o
 .text.xStreamBufferIsEmpty
                0x0000000000000000       0x14 build/default/production/_ext/404212886/stream_buffer.o
 .text.xStreamBufferIsFull
                0x0000000000000000       0x34 build/default/production/_ext/404212886/stream_buffer.o
 .text.xStreamBufferSendCompletedFromISR
                0x0000000000000000       0x7c build/default/production/_ext/404212886/stream_buffer.o
 .text.xStreamBufferReceiveCompletedFromISR
                0x0000000000000000       0x7c build/default/production/_ext/404212886/stream_buffer.o
 .text          0x0000000000000000        0x0 build/default/production/_ext/1360937237/app.o
 .data          0x0000000000000000        0x0 build/default/production/_ext/1360937237/app.o
 .reginfo       0x0000000000000000       0x18 build/default/production/_ext/1360937237/app.o
 .MIPS.abiflags
                0x0000000000000000       0x18 build/default/production/_ext/1360937237/app.o
 .text          0x0000000000000000        0x0 build/default/production/_ext/1360937237/main.o
 .data          0x0000000000000000        0x0 build/default/production/_ext/1360937237/main.o
 .bss           0x0000000000000000        0x0 build/default/production/_ext/1360937237/main.o
 .reginfo       0x0000000000000000       0x18 build/default/production/_ext/1360937237/main.o
 .MIPS.abiflags
                0x0000000000000000       0x18 build/default/production/_ext/1360937237/main.o
 .text          0x0000000000000000        0x0 C:\Users\DANIEL~1.RAI\AppData\Local\Temp\ccdMNJnB.o
 .data          0x0000000000000000        0x0 C:\Users\DANIEL~1.RAI\AppData\Local\Temp\ccdMNJnB.o
 .bss           0x0000000000000000        0x0 C:\Users\DANIEL~1.RAI\AppData\Local\Temp\ccdMNJnB.o
 .reginfo       0x0000000000000000       0x18 C:\Users\DANIEL~1.RAI\AppData\Local\Temp\ccdMNJnB.o
 .MIPS.abiflags
                0x0000000000000000       0x18 C:\Users\DANIEL~1.RAI\AppData\Local\Temp\ccdMNJnB.o
 .text          0x0000000000000000        0x0 C:\Users\DANIEL~1.RAI\AppData\Local\Temp\cckwbaKI.o
 .data          0x0000000000000000        0x0 C:\Users\DANIEL~1.RAI\AppData\Local\Temp\cckwbaKI.o
 .bss           0x0000000000000000        0x0 C:\Users\DANIEL~1.RAI\AppData\Local\Temp\cckwbaKI.o
 .reginfo       0x0000000000000000       0x18 C:\Users\DANIEL~1.RAI\AppData\Local\Temp\cckwbaKI.o
 .MIPS.abiflags
                0x0000000000000000       0x18 C:\Users\DANIEL~1.RAI\AppData\Local\Temp\cckwbaKI.o
 .text          0x0000000000000000        0x0 C:\Users\DANIEL~1.RAI\AppData\Local\Temp\ccJ1sfCC.o
 .data          0x0000000000000000        0x0 C:\Users\DANIEL~1.RAI\AppData\Local\Temp\ccJ1sfCC.o
 .bss           0x0000000000000000        0x0 C:\Users\DANIEL~1.RAI\AppData\Local\Temp\ccJ1sfCC.o
 .reginfo       0x0000000000000000       0x18 C:\Users\DANIEL~1.RAI\AppData\Local\Temp\ccJ1sfCC.o
 .MIPS.abiflags
                0x0000000000000000       0x18 C:\Users\DANIEL~1.RAI\AppData\Local\Temp\ccJ1sfCC.o
 .text          0x0000000000000000        0x0 C:\Users\DANIEL~1.RAI\AppData\Local\Temp\ccXcxPD4.o
 .data          0x0000000000000000        0x0 C:\Users\DANIEL~1.RAI\AppData\Local\Temp\ccXcxPD4.o
 .bss           0x0000000000000000        0x0 C:\Users\DANIEL~1.RAI\AppData\Local\Temp\ccXcxPD4.o
 .reginfo       0x0000000000000000       0x18 C:\Users\DANIEL~1.RAI\AppData\Local\Temp\ccXcxPD4.o
 .MIPS.abiflags
                0x0000000000000000       0x18 C:\Users\DANIEL~1.RAI\AppData\Local\Temp\ccXcxPD4.o
 .discard       0x0000000000000000        0x4 C:\Users\DANIEL~1.RAI\AppData\Local\Temp\ccXcxPD4.o
 .data          0x0000000000000000        0x0 y:/program files/microchip/xc32/v3.01/bin/bin/../../lib/gcc/pic32mx/8.3.1/../../../../pic32mx/lib/fpu64\pic32_software_reset.o
 .bss           0x0000000000000000        0x0 y:/program files/microchip/xc32/v3.01/bin/bin/../../lib/gcc/pic32mx/8.3.1/../../../../pic32mx/lib/fpu64\pic32_software_reset.o
 .reginfo       0x0000000000000000       0x18 y:/program files/microchip/xc32/v3.01/bin/bin/../../lib/gcc/pic32mx/8.3.1/../../../../pic32mx/lib/fpu64\pic32_software_reset.o
 .MIPS.abiflags
                0x0000000000000000       0x18 y:/program files/microchip/xc32/v3.01/bin/bin/../../lib/gcc/pic32mx/8.3.1/../../../../pic32mx/lib/fpu64\pic32_software_reset.o
 .xc_stack_usage.hdr
                0x0000000000000000        0xe y:/program files/microchip/xc32/v3.01/bin/bin/../../lib/gcc/pic32mx/8.3.1/../../../../pic32mx/lib/fpu64\pic32_software_reset.o
 .xc_stack_usage
                0x0000000000000000       0x24 y:/program files/microchip/xc32/v3.01/bin/bin/../../lib/gcc/pic32mx/8.3.1/../../../../pic32mx/lib/fpu64\pic32_software_reset.o
 .data          0x0000000000000000        0x0 y:/program files/microchip/xc32/v3.01/bin/bin/../../lib/gcc/pic32mx/8.3.1/fpu64\libgcc.a(_udivdi3.o)
 .bss           0x0000000000000000        0x0 y:/program files/microchip/xc32/v3.01/bin/bin/../../lib/gcc/pic32mx/8.3.1/fpu64\libgcc.a(_udivdi3.o)
 .reginfo       0x0000000000000000       0x18 y:/program files/microchip/xc32/v3.01/bin/bin/../../lib/gcc/pic32mx/8.3.1/fpu64\libgcc.a(_udivdi3.o)
 .MIPS.abiflags
                0x0000000000000000       0x18 y:/program files/microchip/xc32/v3.01/bin/bin/../../lib/gcc/pic32mx/8.3.1/fpu64\libgcc.a(_udivdi3.o)
 .xc_stack_usage
                0x0000000000000000       0x17 y:/program files/microchip/xc32/v3.01/bin/bin/../../lib/gcc/pic32mx/8.3.1/fpu64\libgcc.a(_udivdi3.o)
 .xc_stack_usage.hdr
                0x0000000000000000        0xe y:/program files/microchip/xc32/v3.01/bin/bin/../../lib/gcc/pic32mx/8.3.1/fpu64\libgcc.a(_udivdi3.o)
 .data          0x0000000000000000        0x0 y:/program files/microchip/xc32/v3.01/bin/bin/../../lib/gcc/pic32mx/8.3.1/../../../../pic32mx/lib/fpu64\libpic32.a(memcmp.o)
 .bss           0x0000000000000000        0x0 y:/program files/microchip/xc32/v3.01/bin/bin/../../lib/gcc/pic32mx/8.3.1/../../../../pic32mx/lib/fpu64\libpic32.a(memcmp.o)
 .reginfo       0x0000000000000000       0x18 y:/program files/microchip/xc32/v3.01/bin/bin/../../lib/gcc/pic32mx/8.3.1/../../../../pic32mx/lib/fpu64\libpic32.a(memcmp.o)
 .MIPS.abiflags
                0x0000000000000000       0x18 y:/program files/microchip/xc32/v3.01/bin/bin/../../lib/gcc/pic32mx/8.3.1/../../../../pic32mx/lib/fpu64\libpic32.a(memcmp.o)
 .xc_stack_usage.hdr
                0x0000000000000000        0xe y:/program files/microchip/xc32/v3.01/bin/bin/../../lib/gcc/pic32mx/8.3.1/../../../../pic32mx/lib/fpu64\libpic32.a(memcmp.o)
 .xc_stack_usage
                0x0000000000000000       0x14 y:/program files/microchip/xc32/v3.01/bin/bin/../../lib/gcc/pic32mx/8.3.1/../../../../pic32mx/lib/fpu64\libpic32.a(memcmp.o)
 .data          0x0000000000000000        0x0 y:/program files/microchip/xc32/v3.01/bin/bin/../../lib/gcc/pic32mx/8.3.1/../../../../pic32mx/lib/fpu64\libpic32.a(memcpy.o)
 .bss           0x0000000000000000        0x0 y:/program files/microchip/xc32/v3.01/bin/bin/../../lib/gcc/pic32mx/8.3.1/../../../../pic32mx/lib/fpu64\libpic32.a(memcpy.o)
 .reginfo       0x0000000000000000       0x18 y:/program files/microchip/xc32/v3.01/bin/bin/../../lib/gcc/pic32mx/8.3.1/../../../../pic32mx/lib/fpu64\libpic32.a(memcpy.o)
 .MIPS.abiflags
                0x0000000000000000       0x18 y:/program files/microchip/xc32/v3.01/bin/bin/../../lib/gcc/pic32mx/8.3.1/../../../../pic32mx/lib/fpu64\libpic32.a(memcpy.o)
 .xc_stack_usage.hdr
                0x0000000000000000        0xe y:/program files/microchip/xc32/v3.01/bin/bin/../../lib/gcc/pic32mx/8.3.1/../../../../pic32mx/lib/fpu64\libpic32.a(memcpy.o)
 .xc_stack_usage
                0x0000000000000000       0x14 y:/program files/microchip/xc32/v3.01/bin/bin/../../lib/gcc/pic32mx/8.3.1/../../../../pic32mx/lib/fpu64\libpic32.a(memcpy.o)
 .data          0x0000000000000000        0x0 y:/program files/microchip/xc32/v3.01/bin/bin/../../lib/gcc/pic32mx/8.3.1/../../../../pic32mx/lib/fpu64\libpic32.a(memset.o)
 .bss           0x0000000000000000        0x0 y:/program files/microchip/xc32/v3.01/bin/bin/../../lib/gcc/pic32mx/8.3.1/../../../../pic32mx/lib/fpu64\libpic32.a(memset.o)
 .reginfo       0x0000000000000000       0x18 y:/program files/microchip/xc32/v3.01/bin/bin/../../lib/gcc/pic32mx/8.3.1/../../../../pic32mx/lib/fpu64\libpic32.a(memset.o)
 .MIPS.abiflags
                0x0000000000000000       0x18 y:/program files/microchip/xc32/v3.01/bin/bin/../../lib/gcc/pic32mx/8.3.1/../../../../pic32mx/lib/fpu64\libpic32.a(memset.o)
 .xc_stack_usage.hdr
                0x0000000000000000        0xe y:/program files/microchip/xc32/v3.01/bin/bin/../../lib/gcc/pic32mx/8.3.1/../../../../pic32mx/lib/fpu64\libpic32.a(memset.o)
 .xc_stack_usage
                0x0000000000000000       0x14 y:/program files/microchip/xc32/v3.01/bin/bin/../../lib/gcc/pic32mx/8.3.1/../../../../pic32mx/lib/fpu64\libpic32.a(memset.o)
 .data          0x0000000000000000        0x0 y:/program files/microchip/xc32/v3.01/bin/bin/../../lib/gcc/pic32mx/8.3.1/../../../../pic32mx/lib/fpu64\libpic32.a(strcmp.o)
 .bss           0x0000000000000000        0x0 y:/program files/microchip/xc32/v3.01/bin/bin/../../lib/gcc/pic32mx/8.3.1/../../../../pic32mx/lib/fpu64\libpic32.a(strcmp.o)
 .reginfo       0x0000000000000000       0x18 y:/program files/microchip/xc32/v3.01/bin/bin/../../lib/gcc/pic32mx/8.3.1/../../../../pic32mx/lib/fpu64\libpic32.a(strcmp.o)
 .MIPS.abiflags
                0x0000000000000000       0x18 y:/program files/microchip/xc32/v3.01/bin/bin/../../lib/gcc/pic32mx/8.3.1/../../../../pic32mx/lib/fpu64\libpic32.a(strcmp.o)
 .xc_stack_usage.hdr
                0x0000000000000000        0xe y:/program files/microchip/xc32/v3.01/bin/bin/../../lib/gcc/pic32mx/8.3.1/../../../../pic32mx/lib/fpu64\libpic32.a(strcmp.o)
 .xc_stack_usage
                0x0000000000000000       0x14 y:/program files/microchip/xc32/v3.01/bin/bin/../../lib/gcc/pic32mx/8.3.1/../../../../pic32mx/lib/fpu64\libpic32.a(strcmp.o)
 .data          0x0000000000000000        0x0 y:/program files/microchip/xc32/v3.01/bin/bin/../../lib/gcc/pic32mx/8.3.1/../../../../pic32mx/lib/fpu64\libpic32.a(strcpy.o)
 .bss           0x0000000000000000        0x0 y:/program files/microchip/xc32/v3.01/bin/bin/../../lib/gcc/pic32mx/8.3.1/../../../../pic32mx/lib/fpu64\libpic32.a(strcpy.o)
 .reginfo       0x0000000000000000       0x18 y:/program files/microchip/xc32/v3.01/bin/bin/../../lib/gcc/pic32mx/8.3.1/../../../../pic32mx/lib/fpu64\libpic32.a(strcpy.o)
 .MIPS.abiflags
                0x0000000000000000       0x18 y:/program files/microchip/xc32/v3.01/bin/bin/../../lib/gcc/pic32mx/8.3.1/../../../../pic32mx/lib/fpu64\libpic32.a(strcpy.o)
 .xc_stack_usage.hdr
                0x0000000000000000        0xe y:/program files/microchip/xc32/v3.01/bin/bin/../../lib/gcc/pic32mx/8.3.1/../../../../pic32mx/lib/fpu64\libpic32.a(strcpy.o)
 .xc_stack_usage
                0x0000000000000000       0x14 y:/program files/microchip/xc32/v3.01/bin/bin/../../lib/gcc/pic32mx/8.3.1/../../../../pic32mx/lib/fpu64\libpic32.a(strcpy.o)
 .data          0x0000000000000000        0x0 y:/program files/microchip/xc32/v3.01/bin/bin/../../lib/gcc/pic32mx/8.3.1/../../../../pic32mx/lib/fpu64\libpic32.a(strlen.o)
 .bss           0x0000000000000000        0x0 y:/program files/microchip/xc32/v3.01/bin/bin/../../lib/gcc/pic32mx/8.3.1/../../../../pic32mx/lib/fpu64\libpic32.a(strlen.o)
 .reginfo       0x0000000000000000       0x18 y:/program files/microchip/xc32/v3.01/bin/bin/../../lib/gcc/pic32mx/8.3.1/../../../../pic32mx/lib/fpu64\libpic32.a(strlen.o)
 .MIPS.abiflags
                0x0000000000000000       0x18 y:/program files/microchip/xc32/v3.01/bin/bin/../../lib/gcc/pic32mx/8.3.1/../../../../pic32mx/lib/fpu64\libpic32.a(strlen.o)
 .xc_stack_usage.hdr
                0x0000000000000000        0xe y:/program files/microchip/xc32/v3.01/bin/bin/../../lib/gcc/pic32mx/8.3.1/../../../../pic32mx/lib/fpu64\libpic32.a(strlen.o)
 .xc_stack_usage
                0x0000000000000000       0x14 y:/program files/microchip/xc32/v3.01/bin/bin/../../lib/gcc/pic32mx/8.3.1/../../../../pic32mx/lib/fpu64\libpic32.a(strlen.o)
 .text          0x0000000000000000        0x0 y:/program files/microchip/xc32/v3.01/bin/bin/../../lib/gcc/pic32mx/8.3.1/../../../../pic32mx/lib/fpu64\libpic32.a(default-on-reset.o)
 .data          0x0000000000000000        0x0 y:/program files/microchip/xc32/v3.01/bin/bin/../../lib/gcc/pic32mx/8.3.1/../../../../pic32mx/lib/fpu64\libpic32.a(default-on-reset.o)
 .bss           0x0000000000000000        0x0 y:/program files/microchip/xc32/v3.01/bin/bin/../../lib/gcc/pic32mx/8.3.1/../../../../pic32mx/lib/fpu64\libpic32.a(default-on-reset.o)
 .reginfo       0x0000000000000000       0x18 y:/program files/microchip/xc32/v3.01/bin/bin/../../lib/gcc/pic32mx/8.3.1/../../../../pic32mx/lib/fpu64\libpic32.a(default-on-reset.o)
 .MIPS.abiflags
                0x0000000000000000       0x18 y:/program files/microchip/xc32/v3.01/bin/bin/../../lib/gcc/pic32mx/8.3.1/../../../../pic32mx/lib/fpu64\libpic32.a(default-on-reset.o)
 .xc_stack_usage
                0x0000000000000000       0x17 y:/program files/microchip/xc32/v3.01/bin/bin/../../lib/gcc/pic32mx/8.3.1/../../../../pic32mx/lib/fpu64\libpic32.a(default-on-reset.o)
 .xc_stack_usage.hdr
                0x0000000000000000        0xe y:/program files/microchip/xc32/v3.01/bin/bin/../../lib/gcc/pic32mx/8.3.1/../../../../pic32mx/lib/fpu64\libpic32.a(default-on-reset.o)
 .text          0x0000000000000000        0x0 y:/program files/microchip/xc32/v3.01/bin/bin/../../lib/gcc/pic32mx/8.3.1/../../../../pic32mx/lib/fpu64\libpic32.a(default-on-bootstrap.o)
 .data          0x0000000000000000        0x0 y:/program files/microchip/xc32/v3.01/bin/bin/../../lib/gcc/pic32mx/8.3.1/../../../../pic32mx/lib/fpu64\libpic32.a(default-on-bootstrap.o)
 .bss           0x0000000000000000        0x0 y:/program files/microchip/xc32/v3.01/bin/bin/../../lib/gcc/pic32mx/8.3.1/../../../../pic32mx/lib/fpu64\libpic32.a(default-on-bootstrap.o)
 .reginfo       0x0000000000000000       0x18 y:/program files/microchip/xc32/v3.01/bin/bin/../../lib/gcc/pic32mx/8.3.1/../../../../pic32mx/lib/fpu64\libpic32.a(default-on-bootstrap.o)
 .MIPS.abiflags
                0x0000000000000000       0x18 y:/program files/microchip/xc32/v3.01/bin/bin/../../lib/gcc/pic32mx/8.3.1/../../../../pic32mx/lib/fpu64\libpic32.a(default-on-bootstrap.o)
 .xc_stack_usage
                0x0000000000000000       0x1b y:/program files/microchip/xc32/v3.01/bin/bin/../../lib/gcc/pic32mx/8.3.1/../../../../pic32mx/lib/fpu64\libpic32.a(default-on-bootstrap.o)
 .xc_stack_usage.hdr
                0x0000000000000000        0xe y:/program files/microchip/xc32/v3.01/bin/bin/../../lib/gcc/pic32mx/8.3.1/../../../../pic32mx/lib/fpu64\libpic32.a(default-on-bootstrap.o)
 .data          0x0000000000000000        0x0 y:/program files/microchip/xc32/v3.01/bin/bin/../../lib/gcc/pic32mx/8.3.1/../../../../pic32mx/lib/fpu64\libpic32.a(default-nmi-handler.o)
 .bss           0x0000000000000000        0x0 y:/program files/microchip/xc32/v3.01/bin/bin/../../lib/gcc/pic32mx/8.3.1/../../../../pic32mx/lib/fpu64\libpic32.a(default-nmi-handler.o)
 .reginfo       0x0000000000000000       0x18 y:/program files/microchip/xc32/v3.01/bin/bin/../../lib/gcc/pic32mx/8.3.1/../../../../pic32mx/lib/fpu64\libpic32.a(default-nmi-handler.o)
 .MIPS.abiflags
                0x0000000000000000       0x18 y:/program files/microchip/xc32/v3.01/bin/bin/../../lib/gcc/pic32mx/8.3.1/../../../../pic32mx/lib/fpu64\libpic32.a(default-nmi-handler.o)
 .xc_stack_usage.hdr
                0x0000000000000000        0xe y:/program files/microchip/xc32/v3.01/bin/bin/../../lib/gcc/pic32mx/8.3.1/../../../../pic32mx/lib/fpu64\libpic32.a(default-nmi-handler.o)
 .xc_stack_usage
                0x0000000000000000       0x1a y:/program files/microchip/xc32/v3.01/bin/bin/../../lib/gcc/pic32mx/8.3.1/../../../../pic32mx/lib/fpu64\libpic32.a(default-nmi-handler.o)
 .data          0x0000000000000000        0x0 y:/program files/microchip/xc32/v3.01/bin/bin/../../lib/gcc/pic32mx/8.3.1/../../../../pic32mx/lib/fpu64\libpic32.a(pic32_data_init.o)
 .bss           0x0000000000000000        0x0 y:/program files/microchip/xc32/v3.01/bin/bin/../../lib/gcc/pic32mx/8.3.1/../../../../pic32mx/lib/fpu64\libpic32.a(pic32_data_init.o)
 .reginfo       0x0000000000000000       0x18 y:/program files/microchip/xc32/v3.01/bin/bin/../../lib/gcc/pic32mx/8.3.1/../../../../pic32mx/lib/fpu64\libpic32.a(pic32_data_init.o)
 .MIPS.abiflags
                0x0000000000000000       0x18 y:/program files/microchip/xc32/v3.01/bin/bin/../../lib/gcc/pic32mx/8.3.1/../../../../pic32mx/lib/fpu64\libpic32.a(pic32_data_init.o)
 .xc_stack_usage.hdr
                0x0000000000000000        0xe y:/program files/microchip/xc32/v3.01/bin/bin/../../lib/gcc/pic32mx/8.3.1/../../../../pic32mx/lib/fpu64\libpic32.a(pic32_data_init.o)
 .xc_stack_usage
                0x0000000000000000       0x1f y:/program files/microchip/xc32/v3.01/bin/bin/../../lib/gcc/pic32mx/8.3.1/../../../../pic32mx/lib/fpu64\libpic32.a(pic32_data_init.o)
 .text          0x0000000000000000        0x0 y:/program files/microchip/xc32/v3.01/bin/bin/../../lib/gcc/pic32mx/8.3.1/../../../../pic32mx/lib/fpu64\libpic32.a(pic32_init_cache.o)
 .data          0x0000000000000000        0x0 y:/program files/microchip/xc32/v3.01/bin/bin/../../lib/gcc/pic32mx/8.3.1/../../../../pic32mx/lib/fpu64\libpic32.a(pic32_init_cache.o)
 .bss           0x0000000000000000        0x0 y:/program files/microchip/xc32/v3.01/bin/bin/../../lib/gcc/pic32mx/8.3.1/../../../../pic32mx/lib/fpu64\libpic32.a(pic32_init_cache.o)
 .reginfo       0x0000000000000000       0x18 y:/program files/microchip/xc32/v3.01/bin/bin/../../lib/gcc/pic32mx/8.3.1/../../../../pic32mx/lib/fpu64\libpic32.a(pic32_init_cache.o)
 .MIPS.abiflags
                0x0000000000000000       0x18 y:/program files/microchip/xc32/v3.01/bin/bin/../../lib/gcc/pic32mx/8.3.1/../../../../pic32mx/lib/fpu64\libpic32.a(pic32_init_cache.o)
 .cache_init.pic32_size_cache
                0x0000000000000000       0x58 y:/program files/microchip/xc32/v3.01/bin/bin/../../lib/gcc/pic32mx/8.3.1/../../../../pic32mx/lib/fpu64\libpic32.a(pic32_init_cache.o)
 .xc_stack_usage.hdr
                0x0000000000000000        0xe y:/program files/microchip/xc32/v3.01/bin/bin/../../lib/gcc/pic32mx/8.3.1/../../../../pic32mx/lib/fpu64\libpic32.a(pic32_init_cache.o)
 .xc_stack_usage
                0x0000000000000000       0x5a y:/program files/microchip/xc32/v3.01/bin/bin/../../lib/gcc/pic32mx/8.3.1/../../../../pic32mx/lib/fpu64\libpic32.a(pic32_init_cache.o)
 .text          0x0000000000000000        0x0 y:/program files/microchip/xc32/v3.01/bin/bin/../../lib/gcc/pic32mx/8.3.1/../../../../pic32mx/lib/fpu64\libpic32.a(pic32_init_tlb_ebi_sqi.o)
 .data          0x0000000000000000        0x0 y:/program files/microchip/xc32/v3.01/bin/bin/../../lib/gcc/pic32mx/8.3.1/../../../../pic32mx/lib/fpu64\libpic32.a(pic32_init_tlb_ebi_sqi.o)
 .bss           0x0000000000000000        0x0 y:/program files/microchip/xc32/v3.01/bin/bin/../../lib/gcc/pic32mx/8.3.1/../../../../pic32mx/lib/fpu64\libpic32.a(pic32_init_tlb_ebi_sqi.o)
 .reginfo       0x0000000000000000       0x18 y:/program files/microchip/xc32/v3.01/bin/bin/../../lib/gcc/pic32mx/8.3.1/../../../../pic32mx/lib/fpu64\libpic32.a(pic32_init_tlb_ebi_sqi.o)
 .MIPS.abiflags
                0x0000000000000000       0x18 y:/program files/microchip/xc32/v3.01/bin/bin/../../lib/gcc/pic32mx/8.3.1/../../../../pic32mx/lib/fpu64\libpic32.a(pic32_init_tlb_ebi_sqi.o)
 .xc_stack_usage.hdr
                0x0000000000000000        0xe y:/program files/microchip/xc32/v3.01/bin/bin/../../lib/gcc/pic32mx/8.3.1/../../../../pic32mx/lib/fpu64\libpic32.a(pic32_init_tlb_ebi_sqi.o)
 .xc_stack_usage
                0x0000000000000000       0x26 y:/program files/microchip/xc32/v3.01/bin/bin/../../lib/gcc/pic32mx/8.3.1/../../../../pic32mx/lib/fpu64\libpic32.a(pic32_init_tlb_ebi_sqi.o)
 .text          0x0000000000000000        0x0 y:/program files/microchip/xc32/v3.01/bin/bin/../../lib/gcc/pic32mx/8.3.1/../../../../pic32mx/lib/fpu64\libpic32.a(general-exception.o)
 .data          0x0000000000000000        0x0 y:/program files/microchip/xc32/v3.01/bin/bin/../../lib/gcc/pic32mx/8.3.1/../../../../pic32mx/lib/fpu64\libpic32.a(general-exception.o)
 .bss           0x0000000000000000        0x0 y:/program files/microchip/xc32/v3.01/bin/bin/../../lib/gcc/pic32mx/8.3.1/../../../../pic32mx/lib/fpu64\libpic32.a(general-exception.o)
 .reginfo       0x0000000000000000       0x18 y:/program files/microchip/xc32/v3.01/bin/bin/../../lib/gcc/pic32mx/8.3.1/../../../../pic32mx/lib/fpu64\libpic32.a(general-exception.o)
 .MIPS.abiflags
                0x0000000000000000       0x18 y:/program files/microchip/xc32/v3.01/bin/bin/../../lib/gcc/pic32mx/8.3.1/../../../../pic32mx/lib/fpu64\libpic32.a(general-exception.o)
 .xc_stack_usage.hdr
                0x0000000000000000        0xe y:/program files/microchip/xc32/v3.01/bin/bin/../../lib/gcc/pic32mx/8.3.1/../../../../pic32mx/lib/fpu64\libpic32.a(general-exception.o)
 .xc_stack_usage
                0x0000000000000000       0x28 y:/program files/microchip/xc32/v3.01/bin/bin/../../lib/gcc/pic32mx/8.3.1/../../../../pic32mx/lib/fpu64\libpic32.a(general-exception.o)
 .text          0x0000000000000000        0x0 y:/program files/microchip/xc32/v3.01/bin/bin/../../lib/gcc/pic32mx/8.3.1/../../../../pic32mx/lib/fpu64\libpic32.a(cache-err-exception.o)
 .data          0x0000000000000000        0x0 y:/program files/microchip/xc32/v3.01/bin/bin/../../lib/gcc/pic32mx/8.3.1/../../../../pic32mx/lib/fpu64\libpic32.a(cache-err-exception.o)
 .bss           0x0000000000000000        0x0 y:/program files/microchip/xc32/v3.01/bin/bin/../../lib/gcc/pic32mx/8.3.1/../../../../pic32mx/lib/fpu64\libpic32.a(cache-err-exception.o)
 .reginfo       0x0000000000000000       0x18 y:/program files/microchip/xc32/v3.01/bin/bin/../../lib/gcc/pic32mx/8.3.1/../../../../pic32mx/lib/fpu64\libpic32.a(cache-err-exception.o)
 .MIPS.abiflags
                0x0000000000000000       0x18 y:/program files/microchip/xc32/v3.01/bin/bin/../../lib/gcc/pic32mx/8.3.1/../../../../pic32mx/lib/fpu64\libpic32.a(cache-err-exception.o)
 .xc_stack_usage.hdr
                0x0000000000000000        0xe y:/program files/microchip/xc32/v3.01/bin/bin/../../lib/gcc/pic32mx/8.3.1/../../../../pic32mx/lib/fpu64\libpic32.a(cache-err-exception.o)
 .xc_stack_usage
                0x0000000000000000       0x2a y:/program files/microchip/xc32/v3.01/bin/bin/../../lib/gcc/pic32mx/8.3.1/../../../../pic32mx/lib/fpu64\libpic32.a(cache-err-exception.o)
 .text          0x0000000000000000        0x0 y:/program files/microchip/xc32/v3.01/bin/bin/../../lib/gcc/pic32mx/8.3.1/../../../../pic32mx/lib/fpu64\libpic32.a(simple-tlb-refill-exception.o)
 .data          0x0000000000000000        0x0 y:/program files/microchip/xc32/v3.01/bin/bin/../../lib/gcc/pic32mx/8.3.1/../../../../pic32mx/lib/fpu64\libpic32.a(simple-tlb-refill-exception.o)
 .bss           0x0000000000000000        0x0 y:/program files/microchip/xc32/v3.01/bin/bin/../../lib/gcc/pic32mx/8.3.1/../../../../pic32mx/lib/fpu64\libpic32.a(simple-tlb-refill-exception.o)
 .reginfo       0x0000000000000000       0x18 y:/program files/microchip/xc32/v3.01/bin/bin/../../lib/gcc/pic32mx/8.3.1/../../../../pic32mx/lib/fpu64\libpic32.a(simple-tlb-refill-exception.o)
 .MIPS.abiflags
                0x0000000000000000       0x18 y:/program files/microchip/xc32/v3.01/bin/bin/../../lib/gcc/pic32mx/8.3.1/../../../../pic32mx/lib/fpu64\libpic32.a(simple-tlb-refill-exception.o)
 .xc_stack_usage.hdr
                0x0000000000000000        0xe y:/program files/microchip/xc32/v3.01/bin/bin/../../lib/gcc/pic32mx/8.3.1/../../../../pic32mx/lib/fpu64\libpic32.a(simple-tlb-refill-exception.o)
 .xc_stack_usage
                0x0000000000000000       0x32 y:/program files/microchip/xc32/v3.01/bin/bin/../../lib/gcc/pic32mx/8.3.1/../../../../pic32mx/lib/fpu64\libpic32.a(simple-tlb-refill-exception.o)
 .text          0x0000000000000000        0x0 y:/program files/microchip/xc32/v3.01/bin/bin/../../lib/gcc/pic32mx/8.3.1/../../../../pic32mx/lib/fpu64\libpic32.a(defaultinterrupt.o)
 .data          0x0000000000000000        0x0 y:/program files/microchip/xc32/v3.01/bin/bin/../../lib/gcc/pic32mx/8.3.1/../../../../pic32mx/lib/fpu64\libpic32.a(defaultinterrupt.o)
 .bss           0x0000000000000000        0x0 y:/program files/microchip/xc32/v3.01/bin/bin/../../lib/gcc/pic32mx/8.3.1/../../../../pic32mx/lib/fpu64\libpic32.a(defaultinterrupt.o)
 .reginfo       0x0000000000000000       0x18 y:/program files/microchip/xc32/v3.01/bin/bin/../../lib/gcc/pic32mx/8.3.1/../../../../pic32mx/lib/fpu64\libpic32.a(defaultinterrupt.o)
 .MIPS.abiflags
                0x0000000000000000       0x18 y:/program files/microchip/xc32/v3.01/bin/bin/../../lib/gcc/pic32mx/8.3.1/../../../../pic32mx/lib/fpu64\libpic32.a(defaultinterrupt.o)
 .xc_stack_usage
                0x0000000000000000       0x1f y:/program files/microchip/xc32/v3.01/bin/bin/../../lib/gcc/pic32mx/8.3.1/../../../../pic32mx/lib/fpu64\libpic32.a(defaultinterrupt.o)
 .xc_stack_usage.hdr
                0x0000000000000000        0xe y:/program files/microchip/xc32/v3.01/bin/bin/../../lib/gcc/pic32mx/8.3.1/../../../../pic32mx/lib/fpu64\libpic32.a(defaultinterrupt.o)
 .text          0x0000000000000000        0x0 y:/program files/microchip/xc32/v3.01/bin/bin/../../lib/gcc/pic32mx/8.3.1/../../../../pic32mx/lib/fpu64\libc.a(calloc.o)
 .data          0x0000000000000000        0x0 y:/program files/microchip/xc32/v3.01/bin/bin/../../lib/gcc/pic32mx/8.3.1/../../../../pic32mx/lib/fpu64\libc.a(calloc.o)
 .bss           0x0000000000000000        0x0 y:/program files/microchip/xc32/v3.01/bin/bin/../../lib/gcc/pic32mx/8.3.1/../../../../pic32mx/lib/fpu64\libc.a(calloc.o)
 .reginfo       0x0000000000000000       0x18 y:/program files/microchip/xc32/v3.01/bin/bin/../../lib/gcc/pic32mx/8.3.1/../../../../pic32mx/lib/fpu64\libc.a(calloc.o)
 .MIPS.abiflags
                0x0000000000000000       0x18 y:/program files/microchip/xc32/v3.01/bin/bin/../../lib/gcc/pic32mx/8.3.1/../../../../pic32mx/lib/fpu64\libc.a(calloc.o)
 .xc_stack_usage
                0x0000000000000000       0x14 y:/program files/microchip/xc32/v3.01/bin/bin/../../lib/gcc/pic32mx/8.3.1/../../../../pic32mx/lib/fpu64\libc.a(calloc.o)
 .xc_stack_usage.hdr
                0x0000000000000000        0xe y:/program files/microchip/xc32/v3.01/bin/bin/../../lib/gcc/pic32mx/8.3.1/../../../../pic32mx/lib/fpu64\libc.a(calloc.o)
 .text          0x0000000000000000        0x0 y:/program files/microchip/xc32/v3.01/bin/bin/../../lib/gcc/pic32mx/8.3.1/../../../../pic32mx/lib/fpu64\libc.a(ctype.o)
 .data          0x0000000000000000        0x0 y:/program files/microchip/xc32/v3.01/bin/bin/../../lib/gcc/pic32mx/8.3.1/../../../../pic32mx/lib/fpu64\libc.a(ctype.o)
 .bss           0x0000000000000000        0x0 y:/program files/microchip/xc32/v3.01/bin/bin/../../lib/gcc/pic32mx/8.3.1/../../../../pic32mx/lib/fpu64\libc.a(ctype.o)
 .reginfo       0x0000000000000000       0x18 y:/program files/microchip/xc32/v3.01/bin/bin/../../lib/gcc/pic32mx/8.3.1/../../../../pic32mx/lib/fpu64\libc.a(ctype.o)
 .MIPS.abiflags
                0x0000000000000000       0x18 y:/program files/microchip/xc32/v3.01/bin/bin/../../lib/gcc/pic32mx/8.3.1/../../../../pic32mx/lib/fpu64\libc.a(ctype.o)
 .xc_stack_usage.hdr
                0x0000000000000000        0xe y:/program files/microchip/xc32/v3.01/bin/bin/../../lib/gcc/pic32mx/8.3.1/../../../../pic32mx/lib/fpu64\libc.a(ctype.o)
 .text          0x0000000000000000        0x0 y:/program files/microchip/xc32/v3.01/bin/bin/../../lib/gcc/pic32mx/8.3.1/../../../../pic32mx/lib/fpu64\libc.a(ctypef.o)
 .data          0x0000000000000000        0x0 y:/program files/microchip/xc32/v3.01/bin/bin/../../lib/gcc/pic32mx/8.3.1/../../../../pic32mx/lib/fpu64\libc.a(ctypef.o)
 .bss           0x0000000000000000        0x0 y:/program files/microchip/xc32/v3.01/bin/bin/../../lib/gcc/pic32mx/8.3.1/../../../../pic32mx/lib/fpu64\libc.a(ctypef.o)
 .reginfo       0x0000000000000000       0x18 y:/program files/microchip/xc32/v3.01/bin/bin/../../lib/gcc/pic32mx/8.3.1/../../../../pic32mx/lib/fpu64\libc.a(ctypef.o)
 .MIPS.abiflags
                0x0000000000000000       0x18 y:/program files/microchip/xc32/v3.01/bin/bin/../../lib/gcc/pic32mx/8.3.1/../../../../pic32mx/lib/fpu64\libc.a(ctypef.o)
 .xc_stack_usage
                0x0000000000000000      0x168 y:/program files/microchip/xc32/v3.01/bin/bin/../../lib/gcc/pic32mx/8.3.1/../../../../pic32mx/lib/fpu64\libc.a(ctypef.o)
 .text.tolower  0x0000000000000000       0x28 y:/program files/microchip/xc32/v3.01/bin/bin/../../lib/gcc/pic32mx/8.3.1/../../../../pic32mx/lib/fpu64\libc.a(ctypef.o)
 .text.isalnum  0x0000000000000000       0x18 y:/program files/microchip/xc32/v3.01/bin/bin/../../lib/gcc/pic32mx/8.3.1/../../../../pic32mx/lib/fpu64\libc.a(ctypef.o)
 .text.isalpha  0x0000000000000000       0x18 y:/program files/microchip/xc32/v3.01/bin/bin/../../lib/gcc/pic32mx/8.3.1/../../../../pic32mx/lib/fpu64\libc.a(ctypef.o)
 .text.isascii  0x0000000000000000        0x8 y:/program files/microchip/xc32/v3.01/bin/bin/../../lib/gcc/pic32mx/8.3.1/../../../../pic32mx/lib/fpu64\libc.a(ctypef.o)
 .text.iscntrl  0x0000000000000000       0x18 y:/program files/microchip/xc32/v3.01/bin/bin/../../lib/gcc/pic32mx/8.3.1/../../../../pic32mx/lib/fpu64\libc.a(ctypef.o)
 .text.isdigit  0x0000000000000000       0x18 y:/program files/microchip/xc32/v3.01/bin/bin/../../lib/gcc/pic32mx/8.3.1/../../../../pic32mx/lib/fpu64\libc.a(ctypef.o)
 .text.isgraph  0x0000000000000000       0x18 y:/program files/microchip/xc32/v3.01/bin/bin/../../lib/gcc/pic32mx/8.3.1/../../../../pic32mx/lib/fpu64\libc.a(ctypef.o)
 .text.islower  0x0000000000000000       0x18 y:/program files/microchip/xc32/v3.01/bin/bin/../../lib/gcc/pic32mx/8.3.1/../../../../pic32mx/lib/fpu64\libc.a(ctypef.o)
 .text.isprint  0x0000000000000000       0x18 y:/program files/microchip/xc32/v3.01/bin/bin/../../lib/gcc/pic32mx/8.3.1/../../../../pic32mx/lib/fpu64\libc.a(ctypef.o)
 .text.ispunct  0x0000000000000000       0x18 y:/program files/microchip/xc32/v3.01/bin/bin/../../lib/gcc/pic32mx/8.3.1/../../../../pic32mx/lib/fpu64\libc.a(ctypef.o)
 .text.isspace  0x0000000000000000       0x18 y:/program files/microchip/xc32/v3.01/bin/bin/../../lib/gcc/pic32mx/8.3.1/../../../../pic32mx/lib/fpu64\libc.a(ctypef.o)
 .text.isupper  0x0000000000000000       0x18 y:/program files/microchip/xc32/v3.01/bin/bin/../../lib/gcc/pic32mx/8.3.1/../../../../pic32mx/lib/fpu64\libc.a(ctypef.o)
 .text.isxdigit
                0x0000000000000000       0x18 y:/program files/microchip/xc32/v3.01/bin/bin/../../lib/gcc/pic32mx/8.3.1/../../../../pic32mx/lib/fpu64\libc.a(ctypef.o)
 .text.toascii  0x0000000000000000        0x8 y:/program files/microchip/xc32/v3.01/bin/bin/../../lib/gcc/pic32mx/8.3.1/../../../../pic32mx/lib/fpu64\libc.a(ctypef.o)
 .text._tolower
                0x0000000000000000        0x8 y:/program files/microchip/xc32/v3.01/bin/bin/../../lib/gcc/pic32mx/8.3.1/../../../../pic32mx/lib/fpu64\libc.a(ctypef.o)
 .text._toupper
                0x0000000000000000        0x8 y:/program files/microchip/xc32/v3.01/bin/bin/../../lib/gcc/pic32mx/8.3.1/../../../../pic32mx/lib/fpu64\libc.a(ctypef.o)
 .xc_stack_usage.hdr
                0x0000000000000000        0xe y:/program files/microchip/xc32/v3.01/bin/bin/../../lib/gcc/pic32mx/8.3.1/../../../../pic32mx/lib/fpu64\libc.a(ctypef.o)
 .text          0x0000000000000000        0x0 y:/program files/microchip/xc32/v3.01/bin/bin/../../lib/gcc/pic32mx/8.3.1/../../../../pic32mx/lib/fpu64\libc.a(malloc.o)
 .data          0x0000000000000000        0x0 y:/program files/microchip/xc32/v3.01/bin/bin/../../lib/gcc/pic32mx/8.3.1/../../../../pic32mx/lib/fpu64\libc.a(malloc.o)
 .reginfo       0x0000000000000000       0x18 y:/program files/microchip/xc32/v3.01/bin/bin/../../lib/gcc/pic32mx/8.3.1/../../../../pic32mx/lib/fpu64\libc.a(malloc.o)
 .MIPS.abiflags
                0x0000000000000000       0x18 y:/program files/microchip/xc32/v3.01/bin/bin/../../lib/gcc/pic32mx/8.3.1/../../../../pic32mx/lib/fpu64\libc.a(malloc.o)
 .xc_stack_usage
                0x0000000000000000       0x3b y:/program files/microchip/xc32/v3.01/bin/bin/../../lib/gcc/pic32mx/8.3.1/../../../../pic32mx/lib/fpu64\libc.a(malloc.o)
 .text.realloc  0x0000000000000000      0x108 y:/program files/microchip/xc32/v3.01/bin/bin/../../lib/gcc/pic32mx/8.3.1/../../../../pic32mx/lib/fpu64\libc.a(malloc.o)
 .xc_stack_usage.hdr
                0x0000000000000000        0xe y:/program files/microchip/xc32/v3.01/bin/bin/../../lib/gcc/pic32mx/8.3.1/../../../../pic32mx/lib/fpu64\libc.a(malloc.o)
 .text          0x0000000000000000        0x0 y:/program files/microchip/xc32/v3.01/bin/bin/../../lib/gcc/pic32mx/8.3.1/../../../../pic32mx/lib/fpu64\libc.a(rand.o)
 .data          0x0000000000000000        0x0 y:/program files/microchip/xc32/v3.01/bin/bin/../../lib/gcc/pic32mx/8.3.1/../../../../pic32mx/lib/fpu64\libc.a(rand.o)
 .reginfo       0x0000000000000000       0x18 y:/program files/microchip/xc32/v3.01/bin/bin/../../lib/gcc/pic32mx/8.3.1/../../../../pic32mx/lib/fpu64\libc.a(rand.o)
 .MIPS.abiflags
                0x0000000000000000       0x18 y:/program files/microchip/xc32/v3.01/bin/bin/../../lib/gcc/pic32mx/8.3.1/../../../../pic32mx/lib/fpu64\libc.a(rand.o)
 .xc_stack_usage
                0x0000000000000000       0x25 y:/program files/microchip/xc32/v3.01/bin/bin/../../lib/gcc/pic32mx/8.3.1/../../../../pic32mx/lib/fpu64\libc.a(rand.o)
 .xc_stack_usage.hdr
                0x0000000000000000        0xe y:/program files/microchip/xc32/v3.01/bin/bin/../../lib/gcc/pic32mx/8.3.1/../../../../pic32mx/lib/fpu64\libc.a(rand.o)
 .text          0x0000000000000000        0x0 y:/program files/microchip/xc32/v3.01/bin/bin/../../lib/gcc/pic32mx/8.3.1/../../../../pic32mx/lib/fpu64\libc.a(strchr.o)
 .data          0x0000000000000000        0x0 y:/program files/microchip/xc32/v3.01/bin/bin/../../lib/gcc/pic32mx/8.3.1/../../../../pic32mx/lib/fpu64\libc.a(strchr.o)
 .bss           0x0000000000000000        0x0 y:/program files/microchip/xc32/v3.01/bin/bin/../../lib/gcc/pic32mx/8.3.1/../../../../pic32mx/lib/fpu64\libc.a(strchr.o)
 .reginfo       0x0000000000000000       0x18 y:/program files/microchip/xc32/v3.01/bin/bin/../../lib/gcc/pic32mx/8.3.1/../../../../pic32mx/lib/fpu64\libc.a(strchr.o)
 .MIPS.abiflags
                0x0000000000000000       0x18 y:/program files/microchip/xc32/v3.01/bin/bin/../../lib/gcc/pic32mx/8.3.1/../../../../pic32mx/lib/fpu64\libc.a(strchr.o)
 .xc_stack_usage
                0x0000000000000000       0x14 y:/program files/microchip/xc32/v3.01/bin/bin/../../lib/gcc/pic32mx/8.3.1/../../../../pic32mx/lib/fpu64\libc.a(strchr.o)
 .xc_stack_usage.hdr
                0x0000000000000000        0xe y:/program files/microchip/xc32/v3.01/bin/bin/../../lib/gcc/pic32mx/8.3.1/../../../../pic32mx/lib/fpu64\libc.a(strchr.o)
 .text          0x0000000000000000        0x0 y:/program files/microchip/xc32/v3.01/bin/bin/../../lib/gcc/pic32mx/8.3.1/../../../../pic32mx/lib/fpu64\libc.a(strncmp.o)
 .data          0x0000000000000000        0x0 y:/program files/microchip/xc32/v3.01/bin/bin/../../lib/gcc/pic32mx/8.3.1/../../../../pic32mx/lib/fpu64\libc.a(strncmp.o)
 .bss           0x0000000000000000        0x0 y:/program files/microchip/xc32/v3.01/bin/bin/../../lib/gcc/pic32mx/8.3.1/../../../../pic32mx/lib/fpu64\libc.a(strncmp.o)
 .reginfo       0x0000000000000000       0x18 y:/program files/microchip/xc32/v3.01/bin/bin/../../lib/gcc/pic32mx/8.3.1/../../../../pic32mx/lib/fpu64\libc.a(strncmp.o)
 .MIPS.abiflags
                0x0000000000000000       0x18 y:/program files/microchip/xc32/v3.01/bin/bin/../../lib/gcc/pic32mx/8.3.1/../../../../pic32mx/lib/fpu64\libc.a(strncmp.o)
 .xc_stack_usage
                0x0000000000000000       0x15 y:/program files/microchip/xc32/v3.01/bin/bin/../../lib/gcc/pic32mx/8.3.1/../../../../pic32mx/lib/fpu64\libc.a(strncmp.o)
 .xc_stack_usage.hdr
                0x0000000000000000        0xe y:/program files/microchip/xc32/v3.01/bin/bin/../../lib/gcc/pic32mx/8.3.1/../../../../pic32mx/lib/fpu64\libc.a(strncmp.o)
 .text          0x0000000000000000        0x0 y:/program files/microchip/xc32/v3.01/bin/bin/../../lib/gcc/pic32mx/8.3.1/../../../../pic32mx/lib/fpu64\libc.a(strncpy.o)
 .data          0x0000000000000000        0x0 y:/program files/microchip/xc32/v3.01/bin/bin/../../lib/gcc/pic32mx/8.3.1/../../../../pic32mx/lib/fpu64\libc.a(strncpy.o)
 .bss           0x0000000000000000        0x0 y:/program files/microchip/xc32/v3.01/bin/bin/../../lib/gcc/pic32mx/8.3.1/../../../../pic32mx/lib/fpu64\libc.a(strncpy.o)
 .reginfo       0x0000000000000000       0x18 y:/program files/microchip/xc32/v3.01/bin/bin/../../lib/gcc/pic32mx/8.3.1/../../../../pic32mx/lib/fpu64\libc.a(strncpy.o)
 .MIPS.abiflags
                0x0000000000000000       0x18 y:/program files/microchip/xc32/v3.01/bin/bin/../../lib/gcc/pic32mx/8.3.1/../../../../pic32mx/lib/fpu64\libc.a(strncpy.o)
 .xc_stack_usage
                0x0000000000000000       0x15 y:/program files/microchip/xc32/v3.01/bin/bin/../../lib/gcc/pic32mx/8.3.1/../../../../pic32mx/lib/fpu64\libc.a(strncpy.o)
 .xc_stack_usage.hdr
                0x0000000000000000        0xe y:/program files/microchip/xc32/v3.01/bin/bin/../../lib/gcc/pic32mx/8.3.1/../../../../pic32mx/lib/fpu64\libc.a(strncpy.o)
 .text          0x0000000000000000        0x0 y:/program files/microchip/xc32/v3.01/bin/bin/../../lib/gcc/pic32mx/8.3.1/../../../../pic32mx/lib/fpu64\libc.a(strtok.o)
 .data          0x0000000000000000        0x0 y:/program files/microchip/xc32/v3.01/bin/bin/../../lib/gcc/pic32mx/8.3.1/../../../../pic32mx/lib/fpu64\libc.a(strtok.o)
 .reginfo       0x0000000000000000       0x18 y:/program files/microchip/xc32/v3.01/bin/bin/../../lib/gcc/pic32mx/8.3.1/../../../../pic32mx/lib/fpu64\libc.a(strtok.o)
 .MIPS.abiflags
                0x0000000000000000       0x18 y:/program files/microchip/xc32/v3.01/bin/bin/../../lib/gcc/pic32mx/8.3.1/../../../../pic32mx/lib/fpu64\libc.a(strtok.o)
 .xc_stack_usage
                0x0000000000000000       0x14 y:/program files/microchip/xc32/v3.01/bin/bin/../../lib/gcc/pic32mx/8.3.1/../../../../pic32mx/lib/fpu64\libc.a(strtok.o)
 .xc_stack_usage.hdr
                0x0000000000000000        0xe y:/program files/microchip/xc32/v3.01/bin/bin/../../lib/gcc/pic32mx/8.3.1/../../../../pic32mx/lib/fpu64\libc.a(strtok.o)
 .text          0x0000000000000000        0x0 y:/program files/microchip/xc32/v3.01/bin/bin/../../lib/gcc/pic32mx/8.3.1/../../../../pic32mx/lib/fpu64\libc.a(strtol.o)
 .data          0x0000000000000000        0x0 y:/program files/microchip/xc32/v3.01/bin/bin/../../lib/gcc/pic32mx/8.3.1/../../../../pic32mx/lib/fpu64\libc.a(strtol.o)
 .bss           0x0000000000000000        0x0 y:/program files/microchip/xc32/v3.01/bin/bin/../../lib/gcc/pic32mx/8.3.1/../../../../pic32mx/lib/fpu64\libc.a(strtol.o)
 .reginfo       0x0000000000000000       0x18 y:/program files/microchip/xc32/v3.01/bin/bin/../../lib/gcc/pic32mx/8.3.1/../../../../pic32mx/lib/fpu64\libc.a(strtol.o)
 .MIPS.abiflags
                0x0000000000000000       0x18 y:/program files/microchip/xc32/v3.01/bin/bin/../../lib/gcc/pic32mx/8.3.1/../../../../pic32mx/lib/fpu64\libc.a(strtol.o)
 .xc_stack_usage
                0x0000000000000000       0x29 y:/program files/microchip/xc32/v3.01/bin/bin/../../lib/gcc/pic32mx/8.3.1/../../../../pic32mx/lib/fpu64\libc.a(strtol.o)
 .text.strtoul  0x0000000000000000      0x1d8 y:/program files/microchip/xc32/v3.01/bin/bin/../../lib/gcc/pic32mx/8.3.1/../../../../pic32mx/lib/fpu64\libc.a(strtol.o)
 .text.strtol   0x0000000000000000      0x138 y:/program files/microchip/xc32/v3.01/bin/bin/../../lib/gcc/pic32mx/8.3.1/../../../../pic32mx/lib/fpu64\libc.a(strtol.o)
 .xc_stack_usage.hdr
                0x0000000000000000        0xe y:/program files/microchip/xc32/v3.01/bin/bin/../../lib/gcc/pic32mx/8.3.1/../../../../pic32mx/lib/fpu64\libc.a(strtol.o)
 .text          0x0000000000000000        0x0 y:/program files/microchip/xc32/v3.01/bin/bin/../../lib/gcc/pic32mx/8.3.1/../../../../pic32mx/lib/fpu64\libc.a(snprintf_cdnopsuxX.eo)
 .data          0x0000000000000000        0x0 y:/program files/microchip/xc32/v3.01/bin/bin/../../lib/gcc/pic32mx/8.3.1/../../../../pic32mx/lib/fpu64\libc.a(snprintf_cdnopsuxX.eo)
 .bss           0x0000000000000000        0x0 y:/program files/microchip/xc32/v3.01/bin/bin/../../lib/gcc/pic32mx/8.3.1/../../../../pic32mx/lib/fpu64\libc.a(snprintf_cdnopsuxX.eo)
 .reginfo       0x0000000000000000       0x18 y:/program files/microchip/xc32/v3.01/bin/bin/../../lib/gcc/pic32mx/8.3.1/../../../../pic32mx/lib/fpu64\libc.a(snprintf_cdnopsuxX.eo)
 .MIPS.abiflags
                0x0000000000000000       0x18 y:/program files/microchip/xc32/v3.01/bin/bin/../../lib/gcc/pic32mx/8.3.1/../../../../pic32mx/lib/fpu64\libc.a(snprintf_cdnopsuxX.eo)
 .xc_stack_usage
                0x0000000000000000       0x21 y:/program files/microchip/xc32/v3.01/bin/bin/../../lib/gcc/pic32mx/8.3.1/../../../../pic32mx/lib/fpu64\libc.a(snprintf_cdnopsuxX.eo)
 .xc_stack_usage.hdr
                0x0000000000000000        0xe y:/program files/microchip/xc32/v3.01/bin/bin/../../lib/gcc/pic32mx/8.3.1/../../../../pic32mx/lib/fpu64\libc.a(snprintf_cdnopsuxX.eo)
 .text          0x0000000000000000        0x0 y:/program files/microchip/xc32/v3.01/bin/bin/../../lib/gcc/pic32mx/8.3.1/../../../../pic32mx/lib/fpu64\libc.a(sprintf_cdnopsuxX.eo)
 .data          0x0000000000000000        0x0 y:/program files/microchip/xc32/v3.01/bin/bin/../../lib/gcc/pic32mx/8.3.1/../../../../pic32mx/lib/fpu64\libc.a(sprintf_cdnopsuxX.eo)
 .bss           0x0000000000000000        0x0 y:/program files/microchip/xc32/v3.01/bin/bin/../../lib/gcc/pic32mx/8.3.1/../../../../pic32mx/lib/fpu64\libc.a(sprintf_cdnopsuxX.eo)
 .reginfo       0x0000000000000000       0x18 y:/program files/microchip/xc32/v3.01/bin/bin/../../lib/gcc/pic32mx/8.3.1/../../../../pic32mx/lib/fpu64\libc.a(sprintf_cdnopsuxX.eo)
 .MIPS.abiflags
                0x0000000000000000       0x18 y:/program files/microchip/xc32/v3.01/bin/bin/../../lib/gcc/pic32mx/8.3.1/../../../../pic32mx/lib/fpu64\libc.a(sprintf_cdnopsuxX.eo)
 .xc_stack_usage
                0x0000000000000000       0x20 y:/program files/microchip/xc32/v3.01/bin/bin/../../lib/gcc/pic32mx/8.3.1/../../../../pic32mx/lib/fpu64\libc.a(sprintf_cdnopsuxX.eo)
 .xc_stack_usage.hdr
                0x0000000000000000        0xe y:/program files/microchip/xc32/v3.01/bin/bin/../../lib/gcc/pic32mx/8.3.1/../../../../pic32mx/lib/fpu64\libc.a(sprintf_cdnopsuxX.eo)
 .text          0x0000000000000000        0x0 y:/program files/microchip/xc32/v3.01/bin/bin/../../lib/gcc/pic32mx/8.3.1/../../../../pic32mx/lib/fpu64\libc.a(sprintf_cdnopuxX.eo)
 .data          0x0000000000000000        0x0 y:/program files/microchip/xc32/v3.01/bin/bin/../../lib/gcc/pic32mx/8.3.1/../../../../pic32mx/lib/fpu64\libc.a(sprintf_cdnopuxX.eo)
 .bss           0x0000000000000000        0x0 y:/program files/microchip/xc32/v3.01/bin/bin/../../lib/gcc/pic32mx/8.3.1/../../../../pic32mx/lib/fpu64\libc.a(sprintf_cdnopuxX.eo)
 .reginfo       0x0000000000000000       0x18 y:/program files/microchip/xc32/v3.01/bin/bin/../../lib/gcc/pic32mx/8.3.1/../../../../pic32mx/lib/fpu64\libc.a(sprintf_cdnopuxX.eo)
 .MIPS.abiflags
                0x0000000000000000       0x18 y:/program files/microchip/xc32/v3.01/bin/bin/../../lib/gcc/pic32mx/8.3.1/../../../../pic32mx/lib/fpu64\libc.a(sprintf_cdnopuxX.eo)
 .xc_stack_usage
                0x0000000000000000       0x1f y:/program files/microchip/xc32/v3.01/bin/bin/../../lib/gcc/pic32mx/8.3.1/../../../../pic32mx/lib/fpu64\libc.a(sprintf_cdnopuxX.eo)
 .text._sprintf_cdnopuxX
                0x0000000000000000       0x64 y:/program files/microchip/xc32/v3.01/bin/bin/../../lib/gcc/pic32mx/8.3.1/../../../../pic32mx/lib/fpu64\libc.a(sprintf_cdnopuxX.eo)
 .xc_stack_usage.hdr
                0x0000000000000000        0xe y:/program files/microchip/xc32/v3.01/bin/bin/../../lib/gcc/pic32mx/8.3.1/../../../../pic32mx/lib/fpu64\libc.a(sprintf_cdnopuxX.eo)
 .text          0x0000000000000000        0x0 y:/program files/microchip/xc32/v3.01/bin/bin/../../lib/gcc/pic32mx/8.3.1/../../../../pic32mx/lib/fpu64\libc.a(vsnprintf_cdnopsuxX.eo)
 .data          0x0000000000000000        0x0 y:/program files/microchip/xc32/v3.01/bin/bin/../../lib/gcc/pic32mx/8.3.1/../../../../pic32mx/lib/fpu64\libc.a(vsnprintf_cdnopsuxX.eo)
 .bss           0x0000000000000000        0x0 y:/program files/microchip/xc32/v3.01/bin/bin/../../lib/gcc/pic32mx/8.3.1/../../../../pic32mx/lib/fpu64\libc.a(vsnprintf_cdnopsuxX.eo)
 .reginfo       0x0000000000000000       0x18 y:/program files/microchip/xc32/v3.01/bin/bin/../../lib/gcc/pic32mx/8.3.1/../../../../pic32mx/lib/fpu64\libc.a(vsnprintf_cdnopsuxX.eo)
 .MIPS.abiflags
                0x0000000000000000       0x18 y:/program files/microchip/xc32/v3.01/bin/bin/../../lib/gcc/pic32mx/8.3.1/../../../../pic32mx/lib/fpu64\libc.a(vsnprintf_cdnopsuxX.eo)
 .xc_stack_usage
                0x0000000000000000       0x22 y:/program files/microchip/xc32/v3.01/bin/bin/../../lib/gcc/pic32mx/8.3.1/../../../../pic32mx/lib/fpu64\libc.a(vsnprintf_cdnopsuxX.eo)
 .xc_stack_usage.hdr
                0x0000000000000000        0xe y:/program files/microchip/xc32/v3.01/bin/bin/../../lib/gcc/pic32mx/8.3.1/../../../../pic32mx/lib/fpu64\libc.a(vsnprintf_cdnopsuxX.eo)
 .text          0x0000000000000000        0x0 y:/program files/microchip/xc32/v3.01/bin/bin/../../lib/gcc/pic32mx/8.3.1/../../../../pic32mx/lib/fpu64\libc.a(vsnprintf.o)
 .data          0x0000000000000000        0x0 y:/program files/microchip/xc32/v3.01/bin/bin/../../lib/gcc/pic32mx/8.3.1/../../../../pic32mx/lib/fpu64\libc.a(vsnprintf.o)
 .bss           0x0000000000000000        0x0 y:/program files/microchip/xc32/v3.01/bin/bin/../../lib/gcc/pic32mx/8.3.1/../../../../pic32mx/lib/fpu64\libc.a(vsnprintf.o)
 .reginfo       0x0000000000000000       0x18 y:/program files/microchip/xc32/v3.01/bin/bin/../../lib/gcc/pic32mx/8.3.1/../../../../pic32mx/lib/fpu64\libc.a(vsnprintf.o)
 .MIPS.abiflags
                0x0000000000000000       0x18 y:/program files/microchip/xc32/v3.01/bin/bin/../../lib/gcc/pic32mx/8.3.1/../../../../pic32mx/lib/fpu64\libc.a(vsnprintf.o)
 .xc_stack_usage
                0x0000000000000000       0x17 y:/program files/microchip/xc32/v3.01/bin/bin/../../lib/gcc/pic32mx/8.3.1/../../../../pic32mx/lib/fpu64\libc.a(vsnprintf.o)
 .xc_stack_usage.hdr
                0x0000000000000000        0xe y:/program files/microchip/xc32/v3.01/bin/bin/../../lib/gcc/pic32mx/8.3.1/../../../../pic32mx/lib/fpu64\libc.a(vsnprintf.o)
 .text          0x0000000000000000        0x0 y:/program files/microchip/xc32/v3.01/bin/bin/../../lib/gcc/pic32mx/8.3.1/../../../../pic32mx/lib/fpu64\libc.a(errno.o)
 .data          0x0000000000000000        0x0 y:/program files/microchip/xc32/v3.01/bin/bin/../../lib/gcc/pic32mx/8.3.1/../../../../pic32mx/lib/fpu64\libc.a(errno.o)
 .bss           0x0000000000000000        0x0 y:/program files/microchip/xc32/v3.01/bin/bin/../../lib/gcc/pic32mx/8.3.1/../../../../pic32mx/lib/fpu64\libc.a(errno.o)
 .reginfo       0x0000000000000000       0x18 y:/program files/microchip/xc32/v3.01/bin/bin/../../lib/gcc/pic32mx/8.3.1/../../../../pic32mx/lib/fpu64\libc.a(errno.o)
 .MIPS.abiflags
                0x0000000000000000       0x18 y:/program files/microchip/xc32/v3.01/bin/bin/../../lib/gcc/pic32mx/8.3.1/../../../../pic32mx/lib/fpu64\libc.a(errno.o)
 .xc_stack_usage.hdr
                0x0000000000000000        0xe y:/program files/microchip/xc32/v3.01/bin/bin/../../lib/gcc/pic32mx/8.3.1/../../../../pic32mx/lib/fpu64\libc.a(errno.o)
 .text          0x0000000000000000        0x0 y:/program files/microchip/xc32/v3.01/bin/bin/../../lib/gcc/pic32mx/8.3.1/../../../../pic32mx/lib/fpu64\libc.a(strcspn.o)
 .data          0x0000000000000000        0x0 y:/program files/microchip/xc32/v3.01/bin/bin/../../lib/gcc/pic32mx/8.3.1/../../../../pic32mx/lib/fpu64\libc.a(strcspn.o)
 .bss           0x0000000000000000        0x0 y:/program files/microchip/xc32/v3.01/bin/bin/../../lib/gcc/pic32mx/8.3.1/../../../../pic32mx/lib/fpu64\libc.a(strcspn.o)
 .reginfo       0x0000000000000000       0x18 y:/program files/microchip/xc32/v3.01/bin/bin/../../lib/gcc/pic32mx/8.3.1/../../../../pic32mx/lib/fpu64\libc.a(strcspn.o)
 .MIPS.abiflags
                0x0000000000000000       0x18 y:/program files/microchip/xc32/v3.01/bin/bin/../../lib/gcc/pic32mx/8.3.1/../../../../pic32mx/lib/fpu64\libc.a(strcspn.o)
 .xc_stack_usage
                0x0000000000000000       0x15 y:/program files/microchip/xc32/v3.01/bin/bin/../../lib/gcc/pic32mx/8.3.1/../../../../pic32mx/lib/fpu64\libc.a(strcspn.o)
 .xc_stack_usage.hdr
                0x0000000000000000        0xe y:/program files/microchip/xc32/v3.01/bin/bin/../../lib/gcc/pic32mx/8.3.1/../../../../pic32mx/lib/fpu64\libc.a(strcspn.o)
 .text          0x0000000000000000        0x0 y:/program files/microchip/xc32/v3.01/bin/bin/../../lib/gcc/pic32mx/8.3.1/../../../../pic32mx/lib/fpu64\libc.a(strspn.o)
 .data          0x0000000000000000        0x0 y:/program files/microchip/xc32/v3.01/bin/bin/../../lib/gcc/pic32mx/8.3.1/../../../../pic32mx/lib/fpu64\libc.a(strspn.o)
 .bss           0x0000000000000000        0x0 y:/program files/microchip/xc32/v3.01/bin/bin/../../lib/gcc/pic32mx/8.3.1/../../../../pic32mx/lib/fpu64\libc.a(strspn.o)
 .reginfo       0x0000000000000000       0x18 y:/program files/microchip/xc32/v3.01/bin/bin/../../lib/gcc/pic32mx/8.3.1/../../../../pic32mx/lib/fpu64\libc.a(strspn.o)
 .MIPS.abiflags
                0x0000000000000000       0x18 y:/program files/microchip/xc32/v3.01/bin/bin/../../lib/gcc/pic32mx/8.3.1/../../../../pic32mx/lib/fpu64\libc.a(strspn.o)
 .xc_stack_usage
                0x0000000000000000       0x14 y:/program files/microchip/xc32/v3.01/bin/bin/../../lib/gcc/pic32mx/8.3.1/../../../../pic32mx/lib/fpu64\libc.a(strspn.o)
 .xc_stack_usage.hdr
                0x0000000000000000        0xe y:/program files/microchip/xc32/v3.01/bin/bin/../../lib/gcc/pic32mx/8.3.1/../../../../pic32mx/lib/fpu64\libc.a(strspn.o)
 .text          0x0000000000000000        0x0 y:/program files/microchip/xc32/v3.01/bin/bin/../../lib/gcc/pic32mx/8.3.1/../../../../pic32mx/lib/fpu64\libc.a(doprnt_cdnopsuxX.eo)
 .data          0x0000000000000000        0x0 y:/program files/microchip/xc32/v3.01/bin/bin/../../lib/gcc/pic32mx/8.3.1/../../../../pic32mx/lib/fpu64\libc.a(doprnt_cdnopsuxX.eo)
 .bss           0x0000000000000000        0x0 y:/program files/microchip/xc32/v3.01/bin/bin/../../lib/gcc/pic32mx/8.3.1/../../../../pic32mx/lib/fpu64\libc.a(doprnt_cdnopsuxX.eo)
 .reginfo       0x0000000000000000       0x18 y:/program files/microchip/xc32/v3.01/bin/bin/../../lib/gcc/pic32mx/8.3.1/../../../../pic32mx/lib/fpu64\libc.a(doprnt_cdnopsuxX.eo)
 .MIPS.abiflags
                0x0000000000000000       0x18 y:/program files/microchip/xc32/v3.01/bin/bin/../../lib/gcc/pic32mx/8.3.1/../../../../pic32mx/lib/fpu64\libc.a(doprnt_cdnopsuxX.eo)
 .xc_stack_usage
                0x0000000000000000       0x21 y:/program files/microchip/xc32/v3.01/bin/bin/../../lib/gcc/pic32mx/8.3.1/../../../../pic32mx/lib/fpu64\libc.a(doprnt_cdnopsuxX.eo)
 .xc_stack_usage.hdr
                0x0000000000000000        0xe y:/program files/microchip/xc32/v3.01/bin/bin/../../lib/gcc/pic32mx/8.3.1/../../../../pic32mx/lib/fpu64\libc.a(doprnt_cdnopsuxX.eo)
 .text          0x0000000000000000        0x0 y:/program files/microchip/xc32/v3.01/bin/bin/../../lib/gcc/pic32mx/8.3.1/../../../../pic32mx/lib/fpu64\libc.a(doprnt_cdnopuxX.eo)
 .data          0x0000000000000000        0x0 y:/program files/microchip/xc32/v3.01/bin/bin/../../lib/gcc/pic32mx/8.3.1/../../../../pic32mx/lib/fpu64\libc.a(doprnt_cdnopuxX.eo)
 .bss           0x0000000000000000        0x0 y:/program files/microchip/xc32/v3.01/bin/bin/../../lib/gcc/pic32mx/8.3.1/../../../../pic32mx/lib/fpu64\libc.a(doprnt_cdnopuxX.eo)
 .reginfo       0x0000000000000000       0x18 y:/program files/microchip/xc32/v3.01/bin/bin/../../lib/gcc/pic32mx/8.3.1/../../../../pic32mx/lib/fpu64\libc.a(doprnt_cdnopuxX.eo)
 .MIPS.abiflags
                0x0000000000000000       0x18 y:/program files/microchip/xc32/v3.01/bin/bin/../../lib/gcc/pic32mx/8.3.1/../../../../pic32mx/lib/fpu64\libc.a(doprnt_cdnopuxX.eo)
 .rodata.str1.4
                0x0000000000000000       0x30 y:/program files/microchip/xc32/v3.01/bin/bin/../../lib/gcc/pic32mx/8.3.1/../../../../pic32mx/lib/fpu64\libc.a(doprnt_cdnopuxX.eo)
 .xc_stack_usage
                0x0000000000000000       0x20 y:/program files/microchip/xc32/v3.01/bin/bin/../../lib/gcc/pic32mx/8.3.1/../../../../pic32mx/lib/fpu64\libc.a(doprnt_cdnopuxX.eo)
 .text._vfprintf_cdnopuxX
                0x0000000000000000      0x8cc y:/program files/microchip/xc32/v3.01/bin/bin/../../lib/gcc/pic32mx/8.3.1/../../../../pic32mx/lib/fpu64\libc.a(doprnt_cdnopuxX.eo)
 .rodata        0x0000000000000000       0xa0 y:/program files/microchip/xc32/v3.01/bin/bin/../../lib/gcc/pic32mx/8.3.1/../../../../pic32mx/lib/fpu64\libc.a(doprnt_cdnopuxX.eo)
 .xc_stack_usage.hdr
                0x0000000000000000        0xe y:/program files/microchip/xc32/v3.01/bin/bin/../../lib/gcc/pic32mx/8.3.1/../../../../pic32mx/lib/fpu64\libc.a(doprnt_cdnopuxX.eo)
 .text          0x0000000000000000        0x0 y:/program files/microchip/xc32/v3.01/bin/bin/../../lib/gcc/pic32mx/8.3.1/../../../../pic32mx/lib/fpu64\libc.a(doprnt.o)
 .data          0x0000000000000000        0x0 y:/program files/microchip/xc32/v3.01/bin/bin/../../lib/gcc/pic32mx/8.3.1/../../../../pic32mx/lib/fpu64\libc.a(doprnt.o)
 .bss           0x0000000000000000        0x0 y:/program files/microchip/xc32/v3.01/bin/bin/../../lib/gcc/pic32mx/8.3.1/../../../../pic32mx/lib/fpu64\libc.a(doprnt.o)
 .reginfo       0x0000000000000000       0x18 y:/program files/microchip/xc32/v3.01/bin/bin/../../lib/gcc/pic32mx/8.3.1/../../../../pic32mx/lib/fpu64\libc.a(doprnt.o)
 .MIPS.abiflags
                0x0000000000000000       0x18 y:/program files/microchip/xc32/v3.01/bin/bin/../../lib/gcc/pic32mx/8.3.1/../../../../pic32mx/lib/fpu64\libc.a(doprnt.o)
 .xc_stack_usage
                0x0000000000000000       0x3d y:/program files/microchip/xc32/v3.01/bin/bin/../../lib/gcc/pic32mx/8.3.1/../../../../pic32mx/lib/fpu64\libc.a(doprnt.o)
 .xc_stack_usage.hdr
                0x0000000000000000        0xe y:/program files/microchip/xc32/v3.01/bin/bin/../../lib/gcc/pic32mx/8.3.1/../../../../pic32mx/lib/fpu64\libc.a(doprnt.o)
 .text          0x0000000000000000        0x0 y:/program files/microchip/xc32/v3.01/bin/bin/../../lib/gcc/pic32mx/8.3.1/../../../../pic32mx/lib/fpu64\libc.a(_fputc_simple.o)
 .data          0x0000000000000000        0x0 y:/program files/microchip/xc32/v3.01/bin/bin/../../lib/gcc/pic32mx/8.3.1/../../../../pic32mx/lib/fpu64\libc.a(_fputc_simple.o)
 .bss           0x0000000000000000        0x0 y:/program files/microchip/xc32/v3.01/bin/bin/../../lib/gcc/pic32mx/8.3.1/../../../../pic32mx/lib/fpu64\libc.a(_fputc_simple.o)
 .reginfo       0x0000000000000000       0x18 y:/program files/microchip/xc32/v3.01/bin/bin/../../lib/gcc/pic32mx/8.3.1/../../../../pic32mx/lib/fpu64\libc.a(_fputc_simple.o)
 .MIPS.abiflags
                0x0000000000000000       0x18 y:/program files/microchip/xc32/v3.01/bin/bin/../../lib/gcc/pic32mx/8.3.1/../../../../pic32mx/lib/fpu64\libc.a(_fputc_simple.o)
 .xc_stack_usage
                0x0000000000000000       0x13 y:/program files/microchip/xc32/v3.01/bin/bin/../../lib/gcc/pic32mx/8.3.1/../../../../pic32mx/lib/fpu64\libc.a(_fputc_simple.o)
 .xc_stack_usage.hdr
                0x0000000000000000        0xe y:/program files/microchip/xc32/v3.01/bin/bin/../../lib/gcc/pic32mx/8.3.1/../../../../pic32mx/lib/fpu64\libc.a(_fputc_simple.o)
 .text          0x0000000000000000        0x0 y:/program files/microchip/xc32/v3.01/bin/bin/../../lib/gcc/pic32mx/8.3.1/../../../../pic32mx/lib/fpu64\libc.a(ldpowers.o)
 .data          0x0000000000000000        0x0 y:/program files/microchip/xc32/v3.01/bin/bin/../../lib/gcc/pic32mx/8.3.1/../../../../pic32mx/lib/fpu64\libc.a(ldpowers.o)
 .bss           0x0000000000000000        0x0 y:/program files/microchip/xc32/v3.01/bin/bin/../../lib/gcc/pic32mx/8.3.1/../../../../pic32mx/lib/fpu64\libc.a(ldpowers.o)
 .reginfo       0x0000000000000000       0x18 y:/program files/microchip/xc32/v3.01/bin/bin/../../lib/gcc/pic32mx/8.3.1/../../../../pic32mx/lib/fpu64\libc.a(ldpowers.o)
 .MIPS.abiflags
                0x0000000000000000       0x18 y:/program files/microchip/xc32/v3.01/bin/bin/../../lib/gcc/pic32mx/8.3.1/../../../../pic32mx/lib/fpu64\libc.a(ldpowers.o)
 .xc_stack_usage.hdr
                0x0000000000000000        0xe y:/program files/microchip/xc32/v3.01/bin/bin/../../lib/gcc/pic32mx/8.3.1/../../../../pic32mx/lib/fpu64\libc.a(ldpowers.o)
 .text          0x0000000000000000        0x0 y:/program files/microchip/xc32/v3.01/bin/bin/../../lib/gcc/pic32mx/8.3.1/../../../../pic32mx/lib/fpu64\libc.a(_iob.o)
 .data          0x0000000000000000       0xa4 y:/program files/microchip/xc32/v3.01/bin/bin/../../lib/gcc/pic32mx/8.3.1/../../../../pic32mx/lib/fpu64\libc.a(_iob.o)
 .reginfo       0x0000000000000000       0x18 y:/program files/microchip/xc32/v3.01/bin/bin/../../lib/gcc/pic32mx/8.3.1/../../../../pic32mx/lib/fpu64\libc.a(_iob.o)
 .MIPS.abiflags
                0x0000000000000000       0x18 y:/program files/microchip/xc32/v3.01/bin/bin/../../lib/gcc/pic32mx/8.3.1/../../../../pic32mx/lib/fpu64\libc.a(_iob.o)
 .xc_stack_usage.hdr
                0x0000000000000000        0xe y:/program files/microchip/xc32/v3.01/bin/bin/../../lib/gcc/pic32mx/8.3.1/../../../../pic32mx/lib/fpu64\libc.a(_iob.o)
 .text          0x0000000000000000        0x0 y:/program files/microchip/xc32/v3.01/bin/bin/../../lib/gcc/pic32mx/8.3.1/../../../../pic32mx/lib/fpu64\libc.a(_flsbuf_simple.o)
 .data          0x0000000000000000        0x0 y:/program files/microchip/xc32/v3.01/bin/bin/../../lib/gcc/pic32mx/8.3.1/../../../../pic32mx/lib/fpu64\libc.a(_flsbuf_simple.o)
 .bss           0x0000000000000000        0x0 y:/program files/microchip/xc32/v3.01/bin/bin/../../lib/gcc/pic32mx/8.3.1/../../../../pic32mx/lib/fpu64\libc.a(_flsbuf_simple.o)
 .reginfo       0x0000000000000000       0x18 y:/program files/microchip/xc32/v3.01/bin/bin/../../lib/gcc/pic32mx/8.3.1/../../../../pic32mx/lib/fpu64\libc.a(_flsbuf_simple.o)
 .MIPS.abiflags
                0x0000000000000000       0x18 y:/program files/microchip/xc32/v3.01/bin/bin/../../lib/gcc/pic32mx/8.3.1/../../../../pic32mx/lib/fpu64\libc.a(_flsbuf_simple.o)
 .xc_stack_usage
                0x0000000000000000       0x15 y:/program files/microchip/xc32/v3.01/bin/bin/../../lib/gcc/pic32mx/8.3.1/../../../../pic32mx/lib/fpu64\libc.a(_flsbuf_simple.o)
 .xc_stack_usage.hdr
                0x0000000000000000        0xe y:/program files/microchip/xc32/v3.01/bin/bin/../../lib/gcc/pic32mx/8.3.1/../../../../pic32mx/lib/fpu64\libc.a(_flsbuf_simple.o)
 .text          0x0000000000000000        0x0 y:/program files/microchip/xc32/v3.01/bin/bin/../../lib/gcc/pic32mx/8.3.1/../../../../pic32mx/lib/fpu64\libmfd.a(s_frexp.o)
 .data          0x0000000000000000        0x0 y:/program files/microchip/xc32/v3.01/bin/bin/../../lib/gcc/pic32mx/8.3.1/../../../../pic32mx/lib/fpu64\libmfd.a(s_frexp.o)
 .bss           0x0000000000000000        0x0 y:/program files/microchip/xc32/v3.01/bin/bin/../../lib/gcc/pic32mx/8.3.1/../../../../pic32mx/lib/fpu64\libmfd.a(s_frexp.o)
 .reginfo       0x0000000000000000       0x18 y:/program files/microchip/xc32/v3.01/bin/bin/../../lib/gcc/pic32mx/8.3.1/../../../../pic32mx/lib/fpu64\libmfd.a(s_frexp.o)
 .MIPS.abiflags
                0x0000000000000000       0x18 y:/program files/microchip/xc32/v3.01/bin/bin/../../lib/gcc/pic32mx/8.3.1/../../../../pic32mx/lib/fpu64\libmfd.a(s_frexp.o)
 .xc_stack_usage
                0x0000000000000000       0x15 y:/program files/microchip/xc32/v3.01/bin/bin/../../lib/gcc/pic32mx/8.3.1/../../../../pic32mx/lib/fpu64\libmfd.a(s_frexp.o)
 .xc_stack_usage.hdr
                0x0000000000000000        0xe y:/program files/microchip/xc32/v3.01/bin/bin/../../lib/gcc/pic32mx/8.3.1/../../../../pic32mx/lib/fpu64\libmfd.a(s_frexp.o)
 .data          0x0000000000000000        0x0 y:/program files/microchip/xc32/v3.01/bin/bin/../../lib/gcc/pic32mx/8.3.1/fpu64\libgcc.a(_lshrdi3.o)
 .bss           0x0000000000000000        0x0 y:/program files/microchip/xc32/v3.01/bin/bin/../../lib/gcc/pic32mx/8.3.1/fpu64\libgcc.a(_lshrdi3.o)
 .reginfo       0x0000000000000000       0x18 y:/program files/microchip/xc32/v3.01/bin/bin/../../lib/gcc/pic32mx/8.3.1/fpu64\libgcc.a(_lshrdi3.o)
 .MIPS.abiflags
                0x0000000000000000       0x18 y:/program files/microchip/xc32/v3.01/bin/bin/../../lib/gcc/pic32mx/8.3.1/fpu64\libgcc.a(_lshrdi3.o)
 .xc_stack_usage
                0x0000000000000000       0x17 y:/program files/microchip/xc32/v3.01/bin/bin/../../lib/gcc/pic32mx/8.3.1/fpu64\libgcc.a(_lshrdi3.o)
 .xc_stack_usage.hdr
                0x0000000000000000        0xe y:/program files/microchip/xc32/v3.01/bin/bin/../../lib/gcc/pic32mx/8.3.1/fpu64\libgcc.a(_lshrdi3.o)
 .data          0x0000000000000000        0x0 y:/program files/microchip/xc32/v3.01/bin/bin/../../lib/gcc/pic32mx/8.3.1/fpu64\libgcc.a(_cmpdi2.o)
 .bss           0x0000000000000000        0x0 y:/program files/microchip/xc32/v3.01/bin/bin/../../lib/gcc/pic32mx/8.3.1/fpu64\libgcc.a(_cmpdi2.o)
 .reginfo       0x0000000000000000       0x18 y:/program files/microchip/xc32/v3.01/bin/bin/../../lib/gcc/pic32mx/8.3.1/fpu64\libgcc.a(_cmpdi2.o)
 .MIPS.abiflags
                0x0000000000000000       0x18 y:/program files/microchip/xc32/v3.01/bin/bin/../../lib/gcc/pic32mx/8.3.1/fpu64\libgcc.a(_cmpdi2.o)
 .xc_stack_usage
                0x0000000000000000       0x16 y:/program files/microchip/xc32/v3.01/bin/bin/../../lib/gcc/pic32mx/8.3.1/fpu64\libgcc.a(_cmpdi2.o)
 .xc_stack_usage.hdr
                0x0000000000000000        0xe y:/program files/microchip/xc32/v3.01/bin/bin/../../lib/gcc/pic32mx/8.3.1/fpu64\libgcc.a(_cmpdi2.o)
 .text          0x0000000000000000      0x440 y:/program files/microchip/xc32/v3.01/bin/bin/../../lib/gcc/pic32mx/8.3.1/fpu64\libgcc.a(_divdi3.o)
 .data          0x0000000000000000        0x0 y:/program files/microchip/xc32/v3.01/bin/bin/../../lib/gcc/pic32mx/8.3.1/fpu64\libgcc.a(_divdi3.o)
 .bss           0x0000000000000000        0x0 y:/program files/microchip/xc32/v3.01/bin/bin/../../lib/gcc/pic32mx/8.3.1/fpu64\libgcc.a(_divdi3.o)
 .reginfo       0x0000000000000000       0x18 y:/program files/microchip/xc32/v3.01/bin/bin/../../lib/gcc/pic32mx/8.3.1/fpu64\libgcc.a(_divdi3.o)
 .MIPS.abiflags
                0x0000000000000000       0x18 y:/program files/microchip/xc32/v3.01/bin/bin/../../lib/gcc/pic32mx/8.3.1/fpu64\libgcc.a(_divdi3.o)
 .xc_stack_usage
                0x0000000000000000       0x16 y:/program files/microchip/xc32/v3.01/bin/bin/../../lib/gcc/pic32mx/8.3.1/fpu64\libgcc.a(_divdi3.o)
 .xc_stack_usage.hdr
                0x0000000000000000        0xe y:/program files/microchip/xc32/v3.01/bin/bin/../../lib/gcc/pic32mx/8.3.1/fpu64\libgcc.a(_divdi3.o)
 .text          0x0000000000000000      0x448 y:/program files/microchip/xc32/v3.01/bin/bin/../../lib/gcc/pic32mx/8.3.1/fpu64\libgcc.a(_moddi3.o)
 .data          0x0000000000000000        0x0 y:/program files/microchip/xc32/v3.01/bin/bin/../../lib/gcc/pic32mx/8.3.1/fpu64\libgcc.a(_moddi3.o)
 .bss           0x0000000000000000        0x0 y:/program files/microchip/xc32/v3.01/bin/bin/../../lib/gcc/pic32mx/8.3.1/fpu64\libgcc.a(_moddi3.o)
 .reginfo       0x0000000000000000       0x18 y:/program files/microchip/xc32/v3.01/bin/bin/../../lib/gcc/pic32mx/8.3.1/fpu64\libgcc.a(_moddi3.o)
 .MIPS.abiflags
                0x0000000000000000       0x18 y:/program files/microchip/xc32/v3.01/bin/bin/../../lib/gcc/pic32mx/8.3.1/fpu64\libgcc.a(_moddi3.o)
 .xc_stack_usage
                0x0000000000000000       0x16 y:/program files/microchip/xc32/v3.01/bin/bin/../../lib/gcc/pic32mx/8.3.1/fpu64\libgcc.a(_moddi3.o)
 .xc_stack_usage.hdr
                0x0000000000000000        0xe y:/program files/microchip/xc32/v3.01/bin/bin/../../lib/gcc/pic32mx/8.3.1/fpu64\libgcc.a(_moddi3.o)
 .data          0x0000000000000000        0x0 y:/program files/microchip/xc32/v3.01/bin/bin/../../lib/gcc/pic32mx/8.3.1/fpu64\libgcc.a(_umoddi3.o)
 .bss           0x0000000000000000        0x0 y:/program files/microchip/xc32/v3.01/bin/bin/../../lib/gcc/pic32mx/8.3.1/fpu64\libgcc.a(_umoddi3.o)
 .reginfo       0x0000000000000000       0x18 y:/program files/microchip/xc32/v3.01/bin/bin/../../lib/gcc/pic32mx/8.3.1/fpu64\libgcc.a(_umoddi3.o)
 .MIPS.abiflags
                0x0000000000000000       0x18 y:/program files/microchip/xc32/v3.01/bin/bin/../../lib/gcc/pic32mx/8.3.1/fpu64\libgcc.a(_umoddi3.o)
 .xc_stack_usage
                0x0000000000000000       0x17 y:/program files/microchip/xc32/v3.01/bin/bin/../../lib/gcc/pic32mx/8.3.1/fpu64\libgcc.a(_umoddi3.o)
 .xc_stack_usage.hdr
                0x0000000000000000        0xe y:/program files/microchip/xc32/v3.01/bin/bin/../../lib/gcc/pic32mx/8.3.1/fpu64\libgcc.a(_umoddi3.o)
 .text          0x0000000000000000        0x0 y:/program files/microchip/xc32/v3.01/bin/bin/../../lib/gcc/pic32mx/8.3.1/../../../../pic32mx/lib/fpu64\libpic32.a(sbrk.o)
 .data          0x0000000000000000        0x0 y:/program files/microchip/xc32/v3.01/bin/bin/../../lib/gcc/pic32mx/8.3.1/../../../../pic32mx/lib/fpu64\libpic32.a(sbrk.o)
 .reginfo       0x0000000000000000       0x18 y:/program files/microchip/xc32/v3.01/bin/bin/../../lib/gcc/pic32mx/8.3.1/../../../../pic32mx/lib/fpu64\libpic32.a(sbrk.o)
 .MIPS.abiflags
                0x0000000000000000       0x18 y:/program files/microchip/xc32/v3.01/bin/bin/../../lib/gcc/pic32mx/8.3.1/../../../../pic32mx/lib/fpu64\libpic32.a(sbrk.o)
 .xc_stack_usage
                0x0000000000000000       0x77 y:/program files/microchip/xc32/v3.01/bin/bin/../../lib/gcc/pic32mx/8.3.1/../../../../pic32mx/lib/fpu64\libpic32.a(sbrk.o)
 .text.getpagesize
                0x0000000000000000        0x8 y:/program files/microchip/xc32/v3.01/bin/bin/../../lib/gcc/pic32mx/8.3.1/../../../../pic32mx/lib/fpu64\libpic32.a(sbrk.o)
 .xc_stack_usage.hdr
                0x0000000000000000        0xe y:/program files/microchip/xc32/v3.01/bin/bin/../../lib/gcc/pic32mx/8.3.1/../../../../pic32mx/lib/fpu64\libpic32.a(sbrk.o)
 .text          0x0000000000000000        0x0 y:/program files/microchip/xc32/v3.01/bin/bin/../../lib/gcc/pic32mx/8.3.1/../../../../pic32mx/lib/fpu64\libpic32.a(write.o)
 .data          0x0000000000000000        0x0 y:/program files/microchip/xc32/v3.01/bin/bin/../../lib/gcc/pic32mx/8.3.1/../../../../pic32mx/lib/fpu64\libpic32.a(write.o)
 .bss           0x0000000000000000        0x0 y:/program files/microchip/xc32/v3.01/bin/bin/../../lib/gcc/pic32mx/8.3.1/../../../../pic32mx/lib/fpu64\libpic32.a(write.o)
 .reginfo       0x0000000000000000       0x18 y:/program files/microchip/xc32/v3.01/bin/bin/../../lib/gcc/pic32mx/8.3.1/../../../../pic32mx/lib/fpu64\libpic32.a(write.o)
 .MIPS.abiflags
                0x0000000000000000       0x18 y:/program files/microchip/xc32/v3.01/bin/bin/../../lib/gcc/pic32mx/8.3.1/../../../../pic32mx/lib/fpu64\libpic32.a(write.o)
 .xc_stack_usage
                0x0000000000000000       0x13 y:/program files/microchip/xc32/v3.01/bin/bin/../../lib/gcc/pic32mx/8.3.1/../../../../pic32mx/lib/fpu64\libpic32.a(write.o)
 .xc_stack_usage.hdr
                0x0000000000000000        0xe y:/program files/microchip/xc32/v3.01/bin/bin/../../lib/gcc/pic32mx/8.3.1/../../../../pic32mx/lib/fpu64\libpic32.a(write.o)

Memory Configuration

Name             Origin             Length             Attributes
kseg0_program_mem 0x000000009d000000 0x0000000000200000 xr
kseg0_boot_mem   0x000000009fc004b0 0x0000000000000000
kseg1_boot_mem   0x00000000bfc00000 0x0000000000000480
kseg1_boot_mem_4B0 0x00000000bfc004b0 0x000000000000fa50
config_BFC0FF40  0x00000000bfc0ff40 0x0000000000000004
config_BFC0FF44  0x00000000bfc0ff44 0x0000000000000004
config_BFC0FF48  0x00000000bfc0ff48 0x0000000000000004
config_BFC0FF4C  0x00000000bfc0ff4c 0x0000000000000004
config_BFC0FF50  0x00000000bfc0ff50 0x0000000000000004
config_BFC0FF54  0x00000000bfc0ff54 0x0000000000000004
config_BFC0FF58  0x00000000bfc0ff58 0x0000000000000004
config_BFC0FF5C  0x00000000bfc0ff5c 0x0000000000000004
config_BFC0FF60  0x00000000bfc0ff60 0x0000000000000004
config_BFC0FF64  0x00000000bfc0ff64 0x0000000000000004
config_BFC0FF68  0x00000000bfc0ff68 0x0000000000000004
config_BFC0FF6C  0x00000000bfc0ff6c 0x0000000000000004
config_BFC0FF70  0x00000000bfc0ff70 0x0000000000000004
config_BFC0FF74  0x00000000bfc0ff74 0x0000000000000004
config_BFC0FF78  0x00000000bfc0ff78 0x0000000000000004
config_BFC0FF7C  0x00000000bfc0ff7c 0x0000000000000004
config_BFC0FFC0  0x00000000bfc0ffc0 0x0000000000000004
config_BFC0FFC4  0x00000000bfc0ffc4 0x0000000000000004
config_BFC0FFC8  0x00000000bfc0ffc8 0x0000000000000004
config_BFC0FFCC  0x00000000bfc0ffcc 0x0000000000000004
config_BFC0FFD0  0x00000000bfc0ffd0 0x0000000000000004
config_BFC0FFD4  0x00000000bfc0ffd4 0x0000000000000004
config_BFC0FFD8  0x00000000bfc0ffd8 0x0000000000000004
config_BFC0FFDC  0x00000000bfc0ffdc 0x0000000000000004
config_BFC0FFE0  0x00000000bfc0ffe0 0x0000000000000004
config_BFC0FFE4  0x00000000bfc0ffe4 0x0000000000000004
config_BFC0FFE8  0x00000000bfc0ffe8 0x0000000000000004
config_BFC0FFEC  0x00000000bfc0ffec 0x0000000000000004
config_BFC0FFF0  0x00000000bfc0fff0 0x0000000000000004
config_BFC0FFF4  0x00000000bfc0fff4 0x0000000000000004
config_BFC0FFF8  0x00000000bfc0fff8 0x0000000000000004
config_BFC0FFFC  0x00000000bfc0fffc 0x0000000000000004
lowerbootaliaslastpage 0x00000000bfc10000 0x0000000000004000
upperbootalias   0x00000000bfc20000 0x000000000000ff00
config_BFC2FF40  0x00000000bfc2ff40 0x0000000000000004
config_BFC2FF44  0x00000000bfc2ff44 0x0000000000000004
config_BFC2FF48  0x00000000bfc2ff48 0x0000000000000004
config_BFC2FF4C  0x00000000bfc2ff4c 0x0000000000000004
config_BFC2FF50  0x00000000bfc2ff50 0x0000000000000004
config_BFC2FF54  0x00000000bfc2ff54 0x0000000000000004
config_BFC2FF58  0x00000000bfc2ff58 0x0000000000000004
config_BFC2FF5C  0x00000000bfc2ff5c 0x0000000000000004
config_BFC2FF60  0x00000000bfc2ff60 0x0000000000000004
config_BFC2FF64  0x00000000bfc2ff64 0x0000000000000004
config_BFC2FF68  0x00000000bfc2ff68 0x0000000000000004
config_BFC2FF6C  0x00000000bfc2ff6c 0x0000000000000004
config_BFC2FF70  0x00000000bfc2ff70 0x0000000000000004
config_BFC2FF74  0x00000000bfc2ff74 0x0000000000000004
config_BFC2FF78  0x00000000bfc2ff78 0x0000000000000004
config_BFC2FF7C  0x00000000bfc2ff7c 0x0000000000000004
config_BFC2FFC0  0x00000000bfc2ffc0 0x0000000000000004
config_BFC2FFC4  0x00000000bfc2ffc4 0x0000000000000004
config_BFC2FFC8  0x00000000bfc2ffc8 0x0000000000000004
config_BFC2FFCC  0x00000000bfc2ffcc 0x0000000000000004
config_BFC2FFD0  0x00000000bfc2ffd0 0x0000000000000004
config_BFC2FFD4  0x00000000bfc2ffd4 0x0000000000000004
config_BFC2FFD8  0x00000000bfc2ffd8 0x0000000000000004
config_BFC2FFDC  0x00000000bfc2ffdc 0x0000000000000004
config_BFC2FFE0  0x00000000bfc2ffe0 0x0000000000000004
config_BFC2FFE4  0x00000000bfc2ffe4 0x0000000000000004
config_BFC2FFE8  0x00000000bfc2ffe8 0x0000000000000004
config_BFC2FFEC  0x00000000bfc2ffec 0x0000000000000004
config_BFC2FFF0  0x00000000bfc2fff0 0x0000000000000004
config_BFC2FFF4  0x00000000bfc2fff4 0x0000000000000004
config_BFC2FFF8  0x00000000bfc2fff8 0x0000000000000004
config_BFC2FFFC  0x00000000bfc2fffc 0x0000000000000004
upperbootaliaslastpage 0x00000000bfc30000 0x0000000000004000
boot1            0x00000000bfc40000 0x000000000000ff00
config_BFC4FF40  0x00000000bfc4ff40 0x0000000000000004
config_BFC4FF44  0x00000000bfc4ff44 0x0000000000000004
config_BFC4FF48  0x00000000bfc4ff48 0x0000000000000004
config_BFC4FF4C  0x00000000bfc4ff4c 0x0000000000000004
config_BFC4FF50  0x00000000bfc4ff50 0x0000000000000004
config_BFC4FF54  0x00000000bfc4ff54 0x0000000000000004
config_BFC4FF58  0x00000000bfc4ff58 0x0000000000000004
config_BFC4FF5C  0x00000000bfc4ff5c 0x0000000000000004
config_BFC4FF60  0x00000000bfc4ff60 0x0000000000000004
config_BFC4FF64  0x00000000bfc4ff64 0x0000000000000004
config_BFC4FF68  0x00000000bfc4ff68 0x0000000000000004
config_BFC4FF6C  0x00000000bfc4ff6c 0x0000000000000004
config_BFC4FF70  0x00000000bfc4ff70 0x0000000000000004
config_BFC4FF74  0x00000000bfc4ff74 0x0000000000000004
config_BFC4FF78  0x00000000bfc4ff78 0x0000000000000004
config_BFC4FF7C  0x00000000bfc4ff7c 0x0000000000000004
config_BFC4FFC0  0x00000000bfc4ffc0 0x0000000000000004
config_BFC4FFC4  0x00000000bfc4ffc4 0x0000000000000004
config_BFC4FFC8  0x00000000bfc4ffc8 0x0000000000000004
config_BFC4FFCC  0x00000000bfc4ffcc 0x0000000000000004
config_BFC4FFD0  0x00000000bfc4ffd0 0x0000000000000004
config_BFC4FFD4  0x00000000bfc4ffd4 0x0000000000000004
config_BFC4FFD8  0x00000000bfc4ffd8 0x0000000000000004
config_BFC4FFDC  0x00000000bfc4ffdc 0x0000000000000004
config_BFC4FFE0  0x00000000bfc4ffe0 0x0000000000000004
config_BFC4FFE4  0x00000000bfc4ffe4 0x0000000000000004
config_BFC4FFE8  0x00000000bfc4ffe8 0x0000000000000004
config_BFC4FFEC  0x00000000bfc4ffec 0x0000000000000004
config_BFC4FFF0  0x00000000bfc4fff0 0x0000000000000004
config_BFC4FFF4  0x00000000bfc4fff4 0x0000000000000004
config_BFC4FFF8  0x00000000bfc4fff8 0x0000000000000004
config_BFC4FFFC  0x00000000bfc4fffc 0x0000000000000004
boot1lastpage    0x00000000bfc50000 0x0000000000004000
config_BFC54000  0x00000000bfc54000 0x0000000000000004
config_BFC54004  0x00000000bfc54004 0x0000000000000004
config_BFC54008  0x00000000bfc54008 0x0000000000000004
config_BFC5400C  0x00000000bfc5400c 0x0000000000000004
config_BFC54010  0x00000000bfc54010 0x0000000000000004
config_BFC5401C  0x00000000bfc5401c 0x0000000000000004
config_BFC54020  0x00000000bfc54020 0x0000000000000004
config_BFC54024  0x00000000bfc54024 0x0000000000000004
boot2            0x00000000bfc60000 0x000000000000ff00
config_BFC6FF40  0x00000000bfc6ff40 0x0000000000000004
config_BFC6FF44  0x00000000bfc6ff44 0x0000000000000004
config_BFC6FF48  0x00000000bfc6ff48 0x0000000000000004
config_BFC6FF4C  0x00000000bfc6ff4c 0x0000000000000004
config_BFC6FF50  0x00000000bfc6ff50 0x0000000000000004
config_BFC6FF54  0x00000000bfc6ff54 0x0000000000000004
config_BFC6FF58  0x00000000bfc6ff58 0x0000000000000004
config_BFC6FF5C  0x00000000bfc6ff5c 0x0000000000000004
config_BFC6FF60  0x00000000bfc6ff60 0x0000000000000004
config_BFC6FF64  0x00000000bfc6ff64 0x0000000000000004
config_BFC6FF68  0x00000000bfc6ff68 0x0000000000000004
config_BFC6FF6C  0x00000000bfc6ff6c 0x0000000000000004
config_BFC6FF70  0x00000000bfc6ff70 0x0000000000000004
config_BFC6FF74  0x00000000bfc6ff74 0x0000000000000004
config_BFC6FF78  0x00000000bfc6ff78 0x0000000000000004
config_BFC6FF7C  0x00000000bfc6ff7c 0x0000000000000004
config_BFC6FFC0  0x00000000bfc6ffc0 0x0000000000000004
config_BFC6FFC4  0x00000000bfc6ffc4 0x0000000000000004
config_BFC6FFC8  0x00000000bfc6ffc8 0x0000000000000004
config_BFC6FFCC  0x00000000bfc6ffcc 0x0000000000000004
config_BFC6FFD0  0x00000000bfc6ffd0 0x0000000000000004
config_BFC6FFD4  0x00000000bfc6ffd4 0x0000000000000004
config_BFC6FFD8  0x00000000bfc6ffd8 0x0000000000000004
config_BFC6FFDC  0x00000000bfc6ffdc 0x0000000000000004
config_BFC6FFE0  0x00000000bfc6ffe0 0x0000000000000004
config_BFC6FFE4  0x00000000bfc6ffe4 0x0000000000000004
config_BFC6FFE8  0x00000000bfc6ffe8 0x0000000000000004
config_BFC6FFEC  0x00000000bfc6ffec 0x0000000000000004
config_BFC6FFF0  0x00000000bfc6fff0 0x0000000000000004
config_BFC6FFF4  0x00000000bfc6fff4 0x0000000000000004
config_BFC6FFF8  0x00000000bfc6fff8 0x0000000000000004
config_BFC6FFFC  0x00000000bfc6fffc 0x0000000000000004
boot2lastpage    0x00000000bfc70000 0x0000000000004000
kseg0_data_mem   0x0000000080000000 0x0000000000080000 w !x
sfrs             0x00000000bf800000 0x0000000000100000
configsfrs_BFC0FF40 0x00000000bfc0ff40 0x0000000000000040
configsfrs_BFC0FFC0 0x00000000bfc0ffc0 0x0000000000000040
configsfrs_BFC2FF40 0x00000000bfc2ff40 0x0000000000000040
configsfrs_BFC2FFC0 0x00000000bfc2ffc0 0x0000000000000040
configsfrs_BFC4FF40 0x00000000bfc4ff40 0x0000000000000040
configsfrs_BFC4FFC0 0x00000000bfc4ffc0 0x0000000000000040
configsfrs_BFC54000 0x00000000bfc54000 0x0000000000000020
configsfrs_BFC6FF40 0x00000000bfc6ff40 0x0000000000000040
configsfrs_BFC6FFC0 0x00000000bfc6ffc0 0x0000000000000040
kseg2_ebi_data_mem 0x00000000c0000000 0x0000000004000000
kseg2_sqi_data_mem 0x00000000d0000000 0x0000000004000000
kseg3_ebi_data_mem 0x00000000e0000000 0x0000000004000000
kseg3_sqi_data_mem 0x00000000f0000000 0x0000000004000000
*default*        0x0000000000000000 0xffffffffffffffff

Linker script and memory map

LOAD y:/program files/microchip/xc32/v3.01/bin/bin/../../lib/gcc/pic32mx/8.3.1/../../../../pic32mx/lib/fpu64\debug-exception-return.o
LOAD build/default/production/_ext/1434821282/bsp.o
LOAD build/default/production/_ext/732082881/drv_ethmac.o
LOAD build/default/production/_ext/732082881/drv_ethmac_lib.o
LOAD build/default/production/_ext/732082881/drv_eth_pic32_lib.o
LOAD build/default/production/_ext/444070925/drv_ethphy.o
LOAD build/default/production/_ext/444070925/drv_extphy_smsc8740.o
LOAD build/default/production/_ext/438849557/drv_miim.o
LOAD build/default/production/_ext/1033058136/helpers.o
LOAD build/default/production/_ext/1033058136/icmp.o
LOAD build/default/production/_ext/1033058136/arp.o
LOAD build/default/production/_ext/1033058136/ipv4.o
LOAD build/default/production/_ext/1033058136/tcpip_heap_alloc.o
LOAD build/default/production/_ext/1033058136/tcpip_heap_internal.o
LOAD build/default/production/_ext/1033058136/dhcp.o
LOAD build/default/production/_ext/1033058136/dns.o
LOAD build/default/production/_ext/1033058136/hash_fnv.o
LOAD build/default/production/_ext/1033058136/oahash.o
LOAD build/default/production/_ext/1033058136/tcpip_helpers.o
LOAD build/default/production/_ext/1033058136/tcpip_helper_c32.o
LOAD build/default/production/_ext/1033058136/tcpip_manager.o
LOAD build/default/production/_ext/1033058136/tcpip_notify.o
LOAD build/default/production/_ext/1033058136/tcpip_packet.o
LOAD build/default/production/_ext/1033058136/sntp.o
LOAD build/default/production/_ext/1033058136/udp.o
LOAD build/default/production/_ext/60165520/plib_clk.o
LOAD build/default/production/_ext/1249264884/plib_coretimer.o
LOAD build/default/production/_ext/1865200349/plib_evic.o
LOAD build/default/production/_ext/1865254177/plib_gpio.o
LOAD build/default/production/_ext/60176403/plib_nvm.o
LOAD build/default/production/_ext/1865585524/plib_rtcc.o
LOAD build/default/production/_ext/1865657120/plib_uart2.o
LOAD build/default/production/_ext/163028504/xc32_monitor.o
LOAD build/default/production/_ext/1376093119/sys_command.o
LOAD build/default/production/_ext/1832805299/sys_console_uart.o
LOAD build/default/production/_ext/1832805299/sys_console.o
LOAD build/default/production/_ext/944882569/sys_debug.o
LOAD build/default/production/_ext/1881668453/sys_int.o
LOAD build/default/production/_ext/1000052432/sys_reset.o
LOAD build/default/production/_ext/101884895/sys_time.o
LOAD build/default/production/_ext/753841488/sys_time_h2_adapter.o
LOAD build/default/production/_ext/1171490990/tasks.o
LOAD build/default/production/_ext/1171490990/initialization.o
LOAD build/default/production/_ext/1171490990/interrupts.o
LOAD build/default/production/_ext/1171490990/exceptions.o
LOAD build/default/production/_ext/1171490990/freertos_hooks.o
LOAD build/default/production/_ext/1665200909/heap_1.o
LOAD build/default/production/_ext/951553246/port.o
LOAD build/default/production/_ext/951553246/port_asm.o
LOAD build/default/production/_ext/404212886/croutine.o
LOAD build/default/production/_ext/404212886/list.o
LOAD build/default/production/_ext/404212886/queue.o
LOAD build/default/production/_ext/404212886/FreeRTOS_tasks.o
LOAD build/default/production/_ext/404212886/timers.o
LOAD build/default/production/_ext/404212886/event_groups.o
LOAD build/default/production/_ext/404212886/stream_buffer.o
LOAD build/default/production/_ext/1360937237/app.o
LOAD build/default/production/_ext/1360937237/main.o
                0x0000000000000001                __MPLAB_BUILD = 0x1
                0x0000000000000400                PROVIDE (_min_stack_size = 0x400)
START GROUP
LOAD vector_offset_init.o
END GROUP
                0x0000000000000001                PROVIDE (_vector_spacing = 0x1)
                0x000000009d000000                PROVIDE (_ebase_address = 0x9d000000)
                0x00000000bfc00000                _RESET_ADDR = 0xbfc00000
                0x00000000bfc00380                _BEV_EXCPT_ADDR = 0xbfc00380
                0x00000000bfc00480                _DBG_EXCPT_ADDR = 0xbfc00480
                0x000000009d000000                _SIMPLE_TLB_REFILL_EXCPT_ADDR = (_ebase_address + 0x0)
                0x000000009d000100                _CACHE_ERR_EXCPT_ADDR = (_ebase_address + 0x100)
                0x000000009d000180                _GEN_EXCPT_ADDR = (_ebase_address + 0x180)

.config_BFC0FF40
 *(.config_BFC0FF40)

.config_BFC0FF44
 *(.config_BFC0FF44)

.config_BFC0FF48
 *(.config_BFC0FF48)

.config_BFC0FF4C
 *(.config_BFC0FF4C)

.config_BFC0FF50
 *(.config_BFC0FF50)

.config_BFC0FF54
 *(.config_BFC0FF54)

.config_BFC0FF58
 *(.config_BFC0FF58)

.config_BFC0FF5C
 *(.config_BFC0FF5C)

.config_BFC0FF60
 *(.config_BFC0FF60)

.config_BFC0FF64
 *(.config_BFC0FF64)

.config_BFC0FF68
 *(.config_BFC0FF68)

.config_BFC0FF6C
 *(.config_BFC0FF6C)

.config_BFC0FF70
 *(.config_BFC0FF70)

.config_BFC0FF74
 *(.config_BFC0FF74)

.config_BFC0FF78
 *(.config_BFC0FF78)

.config_BFC0FF7C
 *(.config_BFC0FF7C)

.config_BFC0FFC0
                0x00000000bfc0ffc0        0x4
 *(.config_BFC0FFC0)
 .config_BFC0FFC0
                0x00000000bfc0ffc0        0x4 build/default/production/_ext/1171490990/initialization.o
                0x00000000bfc0ffc0                __config_BFC0FFC0

.config_BFC0FFC4
                0x00000000bfc0ffc4        0x4
 *(.config_BFC0FFC4)
 .config_BFC0FFC4
                0x00000000bfc0ffc4        0x4 build/default/production/_ext/1171490990/initialization.o
                0x00000000bfc0ffc4                __config_BFC0FFC4

.config_BFC0FFC8
                0x00000000bfc0ffc8        0x4
 *(.config_BFC0FFC8)
 .config_BFC0FFC8
                0x00000000bfc0ffc8        0x4 build/default/production/_ext/1171490990/initialization.o
                0x00000000bfc0ffc8                __config_BFC0FFC8

.config_BFC0FFCC
                0x00000000bfc0ffcc        0x4
 *(.config_BFC0FFCC)
 .config_BFC0FFCC
                0x00000000bfc0ffcc        0x4 build/default/production/_ext/1171490990/initialization.o
                0x00000000bfc0ffcc                __config_BFC0FFCC

.config_BFC0FFD0
 *(.config_BFC0FFD0)

.config_BFC0FFD4
 *(.config_BFC0FFD4)

.config_BFC0FFD8
 *(.config_BFC0FFD8)

.config_BFC0FFDC
                0x00000000bfc0ffdc        0x4
 *(.config_BFC0FFDC)
 .config_BFC0FFDC
                0x00000000bfc0ffdc        0x4 build/default/production/_ext/1171490990/initialization.o
                0x00000000bfc0ffdc                __config_BFC0FFDC

.config_BFC0FFE0
 *(.config_BFC0FFE0)

.config_BFC0FFE4
 *(.config_BFC0FFE4)

.config_BFC0FFE8
 *(.config_BFC0FFE8)

.config_BFC0FFEC
 *(.config_BFC0FFEC)

.config_BFC0FFF0
                0x00000000bfc0fff0        0x4
 *(.config_BFC0FFF0)
 .config_BFC0FFF0
                0x00000000bfc0fff0        0x4 build/default/production/_ext/1171490990/initialization.o
                0x00000000bfc0fff0                __config_BFC0FFF0

.config_BFC0FFF4
 *(.config_BFC0FFF4)

.config_BFC0FFF8
 *(.config_BFC0FFF8)

.config_BFC0FFFC
 *(.config_BFC0FFFC)

.config_BFC2FF40
 *(.config_BFC2FF40)

.config_BFC2FF44
 *(.config_BFC2FF44)

.config_BFC2FF48
 *(.config_BFC2FF48)

.config_BFC2FF4C
 *(.config_BFC2FF4C)

.config_BFC2FF50
 *(.config_BFC2FF50)

.config_BFC2FF54
 *(.config_BFC2FF54)

.config_BFC2FF58
 *(.config_BFC2FF58)

.config_BFC2FF5C
 *(.config_BFC2FF5C)

.config_BFC2FF60
 *(.config_BFC2FF60)

.config_BFC2FF64
 *(.config_BFC2FF64)

.config_BFC2FF68
 *(.config_BFC2FF68)

.config_BFC2FF6C
 *(.config_BFC2FF6C)

.config_BFC2FF70
 *(.config_BFC2FF70)

.config_BFC2FF74
 *(.config_BFC2FF74)

.config_BFC2FF78
 *(.config_BFC2FF78)

.config_BFC2FF7C
 *(.config_BFC2FF7C)

.config_BFC2FFC0
 *(.config_BFC2FFC0)

.config_BFC2FFC4
 *(.config_BFC2FFC4)

.config_BFC2FFC8
 *(.config_BFC2FFC8)

.config_BFC2FFCC
 *(.config_BFC2FFCC)

.config_BFC2FFD0
 *(.config_BFC2FFD0)

.config_BFC2FFD4
 *(.config_BFC2FFD4)

.config_BFC2FFD8
 *(.config_BFC2FFD8)

.config_BFC2FFDC
 *(.config_BFC2FFDC)

.config_BFC2FFE0
 *(.config_BFC2FFE0)

.config_BFC2FFE4
 *(.config_BFC2FFE4)

.config_BFC2FFE8
 *(.config_BFC2FFE8)

.config_BFC2FFEC
 *(.config_BFC2FFEC)

.config_BFC2FFF0
 *(.config_BFC2FFF0)

.config_BFC2FFF4
 *(.config_BFC2FFF4)

.config_BFC2FFF8
 *(.config_BFC2FFF8)

.config_BFC2FFFC
 *(.config_BFC2FFFC)

.config_BFC4FF40
 *(.config_BFC4FF40)

.config_BFC4FF44
 *(.config_BFC4FF44)

.config_BFC4FF48
 *(.config_BFC4FF48)

.config_BFC4FF4C
 *(.config_BFC4FF4C)

.config_BFC4FF50
 *(.config_BFC4FF50)

.config_BFC4FF54
 *(.config_BFC4FF54)

.config_BFC4FF58
 *(.config_BFC4FF58)

.config_BFC4FF5C
 *(.config_BFC4FF5C)

.config_BFC4FF60
 *(.config_BFC4FF60)

.config_BFC4FF64
 *(.config_BFC4FF64)

.config_BFC4FF68
 *(.config_BFC4FF68)

.config_BFC4FF6C
 *(.config_BFC4FF6C)

.config_BFC4FF70
 *(.config_BFC4FF70)

.config_BFC4FF74
 *(.config_BFC4FF74)

.config_BFC4FF78
 *(.config_BFC4FF78)

.config_BFC4FF7C
 *(.config_BFC4FF7C)

.config_BFC4FFC0
 *(.config_BFC4FFC0)

.config_BFC4FFC4
 *(.config_BFC4FFC4)

.config_BFC4FFC8
 *(.config_BFC4FFC8)

.config_BFC4FFCC
 *(.config_BFC4FFCC)

.config_BFC4FFD0
 *(.config_BFC4FFD0)

.config_BFC4FFD4
 *(.config_BFC4FFD4)

.config_BFC4FFD8
 *(.config_BFC4FFD8)

.config_BFC4FFDC
 *(.config_BFC4FFDC)

.config_BFC4FFE0
 *(.config_BFC4FFE0)

.config_BFC4FFE4
 *(.config_BFC4FFE4)

.config_BFC4FFE8
 *(.config_BFC4FFE8)

.config_BFC4FFEC
 *(.config_BFC4FFEC)

.config_BFC4FFF0
 *(.config_BFC4FFF0)

.config_BFC4FFF4
 *(.config_BFC4FFF4)

.config_BFC4FFF8
 *(.config_BFC4FFF8)

.config_BFC4FFFC
 *(.config_BFC4FFFC)

.config_BFC54000
 *(.config_BFC54000)

.config_BFC54004
 *(.config_BFC54004)

.config_BFC54008
 *(.config_BFC54008)

.config_BFC5400C
 *(.config_BFC5400C)

.config_BFC54010
 *(.config_BFC54010)

.config_BFC5401C
 *(.config_BFC5401C)

.config_BFC54020
 *(.config_BFC54020)

.config_BFC54024
 *(.config_BFC54024)

.config_BFC6FF40
 *(.config_BFC6FF40)

.config_BFC6FF44
 *(.config_BFC6FF44)

.config_BFC6FF48
 *(.config_BFC6FF48)

.config_BFC6FF4C
 *(.config_BFC6FF4C)

.config_BFC6FF50
 *(.config_BFC6FF50)

.config_BFC6FF54
 *(.config_BFC6FF54)

.config_BFC6FF58
 *(.config_BFC6FF58)

.config_BFC6FF5C
 *(.config_BFC6FF5C)

.config_BFC6FF60
 *(.config_BFC6FF60)

.config_BFC6FF64
 *(.config_BFC6FF64)

.config_BFC6FF68
 *(.config_BFC6FF68)

.config_BFC6FF6C
 *(.config_BFC6FF6C)

.config_BFC6FF70
 *(.config_BFC6FF70)

.config_BFC6FF74
 *(.config_BFC6FF74)

.config_BFC6FF78
 *(.config_BFC6FF78)

.config_BFC6FF7C
 *(.config_BFC6FF7C)

.config_BFC6FFC0
 *(.config_BFC6FFC0)

.config_BFC6FFC4
 *(.config_BFC6FFC4)

.config_BFC6FFC8
 *(.config_BFC6FFC8)

.config_BFC6FFCC
 *(.config_BFC6FFCC)

.config_BFC6FFD0
 *(.config_BFC6FFD0)

.config_BFC6FFD4
 *(.config_BFC6FFD4)

.config_BFC6FFD8
 *(.config_BFC6FFD8)

.config_BFC6FFDC
 *(.config_BFC6FFDC)

.config_BFC6FFE0
 *(.config_BFC6FFE0)

.config_BFC6FFE4
 *(.config_BFC6FFE4)

.config_BFC6FFE8
 *(.config_BFC6FFE8)

.config_BFC6FFEC
 *(.config_BFC6FFEC)

.config_BFC6FFF0
 *(.config_BFC6FFF0)

.config_BFC6FFF4
 *(.config_BFC6FFF4)

.config_BFC6FFF8
 *(.config_BFC6FFF8)

.config_BFC6FFFC
 *(.config_BFC6FFFC)

.reset          0x00000000bfc00000      0x1c4
 *(.reset)
 .reset         0x00000000bfc00000       0x18 C:\Users\DANIEL~1.RAI\AppData\Local\Temp\ccdMNJnB.o
                0x00000000bfc00000                _reset
 *(.reset.startup)
 .reset.startup
                0x00000000bfc00018      0x1ac C:\Users\DANIEL~1.RAI\AppData\Local\Temp\ccdMNJnB.o
                0x00000000bfc00018                _startup

.bev_excpt      0x00000000bfc00380       0x10
 *(.bev_handler)
 .bev_handler   0x00000000bfc00380       0x10 C:\Users\DANIEL~1.RAI\AppData\Local\Temp\ccdMNJnB.o

.cache_init     0x00000000bfc004b0      0x1c0
 *(.cache_init)
 *(.cache_init.*)
 .cache_init.cache
                0x00000000bfc004b0       0xc0 y:/program files/microchip/xc32/v3.01/bin/bin/../../lib/gcc/pic32mx/8.3.1/../../../../pic32mx/lib/fpu64\libpic32.a(pic32_init_cache.o)
 .cache_init.pic32_init_cache
                0x00000000bfc00570      0x100 y:/program files/microchip/xc32/v3.01/bin/bin/../../lib/gcc/pic32mx/8.3.1/../../../../pic32mx/lib/fpu64\libpic32.a(pic32_init_cache.o)
                0x00000000bfc00570                __pic32_init_cache

.simple_tlb_refill_excpt
                0x000000009d000000       0x10
 *(.simple_tlb_refill_vector)
 .simple_tlb_refill_vector
                0x000000009d000000       0x10 C:\Users\DANIEL~1.RAI\AppData\Local\Temp\ccdMNJnB.o

.cache_err_excpt
                0x000000009d000100       0x10
 *(.cache_err_vector)
 .cache_err_vector
                0x000000009d000100       0x10 C:\Users\DANIEL~1.RAI\AppData\Local\Temp\ccdMNJnB.o

.app_excpt      0x000000009d000180       0x10
 *(.gen_handler)
 .gen_handler   0x000000009d000180       0x10 C:\Users\DANIEL~1.RAI\AppData\Local\Temp\ccdMNJnB.o

.vectors        0x000000009d000200      0x4fc
                0x000000009d000200                . = ALIGN (0x4)
                0x0000000000000200                __vector_offset_0 = DEFINED (__vector_dispatch_0)?(. - _ebase_address):__vector_offset_default
 *(.vector_0)
 .vector_0      0x000000009d000200        0x8 build/default/production/_ext/1171490990/interrupts.o
                0x000000009d000200                __vector_dispatch_0
                0x000000009d000208                . = ALIGN (0x4)
                0x0000000000000208                __vector_offset_1 = DEFINED (__vector_dispatch_1)?(. - _ebase_address):__vector_offset_default
 *(.vector_1)
 .vector_1      0x000000009d000208      0x258 build/default/production/_ext/951553246/port_asm.o
                0x000000009d000208                __vector_dispatch_1
                0x000000009d000208                vPortYieldISR
                0x000000009d000460                . = ALIGN (0x4)
                0x00000000000006b4                __vector_offset_2 = DEFINED (__vector_dispatch_2)?(. - _ebase_address):__vector_offset_default
 *(.vector_2)
                0x000000009d000460                . = ALIGN (0x4)
                0x00000000000006b4                __vector_offset_3 = DEFINED (__vector_dispatch_3)?(. - _ebase_address):__vector_offset_default
 *(.vector_3)
                0x000000009d000460                . = ALIGN (0x4)
                0x0000000000000460                __vector_offset_4 = DEFINED (__vector_dispatch_4)?(. - _ebase_address):__vector_offset_default
 *(.vector_4)
 .vector_4      0x000000009d000460      0x22c build/default/production/_ext/951553246/port_asm.o
                0x000000009d000460                vPortTickInterruptHandler
                0x000000009d000460                __vector_dispatch_4
                0x000000009d00068c                . = ALIGN (0x4)
                0x00000000000006b4                __vector_offset_5 = DEFINED (__vector_dispatch_5)?(. - _ebase_address):__vector_offset_default
 *(.vector_5)
                0x000000009d00068c                . = ALIGN (0x4)
                0x00000000000006b4                __vector_offset_6 = DEFINED (__vector_dispatch_6)?(. - _ebase_address):__vector_offset_default
 *(.vector_6)
                0x000000009d00068c                . = ALIGN (0x4)
                0x00000000000006b4                __vector_offset_7 = DEFINED (__vector_dispatch_7)?(. - _ebase_address):__vector_offset_default
 *(.vector_7)
                0x000000009d00068c                . = ALIGN (0x4)
                0x00000000000006b4                __vector_offset_8 = DEFINED (__vector_dispatch_8)?(. - _ebase_address):__vector_offset_default
 *(.vector_8)
                0x000000009d00068c                . = ALIGN (0x4)
                0x00000000000006b4                __vector_offset_9 = DEFINED (__vector_dispatch_9)?(. - _ebase_address):__vector_offset_default
 *(.vector_9)
                0x000000009d00068c                . = ALIGN (0x4)
                0x00000000000006b4                __vector_offset_10 = DEFINED (__vector_dispatch_10)?(. - _ebase_address):__vector_offset_default
 *(.vector_10)
                0x000000009d00068c                . = ALIGN (0x4)
                0x00000000000006b4                __vector_offset_11 = DEFINED (__vector_dispatch_11)?(. - _ebase_address):__vector_offset_default
 *(.vector_11)
                0x000000009d00068c                . = ALIGN (0x4)
                0x00000000000006b4                __vector_offset_12 = DEFINED (__vector_dispatch_12)?(. - _ebase_address):__vector_offset_default
 *(.vector_12)
                0x000000009d00068c                . = ALIGN (0x4)
                0x00000000000006b4                __vector_offset_13 = DEFINED (__vector_dispatch_13)?(. - _ebase_address):__vector_offset_default
 *(.vector_13)
                0x000000009d00068c                . = ALIGN (0x4)
                0x00000000000006b4                __vector_offset_14 = DEFINED (__vector_dispatch_14)?(. - _ebase_address):__vector_offset_default
 *(.vector_14)
                0x000000009d00068c                . = ALIGN (0x4)
                0x00000000000006b4                __vector_offset_15 = DEFINED (__vector_dispatch_15)?(. - _ebase_address):__vector_offset_default
 *(.vector_15)
                0x000000009d00068c                . = ALIGN (0x4)
                0x00000000000006b4                __vector_offset_16 = DEFINED (__vector_dispatch_16)?(. - _ebase_address):__vector_offset_default
 *(.vector_16)
                0x000000009d00068c                . = ALIGN (0x4)
                0x00000000000006b4                __vector_offset_17 = DEFINED (__vector_dispatch_17)?(. - _ebase_address):__vector_offset_default
 *(.vector_17)
                0x000000009d00068c                . = ALIGN (0x4)
                0x00000000000006b4                __vector_offset_18 = DEFINED (__vector_dispatch_18)?(. - _ebase_address):__vector_offset_default
 *(.vector_18)
                0x000000009d00068c                . = ALIGN (0x4)
                0x00000000000006b4                __vector_offset_19 = DEFINED (__vector_dispatch_19)?(. - _ebase_address):__vector_offset_default
 *(.vector_19)
                0x000000009d00068c                . = ALIGN (0x4)
                0x00000000000006b4                __vector_offset_20 = DEFINED (__vector_dispatch_20)?(. - _ebase_address):__vector_offset_default
 *(.vector_20)
                0x000000009d00068c                . = ALIGN (0x4)
                0x00000000000006b4                __vector_offset_21 = DEFINED (__vector_dispatch_21)?(. - _ebase_address):__vector_offset_default
 *(.vector_21)
                0x000000009d00068c                . = ALIGN (0x4)
                0x00000000000006b4                __vector_offset_22 = DEFINED (__vector_dispatch_22)?(. - _ebase_address):__vector_offset_default
 *(.vector_22)
                0x000000009d00068c                . = ALIGN (0x4)
                0x00000000000006b4                __vector_offset_23 = DEFINED (__vector_dispatch_23)?(. - _ebase_address):__vector_offset_default
 *(.vector_23)
                0x000000009d00068c                . = ALIGN (0x4)
                0x00000000000006b4                __vector_offset_24 = DEFINED (__vector_dispatch_24)?(. - _ebase_address):__vector_offset_default
 *(.vector_24)
                0x000000009d00068c                . = ALIGN (0x4)
                0x00000000000006b4                __vector_offset_25 = DEFINED (__vector_dispatch_25)?(. - _ebase_address):__vector_offset_default
 *(.vector_25)
                0x000000009d00068c                . = ALIGN (0x4)
                0x00000000000006b4                __vector_offset_26 = DEFINED (__vector_dispatch_26)?(. - _ebase_address):__vector_offset_default
 *(.vector_26)
                0x000000009d00068c                . = ALIGN (0x4)
                0x00000000000006b4                __vector_offset_27 = DEFINED (__vector_dispatch_27)?(. - _ebase_address):__vector_offset_default
 *(.vector_27)
                0x000000009d00068c                . = ALIGN (0x4)
                0x00000000000006b4                __vector_offset_28 = DEFINED (__vector_dispatch_28)?(. - _ebase_address):__vector_offset_default
 *(.vector_28)
                0x000000009d00068c                . = ALIGN (0x4)
                0x00000000000006b4                __vector_offset_29 = DEFINED (__vector_dispatch_29)?(. - _ebase_address):__vector_offset_default
 *(.vector_29)
                0x000000009d00068c                . = ALIGN (0x4)
                0x00000000000006b4                __vector_offset_30 = DEFINED (__vector_dispatch_30)?(. - _ebase_address):__vector_offset_default
 *(.vector_30)
                0x000000009d00068c                . = ALIGN (0x4)
                0x00000000000006b4                __vector_offset_31 = DEFINED (__vector_dispatch_31)?(. - _ebase_address):__vector_offset_default
 *(.vector_31)
                0x000000009d00068c                . = ALIGN (0x4)
                0x00000000000006b4                __vector_offset_32 = DEFINED (__vector_dispatch_32)?(. - _ebase_address):__vector_offset_default
 *(.vector_32)
                0x000000009d00068c                . = ALIGN (0x4)
                0x00000000000006b4                __vector_offset_33 = DEFINED (__vector_dispatch_33)?(. - _ebase_address):__vector_offset_default
 *(.vector_33)
                0x000000009d00068c                . = ALIGN (0x4)
                0x00000000000006b4                __vector_offset_34 = DEFINED (__vector_dispatch_34)?(. - _ebase_address):__vector_offset_default
 *(.vector_34)
                0x000000009d00068c                . = ALIGN (0x4)
                0x00000000000006b4                __vector_offset_35 = DEFINED (__vector_dispatch_35)?(. - _ebase_address):__vector_offset_default
 *(.vector_35)
                0x000000009d00068c                . = ALIGN (0x4)
                0x00000000000006b4                __vector_offset_36 = DEFINED (__vector_dispatch_36)?(. - _ebase_address):__vector_offset_default
 *(.vector_36)
                0x000000009d00068c                . = ALIGN (0x4)
                0x00000000000006b4                __vector_offset_37 = DEFINED (__vector_dispatch_37)?(. - _ebase_address):__vector_offset_default
 *(.vector_37)
                0x000000009d00068c                . = ALIGN (0x4)
                0x00000000000006b4                __vector_offset_38 = DEFINED (__vector_dispatch_38)?(. - _ebase_address):__vector_offset_default
 *(.vector_38)
                0x000000009d00068c                . = ALIGN (0x4)
                0x00000000000006b4                __vector_offset_39 = DEFINED (__vector_dispatch_39)?(. - _ebase_address):__vector_offset_default
 *(.vector_39)
                0x000000009d00068c                . = ALIGN (0x4)
                0x00000000000006b4                __vector_offset_40 = DEFINED (__vector_dispatch_40)?(. - _ebase_address):__vector_offset_default
 *(.vector_40)
                0x000000009d00068c                . = ALIGN (0x4)
                0x00000000000006b4                __vector_offset_41 = DEFINED (__vector_dispatch_41)?(. - _ebase_address):__vector_offset_default
 *(.vector_41)
                0x000000009d00068c                . = ALIGN (0x4)
                0x00000000000006b4                __vector_offset_42 = DEFINED (__vector_dispatch_42)?(. - _ebase_address):__vector_offset_default
 *(.vector_42)
                0x000000009d00068c                . = ALIGN (0x4)
                0x00000000000006b4                __vector_offset_43 = DEFINED (__vector_dispatch_43)?(. - _ebase_address):__vector_offset_default
 *(.vector_43)
                0x000000009d00068c                . = ALIGN (0x4)
                0x00000000000006b4                __vector_offset_44 = DEFINED (__vector_dispatch_44)?(. - _ebase_address):__vector_offset_default
 *(.vector_44)
                0x000000009d00068c                . = ALIGN (0x4)
                0x00000000000006b4                __vector_offset_45 = DEFINED (__vector_dispatch_45)?(. - _ebase_address):__vector_offset_default
 *(.vector_45)
                0x000000009d00068c                . = ALIGN (0x4)
                0x00000000000006b4                __vector_offset_46 = DEFINED (__vector_dispatch_46)?(. - _ebase_address):__vector_offset_default
 *(.vector_46)
                0x000000009d00068c                . = ALIGN (0x4)
                0x00000000000006b4                __vector_offset_47 = DEFINED (__vector_dispatch_47)?(. - _ebase_address):__vector_offset_default
 *(.vector_47)
                0x000000009d00068c                . = ALIGN (0x4)
                0x00000000000006b4                __vector_offset_48 = DEFINED (__vector_dispatch_48)?(. - _ebase_address):__vector_offset_default
 *(.vector_48)
                0x000000009d00068c                . = ALIGN (0x4)
                0x00000000000006b4                __vector_offset_49 = DEFINED (__vector_dispatch_49)?(. - _ebase_address):__vector_offset_default
 *(.vector_49)
                0x000000009d00068c                . = ALIGN (0x4)
                0x00000000000006b4                __vector_offset_50 = DEFINED (__vector_dispatch_50)?(. - _ebase_address):__vector_offset_default
 *(.vector_50)
                0x000000009d00068c                . = ALIGN (0x4)
                0x00000000000006b4                __vector_offset_51 = DEFINED (__vector_dispatch_51)?(. - _ebase_address):__vector_offset_default
 *(.vector_51)
                0x000000009d00068c                . = ALIGN (0x4)
                0x00000000000006b4                __vector_offset_52 = DEFINED (__vector_dispatch_52)?(. - _ebase_address):__vector_offset_default
 *(.vector_52)
                0x000000009d00068c                . = ALIGN (0x4)
                0x00000000000006b4                __vector_offset_53 = DEFINED (__vector_dispatch_53)?(. - _ebase_address):__vector_offset_default
 *(.vector_53)
                0x000000009d00068c                . = ALIGN (0x4)
                0x00000000000006b4                __vector_offset_54 = DEFINED (__vector_dispatch_54)?(. - _ebase_address):__vector_offset_default
 *(.vector_54)
                0x000000009d00068c                . = ALIGN (0x4)
                0x00000000000006b4                __vector_offset_55 = DEFINED (__vector_dispatch_55)?(. - _ebase_address):__vector_offset_default
 *(.vector_55)
                0x000000009d00068c                . = ALIGN (0x4)
                0x00000000000006b4                __vector_offset_56 = DEFINED (__vector_dispatch_56)?(. - _ebase_address):__vector_offset_default
 *(.vector_56)
                0x000000009d00068c                . = ALIGN (0x4)
                0x00000000000006b4                __vector_offset_57 = DEFINED (__vector_dispatch_57)?(. - _ebase_address):__vector_offset_default
 *(.vector_57)
                0x000000009d00068c                . = ALIGN (0x4)
                0x00000000000006b4                __vector_offset_58 = DEFINED (__vector_dispatch_58)?(. - _ebase_address):__vector_offset_default
 *(.vector_58)
                0x000000009d00068c                . = ALIGN (0x4)
                0x00000000000006b4                __vector_offset_59 = DEFINED (__vector_dispatch_59)?(. - _ebase_address):__vector_offset_default
 *(.vector_59)
                0x000000009d00068c                . = ALIGN (0x4)
                0x00000000000006b4                __vector_offset_60 = DEFINED (__vector_dispatch_60)?(. - _ebase_address):__vector_offset_default
 *(.vector_60)
                0x000000009d00068c                . = ALIGN (0x4)
                0x00000000000006b4                __vector_offset_61 = DEFINED (__vector_dispatch_61)?(. - _ebase_address):__vector_offset_default
 *(.vector_61)
                0x000000009d00068c                . = ALIGN (0x4)
                0x00000000000006b4                __vector_offset_62 = DEFINED (__vector_dispatch_62)?(. - _ebase_address):__vector_offset_default
 *(.vector_62)
                0x000000009d00068c                . = ALIGN (0x4)
                0x00000000000006b4                __vector_offset_63 = DEFINED (__vector_dispatch_63)?(. - _ebase_address):__vector_offset_default
 *(.vector_63)
                0x000000009d00068c                . = ALIGN (0x4)
                0x00000000000006b4                __vector_offset_64 = DEFINED (__vector_dispatch_64)?(. - _ebase_address):__vector_offset_default
 *(.vector_64)
                0x000000009d00068c                . = ALIGN (0x4)
                0x00000000000006b4                __vector_offset_65 = DEFINED (__vector_dispatch_65)?(. - _ebase_address):__vector_offset_default
 *(.vector_65)
                0x000000009d00068c                . = ALIGN (0x4)
                0x00000000000006b4                __vector_offset_66 = DEFINED (__vector_dispatch_66)?(. - _ebase_address):__vector_offset_default
 *(.vector_66)
                0x000000009d00068c                . = ALIGN (0x4)
                0x00000000000006b4                __vector_offset_67 = DEFINED (__vector_dispatch_67)?(. - _ebase_address):__vector_offset_default
 *(.vector_67)
                0x000000009d00068c                . = ALIGN (0x4)
                0x00000000000006b4                __vector_offset_68 = DEFINED (__vector_dispatch_68)?(. - _ebase_address):__vector_offset_default
 *(.vector_68)
                0x000000009d00068c                . = ALIGN (0x4)
                0x00000000000006b4                __vector_offset_69 = DEFINED (__vector_dispatch_69)?(. - _ebase_address):__vector_offset_default
 *(.vector_69)
                0x000000009d00068c                . = ALIGN (0x4)
                0x00000000000006b4                __vector_offset_70 = DEFINED (__vector_dispatch_70)?(. - _ebase_address):__vector_offset_default
 *(.vector_70)
                0x000000009d00068c                . = ALIGN (0x4)
                0x00000000000006b4                __vector_offset_71 = DEFINED (__vector_dispatch_71)?(. - _ebase_address):__vector_offset_default
 *(.vector_71)
                0x000000009d00068c                . = ALIGN (0x4)
                0x00000000000006b4                __vector_offset_72 = DEFINED (__vector_dispatch_72)?(. - _ebase_address):__vector_offset_default
 *(.vector_72)
                0x000000009d00068c                . = ALIGN (0x4)
                0x00000000000006b4                __vector_offset_73 = DEFINED (__vector_dispatch_73)?(. - _ebase_address):__vector_offset_default
 *(.vector_73)
                0x000000009d00068c                . = ALIGN (0x4)
                0x00000000000006b4                __vector_offset_74 = DEFINED (__vector_dispatch_74)?(. - _ebase_address):__vector_offset_default
 *(.vector_74)
                0x000000009d00068c                . = ALIGN (0x4)
                0x00000000000006b4                __vector_offset_75 = DEFINED (__vector_dispatch_75)?(. - _ebase_address):__vector_offset_default
 *(.vector_75)
                0x000000009d00068c                . = ALIGN (0x4)
                0x00000000000006b4                __vector_offset_76 = DEFINED (__vector_dispatch_76)?(. - _ebase_address):__vector_offset_default
 *(.vector_76)
                0x000000009d00068c                . = ALIGN (0x4)
                0x00000000000006b4                __vector_offset_77 = DEFINED (__vector_dispatch_77)?(. - _ebase_address):__vector_offset_default
 *(.vector_77)
                0x000000009d00068c                . = ALIGN (0x4)
                0x00000000000006b4                __vector_offset_78 = DEFINED (__vector_dispatch_78)?(. - _ebase_address):__vector_offset_default
 *(.vector_78)
                0x000000009d00068c                . = ALIGN (0x4)
                0x00000000000006b4                __vector_offset_79 = DEFINED (__vector_dispatch_79)?(. - _ebase_address):__vector_offset_default
 *(.vector_79)
                0x000000009d00068c                . = ALIGN (0x4)
                0x00000000000006b4                __vector_offset_80 = DEFINED (__vector_dispatch_80)?(. - _ebase_address):__vector_offset_default
 *(.vector_80)
                0x000000009d00068c                . = ALIGN (0x4)
                0x00000000000006b4                __vector_offset_81 = DEFINED (__vector_dispatch_81)?(. - _ebase_address):__vector_offset_default
 *(.vector_81)
                0x000000009d00068c                . = ALIGN (0x4)
                0x00000000000006b4                __vector_offset_82 = DEFINED (__vector_dispatch_82)?(. - _ebase_address):__vector_offset_default
 *(.vector_82)
                0x000000009d00068c                . = ALIGN (0x4)
                0x00000000000006b4                __vector_offset_83 = DEFINED (__vector_dispatch_83)?(. - _ebase_address):__vector_offset_default
 *(.vector_83)
                0x000000009d00068c                . = ALIGN (0x4)
                0x00000000000006b4                __vector_offset_84 = DEFINED (__vector_dispatch_84)?(. - _ebase_address):__vector_offset_default
 *(.vector_84)
                0x000000009d00068c                . = ALIGN (0x4)
                0x00000000000006b4                __vector_offset_85 = DEFINED (__vector_dispatch_85)?(. - _ebase_address):__vector_offset_default
 *(.vector_85)
                0x000000009d00068c                . = ALIGN (0x4)
                0x00000000000006b4                __vector_offset_86 = DEFINED (__vector_dispatch_86)?(. - _ebase_address):__vector_offset_default
 *(.vector_86)
                0x000000009d00068c                . = ALIGN (0x4)
                0x00000000000006b4                __vector_offset_87 = DEFINED (__vector_dispatch_87)?(. - _ebase_address):__vector_offset_default
 *(.vector_87)
                0x000000009d00068c                . = ALIGN (0x4)
                0x00000000000006b4                __vector_offset_88 = DEFINED (__vector_dispatch_88)?(. - _ebase_address):__vector_offset_default
 *(.vector_88)
                0x000000009d00068c                . = ALIGN (0x4)
                0x00000000000006b4                __vector_offset_89 = DEFINED (__vector_dispatch_89)?(. - _ebase_address):__vector_offset_default
 *(.vector_89)
                0x000000009d00068c                . = ALIGN (0x4)
                0x00000000000006b4                __vector_offset_90 = DEFINED (__vector_dispatch_90)?(. - _ebase_address):__vector_offset_default
 *(.vector_90)
                0x000000009d00068c                . = ALIGN (0x4)
                0x00000000000006b4                __vector_offset_91 = DEFINED (__vector_dispatch_91)?(. - _ebase_address):__vector_offset_default
 *(.vector_91)
                0x000000009d00068c                . = ALIGN (0x4)
                0x00000000000006b4                __vector_offset_92 = DEFINED (__vector_dispatch_92)?(. - _ebase_address):__vector_offset_default
 *(.vector_92)
                0x000000009d00068c                . = ALIGN (0x4)
                0x00000000000006b4                __vector_offset_93 = DEFINED (__vector_dispatch_93)?(. - _ebase_address):__vector_offset_default
 *(.vector_93)
                0x000000009d00068c                . = ALIGN (0x4)
                0x00000000000006b4                __vector_offset_94 = DEFINED (__vector_dispatch_94)?(. - _ebase_address):__vector_offset_default
 *(.vector_94)
                0x000000009d00068c                . = ALIGN (0x4)
                0x00000000000006b4                __vector_offset_95 = DEFINED (__vector_dispatch_95)?(. - _ebase_address):__vector_offset_default
 *(.vector_95)
                0x000000009d00068c                . = ALIGN (0x4)
                0x00000000000006b4                __vector_offset_96 = DEFINED (__vector_dispatch_96)?(. - _ebase_address):__vector_offset_default
 *(.vector_96)
                0x000000009d00068c                . = ALIGN (0x4)
                0x00000000000006b4                __vector_offset_97 = DEFINED (__vector_dispatch_97)?(. - _ebase_address):__vector_offset_default
 *(.vector_97)
                0x000000009d00068c                . = ALIGN (0x4)
                0x00000000000006b4                __vector_offset_98 = DEFINED (__vector_dispatch_98)?(. - _ebase_address):__vector_offset_default
 *(.vector_98)
                0x000000009d00068c                . = ALIGN (0x4)
                0x00000000000006b4                __vector_offset_99 = DEFINED (__vector_dispatch_99)?(. - _ebase_address):__vector_offset_default
 *(.vector_99)
                0x000000009d00068c                . = ALIGN (0x4)
                0x00000000000006b4                __vector_offset_100 = DEFINED (__vector_dispatch_100)?(. - _ebase_address):__vector_offset_default
 *(.vector_100)
                0x000000009d00068c                . = ALIGN (0x4)
                0x00000000000006b4                __vector_offset_101 = DEFINED (__vector_dispatch_101)?(. - _ebase_address):__vector_offset_default
 *(.vector_101)
                0x000000009d00068c                . = ALIGN (0x4)
                0x00000000000006b4                __vector_offset_102 = DEFINED (__vector_dispatch_102)?(. - _ebase_address):__vector_offset_default
 *(.vector_102)
                0x000000009d00068c                . = ALIGN (0x4)
                0x00000000000006b4                __vector_offset_103 = DEFINED (__vector_dispatch_103)?(. - _ebase_address):__vector_offset_default
 *(.vector_103)
                0x000000009d00068c                . = ALIGN (0x4)
                0x00000000000006b4                __vector_offset_104 = DEFINED (__vector_dispatch_104)?(. - _ebase_address):__vector_offset_default
 *(.vector_104)
                0x000000009d00068c                . = ALIGN (0x4)
                0x00000000000006b4                __vector_offset_105 = DEFINED (__vector_dispatch_105)?(. - _ebase_address):__vector_offset_default
 *(.vector_105)
                0x000000009d00068c                . = ALIGN (0x4)
                0x00000000000006b4                __vector_offset_106 = DEFINED (__vector_dispatch_106)?(. - _ebase_address):__vector_offset_default
 *(.vector_106)
                0x000000009d00068c                . = ALIGN (0x4)
                0x00000000000006b4                __vector_offset_107 = DEFINED (__vector_dispatch_107)?(. - _ebase_address):__vector_offset_default
 *(.vector_107)
                0x000000009d00068c                . = ALIGN (0x4)
                0x00000000000006b4                __vector_offset_108 = DEFINED (__vector_dispatch_108)?(. - _ebase_address):__vector_offset_default
 *(.vector_108)
                0x000000009d00068c                . = ALIGN (0x4)
                0x00000000000006b4                __vector_offset_109 = DEFINED (__vector_dispatch_109)?(. - _ebase_address):__vector_offset_default
 *(.vector_109)
                0x000000009d00068c                . = ALIGN (0x4)
                0x00000000000006b4                __vector_offset_110 = DEFINED (__vector_dispatch_110)?(. - _ebase_address):__vector_offset_default
 *(.vector_110)
                0x000000009d00068c                . = ALIGN (0x4)
                0x00000000000006b4                __vector_offset_111 = DEFINED (__vector_dispatch_111)?(. - _ebase_address):__vector_offset_default
 *(.vector_111)
                0x000000009d00068c                . = ALIGN (0x4)
                0x00000000000006b4                __vector_offset_112 = DEFINED (__vector_dispatch_112)?(. - _ebase_address):__vector_offset_default
 *(.vector_112)
                0x000000009d00068c                . = ALIGN (0x4)
                0x00000000000006b4                __vector_offset_113 = DEFINED (__vector_dispatch_113)?(. - _ebase_address):__vector_offset_default
 *(.vector_113)
                0x000000009d00068c                . = ALIGN (0x4)
                0x00000000000006b4                __vector_offset_114 = DEFINED (__vector_dispatch_114)?(. - _ebase_address):__vector_offset_default
 *(.vector_114)
                0x000000009d00068c                . = ALIGN (0x4)
                0x00000000000006b4                __vector_offset_115 = DEFINED (__vector_dispatch_115)?(. - _ebase_address):__vector_offset_default
 *(.vector_115)
                0x000000009d00068c                . = ALIGN (0x4)
                0x00000000000006b4                __vector_offset_116 = DEFINED (__vector_dispatch_116)?(. - _ebase_address):__vector_offset_default
 *(.vector_116)
                0x000000009d00068c                . = ALIGN (0x4)
                0x00000000000006b4                __vector_offset_117 = DEFINED (__vector_dispatch_117)?(. - _ebase_address):__vector_offset_default
 *(.vector_117)
                0x000000009d00068c                . = ALIGN (0x4)
                0x00000000000006b4                __vector_offset_118 = DEFINED (__vector_dispatch_118)?(. - _ebase_address):__vector_offset_default
 *(.vector_118)
                0x000000009d00068c                . = ALIGN (0x4)
                0x00000000000006b4                __vector_offset_119 = DEFINED (__vector_dispatch_119)?(. - _ebase_address):__vector_offset_default
 *(.vector_119)
                0x000000009d00068c                . = ALIGN (0x4)
                0x00000000000006b4                __vector_offset_120 = DEFINED (__vector_dispatch_120)?(. - _ebase_address):__vector_offset_default
 *(.vector_120)
                0x000000009d00068c                . = ALIGN (0x4)
                0x00000000000006b4                __vector_offset_121 = DEFINED (__vector_dispatch_121)?(. - _ebase_address):__vector_offset_default
 *(.vector_121)
                0x000000009d00068c                . = ALIGN (0x4)
                0x00000000000006b4                __vector_offset_122 = DEFINED (__vector_dispatch_122)?(. - _ebase_address):__vector_offset_default
 *(.vector_122)
                0x000000009d00068c                . = ALIGN (0x4)
                0x00000000000006b4                __vector_offset_123 = DEFINED (__vector_dispatch_123)?(. - _ebase_address):__vector_offset_default
 *(.vector_123)
                0x000000009d00068c                . = ALIGN (0x4)
                0x00000000000006b4                __vector_offset_124 = DEFINED (__vector_dispatch_124)?(. - _ebase_address):__vector_offset_default
 *(.vector_124)
                0x000000009d00068c                . = ALIGN (0x4)
                0x00000000000006b4                __vector_offset_125 = DEFINED (__vector_dispatch_125)?(. - _ebase_address):__vector_offset_default
 *(.vector_125)
                0x000000009d00068c                . = ALIGN (0x4)
                0x00000000000006b4                __vector_offset_126 = DEFINED (__vector_dispatch_126)?(. - _ebase_address):__vector_offset_default
 *(.vector_126)
                0x000000009d00068c                . = ALIGN (0x4)
                0x00000000000006b4                __vector_offset_127 = DEFINED (__vector_dispatch_127)?(. - _ebase_address):__vector_offset_default
 *(.vector_127)
                0x000000009d00068c                . = ALIGN (0x4)
                0x00000000000006b4                __vector_offset_128 = DEFINED (__vector_dispatch_128)?(. - _ebase_address):__vector_offset_default
 *(.vector_128)
                0x000000009d00068c                . = ALIGN (0x4)
                0x00000000000006b4                __vector_offset_129 = DEFINED (__vector_dispatch_129)?(. - _ebase_address):__vector_offset_default
 *(.vector_129)
                0x000000009d00068c                . = ALIGN (0x4)
                0x00000000000006b4                __vector_offset_130 = DEFINED (__vector_dispatch_130)?(. - _ebase_address):__vector_offset_default
 *(.vector_130)
                0x000000009d00068c                . = ALIGN (0x4)
                0x00000000000006b4                __vector_offset_131 = DEFINED (__vector_dispatch_131)?(. - _ebase_address):__vector_offset_default
 *(.vector_131)
                0x000000009d00068c                . = ALIGN (0x4)
                0x00000000000006b4                __vector_offset_132 = DEFINED (__vector_dispatch_132)?(. - _ebase_address):__vector_offset_default
 *(.vector_132)
                0x000000009d00068c                . = ALIGN (0x4)
                0x00000000000006b4                __vector_offset_133 = DEFINED (__vector_dispatch_133)?(. - _ebase_address):__vector_offset_default
 *(.vector_133)
                0x000000009d00068c                . = ALIGN (0x4)
                0x00000000000006b4                __vector_offset_134 = DEFINED (__vector_dispatch_134)?(. - _ebase_address):__vector_offset_default
 *(.vector_134)
                0x000000009d00068c                . = ALIGN (0x4)
                0x00000000000006b4                __vector_offset_135 = DEFINED (__vector_dispatch_135)?(. - _ebase_address):__vector_offset_default
 *(.vector_135)
                0x000000009d00068c                . = ALIGN (0x4)
                0x00000000000006b4                __vector_offset_136 = DEFINED (__vector_dispatch_136)?(. - _ebase_address):__vector_offset_default
 *(.vector_136)
                0x000000009d00068c                . = ALIGN (0x4)
                0x00000000000006b4                __vector_offset_137 = DEFINED (__vector_dispatch_137)?(. - _ebase_address):__vector_offset_default
 *(.vector_137)
                0x000000009d00068c                . = ALIGN (0x4)
                0x00000000000006b4                __vector_offset_138 = DEFINED (__vector_dispatch_138)?(. - _ebase_address):__vector_offset_default
 *(.vector_138)
                0x000000009d00068c                . = ALIGN (0x4)
                0x00000000000006b4                __vector_offset_139 = DEFINED (__vector_dispatch_139)?(. - _ebase_address):__vector_offset_default
 *(.vector_139)
                0x000000009d00068c                . = ALIGN (0x4)
                0x00000000000006b4                __vector_offset_140 = DEFINED (__vector_dispatch_140)?(. - _ebase_address):__vector_offset_default
 *(.vector_140)
                0x000000009d00068c                . = ALIGN (0x4)
                0x00000000000006b4                __vector_offset_141 = DEFINED (__vector_dispatch_141)?(. - _ebase_address):__vector_offset_default
 *(.vector_141)
                0x000000009d00068c                . = ALIGN (0x4)
                0x00000000000006b4                __vector_offset_142 = DEFINED (__vector_dispatch_142)?(. - _ebase_address):__vector_offset_default
 *(.vector_142)
                0x000000009d00068c                . = ALIGN (0x4)
                0x00000000000006b4                __vector_offset_143 = DEFINED (__vector_dispatch_143)?(. - _ebase_address):__vector_offset_default
 *(.vector_143)
                0x000000009d00068c                . = ALIGN (0x4)
                0x00000000000006b4                __vector_offset_144 = DEFINED (__vector_dispatch_144)?(. - _ebase_address):__vector_offset_default
 *(.vector_144)
                0x000000009d00068c                . = ALIGN (0x4)
                0x000000000000068c                __vector_offset_145 = DEFINED (__vector_dispatch_145)?(. - _ebase_address):__vector_offset_default
 *(.vector_145)
 .vector_145    0x000000009d00068c        0x8 build/default/production/_ext/1171490990/interrupts.o
                0x000000009d00068c                __vector_dispatch_145
                0x000000009d000694                . = ALIGN (0x4)
                0x0000000000000694                __vector_offset_146 = DEFINED (__vector_dispatch_146)?(. - _ebase_address):__vector_offset_default
 *(.vector_146)
 .vector_146    0x000000009d000694        0x8 build/default/production/_ext/1171490990/interrupts.o
                0x000000009d000694                __vector_dispatch_146
                0x000000009d00069c                . = ALIGN (0x4)
                0x000000000000069c                __vector_offset_147 = DEFINED (__vector_dispatch_147)?(. - _ebase_address):__vector_offset_default
 *(.vector_147)
 .vector_147    0x000000009d00069c        0x8 build/default/production/_ext/1171490990/interrupts.o
                0x000000009d00069c                __vector_dispatch_147
                0x000000009d0006a4                . = ALIGN (0x4)
                0x00000000000006b4                __vector_offset_148 = DEFINED (__vector_dispatch_148)?(. - _ebase_address):__vector_offset_default
 *(.vector_148)
                0x000000009d0006a4                . = ALIGN (0x4)
                0x00000000000006b4                __vector_offset_149 = DEFINED (__vector_dispatch_149)?(. - _ebase_address):__vector_offset_default
 *(.vector_149)
                0x000000009d0006a4                . = ALIGN (0x4)
                0x00000000000006b4                __vector_offset_150 = DEFINED (__vector_dispatch_150)?(. - _ebase_address):__vector_offset_default
 *(.vector_150)
                0x000000009d0006a4                . = ALIGN (0x4)
                0x00000000000006b4                __vector_offset_151 = DEFINED (__vector_dispatch_151)?(. - _ebase_address):__vector_offset_default
 *(.vector_151)
                0x000000009d0006a4                . = ALIGN (0x4)
                0x00000000000006b4                __vector_offset_152 = DEFINED (__vector_dispatch_152)?(. - _ebase_address):__vector_offset_default
 *(.vector_152)
                0x000000009d0006a4                . = ALIGN (0x4)
                0x00000000000006a4                __vector_offset_153 = DEFINED (__vector_dispatch_153)?(. - _ebase_address):__vector_offset_default
 *(.vector_153)
 .vector_153    0x000000009d0006a4        0x8 build/default/production/_ext/1171490990/interrupts.o
                0x000000009d0006a4                __vector_dispatch_153
                0x000000009d0006ac                . = ALIGN (0x4)
                0x00000000000006b4                __vector_offset_154 = DEFINED (__vector_dispatch_154)?(. - _ebase_address):__vector_offset_default
 *(.vector_154)
                0x000000009d0006ac                . = ALIGN (0x4)
                0x00000000000006b4                __vector_offset_155 = DEFINED (__vector_dispatch_155)?(. - _ebase_address):__vector_offset_default
 *(.vector_155)
                0x000000009d0006ac                . = ALIGN (0x4)
                0x00000000000006b4                __vector_offset_156 = DEFINED (__vector_dispatch_156)?(. - _ebase_address):__vector_offset_default
 *(.vector_156)
                0x000000009d0006ac                . = ALIGN (0x4)
                0x00000000000006b4                __vector_offset_157 = DEFINED (__vector_dispatch_157)?(. - _ebase_address):__vector_offset_default
 *(.vector_157)
                0x000000009d0006ac                . = ALIGN (0x4)
                0x00000000000006b4                __vector_offset_158 = DEFINED (__vector_dispatch_158)?(. - _ebase_address):__vector_offset_default
 *(.vector_158)
                0x000000009d0006ac                . = ALIGN (0x4)
                0x00000000000006b4                __vector_offset_159 = DEFINED (__vector_dispatch_159)?(. - _ebase_address):__vector_offset_default
 *(.vector_159)
                0x000000009d0006ac                . = ALIGN (0x4)
                0x00000000000006b4                __vector_offset_160 = DEFINED (__vector_dispatch_160)?(. - _ebase_address):__vector_offset_default
 *(.vector_160)
                0x000000009d0006ac                . = ALIGN (0x4)
                0x00000000000006b4                __vector_offset_161 = DEFINED (__vector_dispatch_161)?(. - _ebase_address):__vector_offset_default
 *(.vector_161)
                0x000000009d0006ac                . = ALIGN (0x4)
                0x00000000000006b4                __vector_offset_162 = DEFINED (__vector_dispatch_162)?(. - _ebase_address):__vector_offset_default
 *(.vector_162)
                0x000000009d0006ac                . = ALIGN (0x4)
                0x00000000000006b4                __vector_offset_163 = DEFINED (__vector_dispatch_163)?(. - _ebase_address):__vector_offset_default
 *(.vector_163)
                0x000000009d0006ac                . = ALIGN (0x4)
                0x00000000000006b4                __vector_offset_164 = DEFINED (__vector_dispatch_164)?(. - _ebase_address):__vector_offset_default
 *(.vector_164)
                0x000000009d0006ac                . = ALIGN (0x4)
                0x00000000000006b4                __vector_offset_165 = DEFINED (__vector_dispatch_165)?(. - _ebase_address):__vector_offset_default
 *(.vector_165)
                0x000000009d0006ac                . = ALIGN (0x4)
                0x00000000000006b4                __vector_offset_166 = DEFINED (__vector_dispatch_166)?(. - _ebase_address):__vector_offset_default
 *(.vector_166)
                0x000000009d0006ac                . = ALIGN (0x4)
                0x00000000000006ac                __vector_offset_167 = DEFINED (__vector_dispatch_167)?(. - _ebase_address):__vector_offset_default
 *(.vector_167)
 .vector_167    0x000000009d0006ac        0x8 build/default/production/_ext/1171490990/interrupts.o
                0x000000009d0006ac                __vector_dispatch_167
                0x000000009d0006b4                . = ALIGN (0x4)
                0x00000000000006b4                __vector_offset_168 = DEFINED (__vector_dispatch_168)?(. - _ebase_address):__vector_offset_default
 *(.vector_168)
                0x000000009d0006b4                . = ALIGN (0x4)
                0x00000000000006b4                __vector_offset_169 = DEFINED (__vector_dispatch_169)?(. - _ebase_address):__vector_offset_default
 *(.vector_169)
                0x000000009d0006b4                . = ALIGN (0x4)
                0x00000000000006b4                __vector_offset_170 = DEFINED (__vector_dispatch_170)?(. - _ebase_address):__vector_offset_default
 *(.vector_170)
                0x000000009d0006b4                . = ALIGN (0x4)
                0x00000000000006b4                __vector_offset_171 = DEFINED (__vector_dispatch_171)?(. - _ebase_address):__vector_offset_default
 *(.vector_171)
                0x000000009d0006b4                . = ALIGN (0x4)
                0x00000000000006b4                __vector_offset_172 = DEFINED (__vector_dispatch_172)?(. - _ebase_address):__vector_offset_default
 *(.vector_172)
                0x000000009d0006b4                . = ALIGN (0x4)
                0x00000000000006b4                __vector_offset_173 = DEFINED (__vector_dispatch_173)?(. - _ebase_address):__vector_offset_default
 *(.vector_173)
                0x000000009d0006b4                . = ALIGN (0x4)
                0x00000000000006b4                __vector_offset_174 = DEFINED (__vector_dispatch_174)?(. - _ebase_address):__vector_offset_default
 *(.vector_174)
                0x000000009d0006b4                . = ALIGN (0x4)
                0x00000000000006b4                __vector_offset_175 = DEFINED (__vector_dispatch_175)?(. - _ebase_address):__vector_offset_default
 *(.vector_175)
                0x000000009d0006b4                . = ALIGN (0x4)
                0x00000000000006b4                __vector_offset_176 = DEFINED (__vector_dispatch_176)?(. - _ebase_address):__vector_offset_default
 *(.vector_176)
                0x000000009d0006b4                . = ALIGN (0x4)
                0x00000000000006b4                __vector_offset_177 = DEFINED (__vector_dispatch_177)?(. - _ebase_address):__vector_offset_default
 *(.vector_177)
                0x000000009d0006b4                . = ALIGN (0x4)
                0x00000000000006b4                __vector_offset_178 = DEFINED (__vector_dispatch_178)?(. - _ebase_address):__vector_offset_default
 *(.vector_178)
                0x000000009d0006b4                . = ALIGN (0x4)
                0x00000000000006b4                __vector_offset_179 = DEFINED (__vector_dispatch_179)?(. - _ebase_address):__vector_offset_default
 *(.vector_179)
                0x000000009d0006b4                . = ALIGN (0x4)
                0x00000000000006b4                __vector_offset_180 = DEFINED (__vector_dispatch_180)?(. - _ebase_address):__vector_offset_default
 *(.vector_180)
                0x000000009d0006b4                . = ALIGN (0x4)
                0x00000000000006b4                __vector_offset_181 = DEFINED (__vector_dispatch_181)?(. - _ebase_address):__vector_offset_default
 *(.vector_181)
                0x000000009d0006b4                . = ALIGN (0x4)
                0x00000000000006b4                __vector_offset_182 = DEFINED (__vector_dispatch_182)?(. - _ebase_address):__vector_offset_default
 *(.vector_182)
                0x000000009d0006b4                . = ALIGN (0x4)
                0x00000000000006b4                __vector_offset_183 = DEFINED (__vector_dispatch_183)?(. - _ebase_address):__vector_offset_default
 *(.vector_183)
                0x000000009d0006b4                . = ALIGN (0x4)
                0x00000000000006b4                __vector_offset_184 = DEFINED (__vector_dispatch_184)?(. - _ebase_address):__vector_offset_default
 *(.vector_184)
                0x000000009d0006b4                . = ALIGN (0x4)
                0x00000000000006b4                __vector_offset_185 = DEFINED (__vector_dispatch_185)?(. - _ebase_address):__vector_offset_default
 *(.vector_185)
                0x000000009d0006b4                . = ALIGN (0x4)
                0x00000000000006b4                __vector_offset_186 = DEFINED (__vector_dispatch_186)?(. - _ebase_address):__vector_offset_default
 *(.vector_186)
                0x000000009d0006b4                . = ALIGN (0x4)
                0x00000000000006b4                __vector_offset_187 = DEFINED (__vector_dispatch_187)?(. - _ebase_address):__vector_offset_default
 *(.vector_187)
                0x000000009d0006b4                . = ALIGN (0x4)
                0x00000000000006b4                __vector_offset_188 = DEFINED (__vector_dispatch_188)?(. - _ebase_address):__vector_offset_default
 *(.vector_188)
                0x000000009d0006b4                . = ALIGN (0x4)
                0x00000000000006b4                __vector_offset_189 = DEFINED (__vector_dispatch_189)?(. - _ebase_address):__vector_offset_default
 *(.vector_189)
                0x000000009d0006b4                . = ALIGN (0x4)
                0x00000000000006b4                __vector_offset_190 = DEFINED (__vector_dispatch_190)?(. - _ebase_address):__vector_offset_default
 *(.vector_190)
                0x000000009d0006b4                . = ALIGN (0x4)
                0x00000000000006b4                __vector_offset_191 = DEFINED (__vector_dispatch_191)?(. - _ebase_address):__vector_offset_default
 *(.vector_191)
                0x000000009d0006b4                . = ALIGN (0x4)
                0x00000000000006b4                __vector_offset_192 = DEFINED (__vector_dispatch_192)?(. - _ebase_address):__vector_offset_default
 *(.vector_192)
                0x000000009d0006b4                . = ALIGN (0x4)
                0x00000000000006b4                __vector_offset_193 = DEFINED (__vector_dispatch_193)?(. - _ebase_address):__vector_offset_default
 *(.vector_193)
                0x000000009d0006b4                . = ALIGN (0x4)
                0x00000000000006b4                __vector_offset_194 = DEFINED (__vector_dispatch_194)?(. - _ebase_address):__vector_offset_default
 *(.vector_194)
                0x000000009d0006b4                . = ALIGN (0x4)
                0x00000000000006b4                __vector_offset_195 = DEFINED (__vector_dispatch_195)?(. - _ebase_address):__vector_offset_default
 *(.vector_195)
                0x000000009d0006b4                . = ALIGN (0x4)
                0x00000000000006b4                __vector_offset_196 = DEFINED (__vector_dispatch_196)?(. - _ebase_address):__vector_offset_default
 *(.vector_196)
                0x000000009d0006b4                . = ALIGN (0x4)
                0x00000000000006b4                __vector_offset_197 = DEFINED (__vector_dispatch_197)?(. - _ebase_address):__vector_offset_default
 *(.vector_197)
                0x000000009d0006b4                . = ALIGN (0x4)
                0x00000000000006b4                __vector_offset_198 = DEFINED (__vector_dispatch_198)?(. - _ebase_address):__vector_offset_default
 *(.vector_198)
                0x000000009d0006b4                . = ALIGN (0x4)
                0x00000000000006b4                __vector_offset_199 = DEFINED (__vector_dispatch_199)?(. - _ebase_address):__vector_offset_default
 *(.vector_199)
                0x000000009d0006b4                . = ALIGN (0x4)
                0x00000000000006b4                __vector_offset_200 = DEFINED (__vector_dispatch_200)?(. - _ebase_address):__vector_offset_default
 *(.vector_200)
                0x000000009d0006b4                . = ALIGN (0x4)
                0x00000000000006b4                __vector_offset_201 = DEFINED (__vector_dispatch_201)?(. - _ebase_address):__vector_offset_default
 *(.vector_201)
                0x000000009d0006b4                . = ALIGN (0x4)
                0x00000000000006b4                __vector_offset_202 = DEFINED (__vector_dispatch_202)?(. - _ebase_address):__vector_offset_default
 *(.vector_202)
                0x000000009d0006b4                . = ALIGN (0x4)
                0x00000000000006b4                __vector_offset_203 = DEFINED (__vector_dispatch_203)?(. - _ebase_address):__vector_offset_default
 *(.vector_203)
                0x000000009d0006b4                . = ALIGN (0x4)
                0x00000000000006b4                __vector_offset_204 = DEFINED (__vector_dispatch_204)?(. - _ebase_address):__vector_offset_default
 *(.vector_204)
                0x000000009d0006b4                . = ALIGN (0x4)
                0x00000000000006b4                __vector_offset_205 = DEFINED (__vector_dispatch_205)?(. - _ebase_address):__vector_offset_default
 *(.vector_205)
                0x000000009d0006b4                . = ALIGN (0x4)
                0x00000000000006b4                __vector_offset_206 = DEFINED (__vector_dispatch_206)?(. - _ebase_address):__vector_offset_default
 *(.vector_206)
                0x000000009d0006b4                . = ALIGN (0x4)
                0x00000000000006b4                __vector_offset_207 = DEFINED (__vector_dispatch_207)?(. - _ebase_address):__vector_offset_default
 *(.vector_207)
                0x000000009d0006b4                . = ALIGN (0x4)
                0x00000000000006b4                __vector_offset_208 = DEFINED (__vector_dispatch_208)?(. - _ebase_address):__vector_offset_default
 *(.vector_208)
                0x000000009d0006b4                . = ALIGN (0x4)
                0x00000000000006b4                __vector_offset_209 = DEFINED (__vector_dispatch_209)?(. - _ebase_address):__vector_offset_default
 *(.vector_209)
                0x000000009d0006b4                . = ALIGN (0x4)
                0x00000000000006b4                __vector_offset_210 = DEFINED (__vector_dispatch_210)?(. - _ebase_address):__vector_offset_default
 *(.vector_210)
                0x000000009d0006b4                . = ALIGN (0x4)
                0x00000000000006b4                __vector_offset_211 = DEFINED (__vector_dispatch_211)?(. - _ebase_address):__vector_offset_default
 *(.vector_211)
                0x000000009d0006b4                . = ALIGN (0x4)
                0x00000000000006b4                __vector_offset_212 = DEFINED (__vector_dispatch_212)?(. - _ebase_address):__vector_offset_default
 *(.vector_212)
                0x000000009d0006b4                . = ALIGN (0x4)
                0x00000000000006b4                __vector_offset_213 = DEFINED (__vector_dispatch_213)?(. - _ebase_address):__vector_offset_default
 *(.vector_213)
                0x000000009d0006b4                . = ALIGN (0x4)
                0x00000000000006b4                __vector_offset_214 = DEFINED (__vector_dispatch_214)?(. - _ebase_address):__vector_offset_default
 *(.vector_214)
                0x000000009d0006b4                . = ALIGN (0x4)
                0x00000000000006b4                __vector_offset_215 = DEFINED (__vector_dispatch_215)?(. - _ebase_address):__vector_offset_default
 *(.vector_215)
                0x000000009d0006b4                . = ALIGN (0x4)
                0x00000000000006b4                __vector_offset_216 = DEFINED (__vector_dispatch_216)?(. - _ebase_address):__vector_offset_default
 *(.vector_216)
                0x000000009d0006b4                . = ALIGN (0x4)
                0x00000000000006b4                __vector_offset_217 = DEFINED (__vector_dispatch_217)?(. - _ebase_address):__vector_offset_default
 *(.vector_217)
                0x000000009d0006b4                . = ALIGN (0x4)
                0x00000000000006b4                __vector_offset_218 = DEFINED (__vector_dispatch_218)?(. - _ebase_address):__vector_offset_default
 *(.vector_218)
                0x000000009d0006b4                . = ALIGN (0x4)
                0x00000000000006b4                __vector_offset_219 = DEFINED (__vector_dispatch_219)?(. - _ebase_address):__vector_offset_default
 *(.vector_219)
                0x000000009d0006b4                . = ALIGN (0x4)
                0x00000000000006b4                __vector_offset_220 = DEFINED (__vector_dispatch_220)?(. - _ebase_address):__vector_offset_default
 *(.vector_220)
                0x000000009d0006b4                . = ALIGN (0x4)
                0x00000000000006b4                __vector_offset_221 = DEFINED (__vector_dispatch_221)?(. - _ebase_address):__vector_offset_default
 *(.vector_221)
                0x000000009d0006b4                . = ALIGN (0x4)
                0x00000000000006b4                __vector_offset_222 = DEFINED (__vector_dispatch_222)?(. - _ebase_address):__vector_offset_default
 *(.vector_222)
                0x000000009d0006b4                . = ALIGN (0x4)
                0x00000000000006b4                __vector_offset_223 = DEFINED (__vector_dispatch_223)?(. - _ebase_address):__vector_offset_default
 *(.vector_223)
                0x000000009d0006b4                . = ALIGN (0x4)
                0x00000000000006b4                __vector_offset_224 = DEFINED (__vector_dispatch_224)?(. - _ebase_address):__vector_offset_default
 *(.vector_224)
                0x000000009d0006b4                . = ALIGN (0x4)
                0x00000000000006b4                __vector_offset_225 = DEFINED (__vector_dispatch_225)?(. - _ebase_address):__vector_offset_default
 *(.vector_225)
                0x000000009d0006b4                . = ALIGN (0x4)
                0x00000000000006b4                __vector_offset_226 = DEFINED (__vector_dispatch_226)?(. - _ebase_address):__vector_offset_default
 *(.vector_226)
                0x000000009d0006b4                . = ALIGN (0x4)
                0x00000000000006b4                __vector_offset_227 = DEFINED (__vector_dispatch_227)?(. - _ebase_address):__vector_offset_default
 *(.vector_227)
                0x000000009d0006b4                . = ALIGN (0x4)
                0x00000000000006b4                __vector_offset_228 = DEFINED (__vector_dispatch_228)?(. - _ebase_address):__vector_offset_default
 *(.vector_228)
                0x000000009d0006b4                . = ALIGN (0x4)
                0x00000000000006b4                __vector_offset_229 = DEFINED (__vector_dispatch_229)?(. - _ebase_address):__vector_offset_default
 *(.vector_229)
                0x000000009d0006b4                . = ALIGN (0x4)
                0x00000000000006b4                __vector_offset_230 = DEFINED (__vector_dispatch_230)?(. - _ebase_address):__vector_offset_default
 *(.vector_230)
                0x000000009d0006b4                . = ALIGN (0x4)
                0x00000000000006b4                __vector_offset_231 = DEFINED (__vector_dispatch_231)?(. - _ebase_address):__vector_offset_default
 *(.vector_231)
                0x000000009d0006b4                . = ALIGN (0x4)
                0x00000000000006b4                __vector_offset_232 = DEFINED (__vector_dispatch_232)?(. - _ebase_address):__vector_offset_default
 *(.vector_232)
                0x000000009d0006b4                . = ALIGN (0x4)
                0x00000000000006b4                __vector_offset_233 = DEFINED (__vector_dispatch_233)?(. - _ebase_address):__vector_offset_default
 *(.vector_233)
                0x000000009d0006b4                . = ALIGN (0x4)
                0x00000000000006b4                __vector_offset_234 = DEFINED (__vector_dispatch_234)?(. - _ebase_address):__vector_offset_default
 *(.vector_234)
                0x000000009d0006b4                . = ALIGN (0x4)
                0x00000000000006b4                __vector_offset_235 = DEFINED (__vector_dispatch_235)?(. - _ebase_address):__vector_offset_default
 *(.vector_235)
                0x000000009d0006b4                . = ALIGN (0x4)
                0x00000000000006b4                __vector_offset_236 = DEFINED (__vector_dispatch_236)?(. - _ebase_address):__vector_offset_default
 *(.vector_236)
                0x000000009d0006b4                . = ALIGN (0x4)
                0x00000000000006b4                __vector_offset_237 = DEFINED (__vector_dispatch_237)?(. - _ebase_address):__vector_offset_default
 *(.vector_237)
                0x000000009d0006b4                . = ALIGN (0x4)
                0x00000000000006b4                __vector_offset_238 = DEFINED (__vector_dispatch_238)?(. - _ebase_address):__vector_offset_default
 *(.vector_238)
                0x000000009d0006b4                . = ALIGN (0x4)
                0x00000000000006b4                __vector_offset_239 = DEFINED (__vector_dispatch_239)?(. - _ebase_address):__vector_offset_default
 *(.vector_239)
                0x000000009d0006b4                . = ALIGN (0x4)
                0x00000000000006b4                __vector_offset_240 = DEFINED (__vector_dispatch_240)?(. - _ebase_address):__vector_offset_default
 *(.vector_240)
                0x000000009d0006b4                . = ALIGN (0x4)
                0x00000000000006b4                __vector_offset_241 = DEFINED (__vector_dispatch_241)?(. - _ebase_address):__vector_offset_default
 *(.vector_241)
                0x000000009d0006b4                . = ALIGN (0x4)
                0x00000000000006b4                __vector_offset_242 = DEFINED (__vector_dispatch_242)?(. - _ebase_address):__vector_offset_default
 *(.vector_242)
                0x000000009d0006b4                . = ALIGN (0x4)
                0x00000000000006b4                __vector_offset_243 = DEFINED (__vector_dispatch_243)?(. - _ebase_address):__vector_offset_default
 *(.vector_243)
                0x000000009d0006b4                . = ALIGN (0x4)
                0x00000000000006b4                __vector_offset_244 = DEFINED (__vector_dispatch_244)?(. - _ebase_address):__vector_offset_default
 *(.vector_244)
                0x000000009d0006b4                . = ALIGN (0x4)
                0x00000000000006b4                __vector_offset_245 = DEFINED (__vector_dispatch_245)?(. - _ebase_address):__vector_offset_default
 *(.vector_245)
                0x000000009d0006b4                . = ALIGN (0x4)
                0x00000000000006b4                __vector_offset_246 = DEFINED (__vector_dispatch_246)?(. - _ebase_address):__vector_offset_default
 *(.vector_246)
                0x000000009d0006b4                . = ALIGN (0x4)
                0x00000000000006b4                __vector_offset_247 = DEFINED (__vector_dispatch_247)?(. - _ebase_address):__vector_offset_default
 *(.vector_247)
                0x000000009d0006b4                . = ALIGN (0x4)
                0x00000000000006b4                __vector_offset_248 = DEFINED (__vector_dispatch_248)?(. - _ebase_address):__vector_offset_default
 *(.vector_248)
                0x000000009d0006b4                . = ALIGN (0x4)
                0x00000000000006b4                __vector_offset_249 = DEFINED (__vector_dispatch_249)?(. - _ebase_address):__vector_offset_default
 *(.vector_249)
                0x000000009d0006b4                . = ALIGN (0x4)
                0x00000000000006b4                __vector_offset_250 = DEFINED (__vector_dispatch_250)?(. - _ebase_address):__vector_offset_default
 *(.vector_250)
                0x000000009d0006b4                . = ALIGN (0x4)
                0x00000000000006b4                __vector_offset_251 = DEFINED (__vector_dispatch_251)?(. - _ebase_address):__vector_offset_default
 *(.vector_251)
                0x000000009d0006b4                . = ALIGN (0x4)
                0x00000000000006b4                __vector_offset_252 = DEFINED (__vector_dispatch_252)?(. - _ebase_address):__vector_offset_default
 *(.vector_252)
                0x000000009d0006b4                . = ALIGN (0x4)
                0x00000000000006b4                __vector_offset_253 = DEFINED (__vector_dispatch_253)?(. - _ebase_address):__vector_offset_default
 *(.vector_253)
                0x000000009d0006b4                . = ALIGN (0x4)
                0x00000000000006b4                __vector_offset_254 = DEFINED (__vector_dispatch_254)?(. - _ebase_address):__vector_offset_default
 *(.vector_254)
                0x000000009d0006b4                . = ALIGN (0x4)
                0x00000000000006b4                __vector_offset_255 = DEFINED (__vector_dispatch_255)?(. - _ebase_address):__vector_offset_default
 *(.vector_255)
                0x000000009d0006b4                . = ALIGN (0x4)
                0x00000000000006b4                __vector_offset_default = (. - _ebase_address)
 *(.vector_default)
 .vector_default
                0x000000009d0006b4       0x48 y:/program files/microchip/xc32/v3.01/bin/bin/../../lib/gcc/pic32mx/8.3.1/../../../../pic32mx/lib/fpu64\libpic32.a(defaultinterrupt.o)
                0x000000009d0006b4                _DefaultInterrupt

.startup
 *(.startup)

.text           0x000000009d0006fc        0x0
 *(.stub .gnu.linkonce.t.*)
 *(.text.*personality*)
 *(.mips16.fn.*)
 *(.mips16.call.*)
 *(.gnu.warning)
                0x000000009d0006fc                . = ALIGN (0x4)

.init           0x000000009d0006fc        0x0
 *crti.o(.init)
 *crtbegin.o(.init)
 *(EXCLUDE_FILE(*crtn.o *crtend?.o *crtend.o) .init)
 *crtend.o(.init)
 *crtn.o(.init)
                0x000000009d0006fc                . = ALIGN (0x4)

.fini           0x000000009d0006fc        0x0
 *(.fini)
                0x000000009d0006fc                . = ALIGN (0x4)

.preinit_array  0x000000009d0006fc        0x0
                [!provide]                        PROVIDE (__preinit_array_start = .)
 *(.preinit_array)
                [!provide]                        PROVIDE (__preinit_array_end = .)
                0x000000009d0006fc                . = ALIGN (0x4)

.init_array     0x000000009d0006fc        0x0
                [!provide]                        PROVIDE (__init_array_start = .)
 *(SORT_BY_NAME(.init_array.*))
 *(.init_array)
                [!provide]                        PROVIDE (__init_array_end = .)
                0x000000009d0006fc                . = ALIGN (0x4)

.fini_array     0x000000009d0006fc        0x0
                [!provide]                        PROVIDE (__fini_array_start = .)
 *(SORT_BY_NAME(.fini_array.*))
 *(.fini_array)
                [!provide]                        PROVIDE (__fini_array_end = .)
                0x000000009d0006fc                . = ALIGN (0x4)

.ctors          0x000000009d0006fc        0x0
 *crtbegin.o(.ctors)
 *crtbegin?.o(.ctors)
 *(EXCLUDE_FILE(*crtend?.o *crtend.o) .ctors)
 *(SORT_BY_NAME(.ctors.*))
 *(.ctors)
                0x000000009d0006fc                . = ALIGN (0x4)

.dtors          0x000000009d0006fc        0x0
 *crtbegin.o(.dtors)
 *crtbegin?.o(.dtors)
 *(EXCLUDE_FILE(*crtend?.o *crtend.o) .dtors)
 *(SORT_BY_NAME(.dtors.*))
 *(.dtors)
                0x000000009d0006fc                . = ALIGN (0x4)

.rodata         0x000000009d0006fc        0x0
 *(.gnu.linkonce.r.*)
 *(.rodata1)
                0x000000009d0006fc                . = ALIGN (0x4)

.sdata2         0x000000009d0006fc        0x0
 *(.sdata2 .sdata2.* .gnu.linkonce.s2.*)
                0x000000009d0006fc                . = ALIGN (0x4)

.sbss2          0x000000009d0006fc        0x0
 *(.sbss2 .sbss2.* .gnu.linkonce.sb2.*)
                0x000000009d0006fc                . = ALIGN (0x4)

.eh_frame_hdr
 *(.eh_frame_hdr)
                0x000000009d0006fc                . = ALIGN (0x4)

.eh_frame
 *(.eh_frame)
                0x000000009d0006fc                . = ALIGN (0x4)

.gcc_except_table
 *(.gcc_except_table .gcc_except_table.*)
                0x000000009d0006fc                . = ALIGN (0x4)

.dbg_data       0x0000000080000000        0x0
                0x0000000080000000                . = (. + DEFINED (_DEBUGGER)?0x200:0x0)
                0x0000000080000000                . = (. + DEFINED (_DEBUGGER)?0x80:0x0)
                0x0000000080000000                . = (. + DEFINED (_DEBUGGER)?0x100:0x0)

.jcr            0x0000000080000000        0x0
 *(.jcr)
                0x0000000080000000                . = ALIGN (0x4)

.eh_frame
 *(.eh_frame)
                0x0000000080000000                . = ALIGN (0x4)

.gcc_except_table
 *(.gcc_except_table .gcc_except_table.*)
                0x0000000080000000                . = ALIGN (0x4)

.persist        0x0000000080000000        0x0
                0x0000000080000000                _persist_begin = .
 *(.persist .persist.*)
                0x0000000080000000                . = ALIGN (0x4)
                0x0000000080000000                _persist_end = .

.data           0x0000000080000000        0x0
 *(.gnu.linkonce.d.*)
 *(.data1)
                0x0000000080000000                . = ALIGN (0x4)
                0x0000000080000000                . = .
                0x0000000080007ff0                _gp = (ALIGN (0x10) + 0x7ff0)

.got            0x0000000080000000        0x0
 *(.got.plt)
 *(.got)
                0x0000000080000000                . = ALIGN (0x4)

.sdata          0x0000000080000000       0x40
                0x0000000080000000                _sdata_begin = .
 *(.sdata .sdata.* .gnu.linkonce.s.*)
 .sdata         0x0000000080000000        0x6 build/default/production/_ext/1033058136/arp.o
 *fill*         0x0000000080000006        0x2 
 .sdata         0x0000000080000008        0x4 build/default/production/_ext/1033058136/tcpip_manager.o
 .sdata         0x000000008000000c        0x2 build/default/production/_ext/1033058136/sntp.o
 .sdata         0x000000008000000e        0x2 build/default/production/_ext/101884895/sys_time.o
 .sdata         0x0000000080000010        0x4 build/default/production/_ext/951553246/port.o
                0x0000000080000010                uxInterruptNesting
 .sdata         0x0000000080000014        0x8 build/default/production/_ext/1360937237/app.o
 .sdata         0x000000008000001c       0x24 y:/program files/microchip/xc32/v3.01/bin/bin/../../lib/gcc/pic32mx/8.3.1/../../../../pic32mx/lib/fpu64\libpic32.a(pic32_init_cache.o)
                0x000000008000001c                __pic32_icache_size
                0x0000000080000020                __pic32_icache_linesize
                0x0000000080000024                __pic32_icache_ways
                0x0000000080000028                __pic32_dcache_size
                0x000000008000002c                __pic32_dcache_linesize
                0x0000000080000030                __pic32_dcache_ways
                0x0000000080000034                __pic32_scache_size
                0x0000000080000038                __pic32_scache_linesize
                0x000000008000003c                __pic32_scache_ways
                0x0000000080000040                . = ALIGN (0x4)
                0x0000000080000040                _sdata_end = .

.lit8
 *(.lit8)

.lit4
 *(.lit4)
                0x0000000080000040                . = ALIGN (0x4)
                0x0000000080000040                _data_end = .
                0x0000000080000040                _bss_begin = .

.sbss           0x0000000080000040      0x15c
                0x0000000080000040                _sbss_begin = .
 *(.dynsbss)
 *(.sbss .sbss.* .gnu.linkonce.sb.*)
 .sbss          0x0000000080000040        0x4 build/default/production/_ext/732082881/drv_ethmac.o
 .sbss          0x0000000080000044        0x8 build/default/production/_ext/1033058136/icmp.o
 .sbss          0x000000008000004c       0x1e build/default/production/_ext/1033058136/ipv4.o
 *fill*         0x000000008000006a        0x2 
 .sbss          0x000000008000006c       0x20 build/default/production/_ext/1033058136/dhcp.o
 .sbss          0x000000008000008c       0x28 build/default/production/_ext/1033058136/tcpip_manager.o
 .sbss          0x00000000800000b4        0x4 build/default/production/_ext/1033058136/tcpip_packet.o
 .sbss          0x00000000800000b8       0x38 build/default/production/_ext/1033058136/sntp.o
 .sbss          0x00000000800000f0       0x1c build/default/production/_ext/1033058136/udp.o
 .sbss          0x000000008000010c        0x8 build/default/production/_ext/1249264884/plib_coretimer.o
                0x000000008000010c                coreTmr
 .sbss          0x0000000080000114        0x8 build/default/production/_ext/60176403/plib_nvm.o
                0x0000000080000114                nvmContext
                0x0000000080000118                nvmCallbackFunc
 .sbss          0x000000008000011c       0x10 build/default/production/_ext/1376093119/sys_command.o
 .sbss          0x000000008000012c        0x2 build/default/production/_ext/1832805299/sys_console.o
 *fill*         0x000000008000012e        0x2 
 .sbss          0x0000000080000130        0xc build/default/production/_ext/944882569/sys_debug.o
                0x0000000080000130                gblErrLvl
 .sbss          0x000000008000013c        0x8 build/default/production/_ext/753841488/sys_time_h2_adapter.o
 .sbss          0x0000000080000144        0x8 build/default/production/_ext/1665200909/heap_1.o
 .sbss          0x000000008000014c        0x4 build/default/production/_ext/951553246/port.o
                0x000000008000014c                uxSavedTaskStackPointer
 .sbss          0x0000000080000150       0x3c build/default/production/_ext/404212886/FreeRTOS_tasks.o
                0x0000000080000188                pxCurrentTCB
 .sbss          0x000000008000018c        0x5 build/default/production/_ext/1360937237/app.o
                0x000000008000018c                cbackUTC
                0x0000000080000190                getSNTP
 *fill*         0x0000000080000191        0x3 
 .sbss          0x0000000080000194        0x8 build/default/production/_ext/1360937237/main.o
                0x0000000080000194                i
                0x0000000080000198                local
 *(.scommon)
                0x000000008000019c                _sbss_end = .
                0x000000008000019c                . = ALIGN (0x4)

.bss            0x000000008000019c        0x0
 *(.dynbss)
 *(COMMON)
                0x000000008000019c                . = ALIGN ((. != 0x0)?0x4:0x1)
                0x000000008000019c                . = ALIGN (0x4)
                0x000000008000019c                _end = .
                0x000000008000019c                _bss_end = .
                0x0000000000080000                _bmxdudba_address = LENGTH (kseg0_data_mem)
                0x0000000000080000                _bmxdupba_address = LENGTH (kseg0_data_mem)

/DISCARD/
 *(.pdr)
 *(.rel.dyn)
 *(.note.GNU-stack)
 *(.note.GNU-stack)
 *(.gnu_debuglink)
 *(.gnu.lto_*)
 *(.discard)

.gptab.sdata
 *(.gptab.data)
 *(.gptab.sdata)

.gptab.sbss
 *(.gptab.bss)
 *(.gptab.sbss)

.mdebug.abi32   0x0000000000000000        0x0
 *(.mdebug.abi32)
 .mdebug.abi32  0x0000000000000000        0x0 build/default/production/_ext/1434821282/bsp.o
 .mdebug.abi32  0x0000000000000000        0x0 build/default/production/_ext/732082881/drv_ethmac.o
 .mdebug.abi32  0x0000000000000000        0x0 build/default/production/_ext/732082881/drv_ethmac_lib.o
 .mdebug.abi32  0x0000000000000000        0x0 build/default/production/_ext/732082881/drv_eth_pic32_lib.o
 .mdebug.abi32  0x0000000000000000        0x0 build/default/production/_ext/444070925/drv_ethphy.o
 .mdebug.abi32  0x0000000000000000        0x0 build/default/production/_ext/444070925/drv_extphy_smsc8740.o
 .mdebug.abi32  0x0000000000000000        0x0 build/default/production/_ext/438849557/drv_miim.o
 .mdebug.abi32  0x0000000000000000        0x0 build/default/production/_ext/1033058136/helpers.o
 .mdebug.abi32  0x0000000000000000        0x0 build/default/production/_ext/1033058136/icmp.o
 .mdebug.abi32  0x0000000000000000        0x0 build/default/production/_ext/1033058136/arp.o
 .mdebug.abi32  0x0000000000000000        0x0 build/default/production/_ext/1033058136/ipv4.o
 .mdebug.abi32  0x0000000000000000        0x0 build/default/production/_ext/1033058136/tcpip_heap_alloc.o
 .mdebug.abi32  0x0000000000000000        0x0 build/default/production/_ext/1033058136/tcpip_heap_internal.o
 .mdebug.abi32  0x0000000000000000        0x0 build/default/production/_ext/1033058136/dhcp.o
 .mdebug.abi32  0x0000000000000000        0x0 build/default/production/_ext/1033058136/dns.o
 .mdebug.abi32  0x0000000000000000        0x0 build/default/production/_ext/1033058136/hash_fnv.o
 .mdebug.abi32  0x0000000000000000        0x0 build/default/production/_ext/1033058136/oahash.o
 .mdebug.abi32  0x0000000000000000        0x0 build/default/production/_ext/1033058136/tcpip_helpers.o
 .mdebug.abi32  0x0000000000000000        0x0 build/default/production/_ext/1033058136/tcpip_manager.o
 .mdebug.abi32  0x0000000000000000        0x0 build/default/production/_ext/1033058136/tcpip_notify.o
 .mdebug.abi32  0x0000000000000000        0x0 build/default/production/_ext/1033058136/tcpip_packet.o
 .mdebug.abi32  0x0000000000000000        0x0 build/default/production/_ext/1033058136/sntp.o
 .mdebug.abi32  0x0000000000000000        0x0 build/default/production/_ext/1033058136/udp.o
 .mdebug.abi32  0x0000000000000000        0x0 build/default/production/_ext/60165520/plib_clk.o
 .mdebug.abi32  0x0000000000000000        0x0 build/default/production/_ext/1249264884/plib_coretimer.o
 .mdebug.abi32  0x0000000000000000        0x0 build/default/production/_ext/1865200349/plib_evic.o
 .mdebug.abi32  0x0000000000000000        0x0 build/default/production/_ext/1865254177/plib_gpio.o
 .mdebug.abi32  0x0000000000000000        0x0 build/default/production/_ext/60176403/plib_nvm.o
 .mdebug.abi32  0x0000000000000000        0x0 build/default/production/_ext/1865585524/plib_rtcc.o
 .mdebug.abi32  0x0000000000000000        0x0 build/default/production/_ext/1865657120/plib_uart2.o
 .mdebug.abi32  0x0000000000000000        0x0 build/default/production/_ext/163028504/xc32_monitor.o
 .mdebug.abi32  0x0000000000000000        0x0 build/default/production/_ext/1376093119/sys_command.o
 .mdebug.abi32  0x0000000000000000        0x0 build/default/production/_ext/1832805299/sys_console_uart.o
 .mdebug.abi32  0x0000000000000000        0x0 build/default/production/_ext/1832805299/sys_console.o
 .mdebug.abi32  0x0000000000000000        0x0 build/default/production/_ext/944882569/sys_debug.o
 .mdebug.abi32  0x0000000000000000        0x0 build/default/production/_ext/1881668453/sys_int.o
 .mdebug.abi32  0x0000000000000000        0x0 build/default/production/_ext/1000052432/sys_reset.o
 .mdebug.abi32  0x0000000000000000        0x0 build/default/production/_ext/101884895/sys_time.o
 .mdebug.abi32  0x0000000000000000        0x0 build/default/production/_ext/753841488/sys_time_h2_adapter.o
 .mdebug.abi32  0x0000000000000000        0x0 build/default/production/_ext/1171490990/tasks.o
 .mdebug.abi32  0x0000000000000000        0x0 build/default/production/_ext/1171490990/initialization.o
 .mdebug.abi32  0x0000000000000000        0x0 build/default/production/_ext/1171490990/interrupts.o
 .mdebug.abi32  0x0000000000000000        0x0 build/default/production/_ext/1171490990/exceptions.o
 .mdebug.abi32  0x0000000000000000        0x0 build/default/production/_ext/1171490990/freertos_hooks.o
 .mdebug.abi32  0x0000000000000000        0x0 build/default/production/_ext/1665200909/heap_1.o
 .mdebug.abi32  0x0000000000000000        0x0 build/default/production/_ext/951553246/port.o
 .mdebug.abi32  0x0000000000000000        0x0 build/default/production/_ext/404212886/croutine.o
 .mdebug.abi32  0x0000000000000000        0x0 build/default/production/_ext/404212886/list.o
 .mdebug.abi32  0x0000000000000000        0x0 build/default/production/_ext/404212886/queue.o
 .mdebug.abi32  0x0000000000000000        0x0 build/default/production/_ext/404212886/FreeRTOS_tasks.o
 .mdebug.abi32  0x0000000000000000        0x0 build/default/production/_ext/404212886/timers.o
 .mdebug.abi32  0x0000000000000000        0x0 build/default/production/_ext/404212886/event_groups.o
 .mdebug.abi32  0x0000000000000000        0x0 build/default/production/_ext/404212886/stream_buffer.o
 .mdebug.abi32  0x0000000000000000        0x0 build/default/production/_ext/1360937237/app.o
 .mdebug.abi32  0x0000000000000000        0x0 build/default/production/_ext/1360937237/main.o
 .mdebug.abi32  0x0000000000000000        0x0 y:/program files/microchip/xc32/v3.01/bin/bin/../../lib/gcc/pic32mx/8.3.1/fpu64\libgcc.a(_udivdi3.o)
 .mdebug.abi32  0x0000000000000000        0x0 y:/program files/microchip/xc32/v3.01/bin/bin/../../lib/gcc/pic32mx/8.3.1/../../../../pic32mx/lib/fpu64\libpic32.a(default-on-reset.o)
 .mdebug.abi32  0x0000000000000000        0x0 y:/program files/microchip/xc32/v3.01/bin/bin/../../lib/gcc/pic32mx/8.3.1/../../../../pic32mx/lib/fpu64\libpic32.a(default-on-bootstrap.o)
 .mdebug.abi32  0x0000000000000000        0x0 y:/program files/microchip/xc32/v3.01/bin/bin/../../lib/gcc/pic32mx/8.3.1/../../../../pic32mx/lib/fpu64\libpic32.a(defaultinterrupt.o)
 .mdebug.abi32  0x0000000000000000        0x0 y:/program files/microchip/xc32/v3.01/bin/bin/../../lib/gcc/pic32mx/8.3.1/../../../../pic32mx/lib/fpu64\libc.a(calloc.o)
 .mdebug.abi32  0x0000000000000000        0x0 y:/program files/microchip/xc32/v3.01/bin/bin/../../lib/gcc/pic32mx/8.3.1/../../../../pic32mx/lib/fpu64\libc.a(ctype.o)
 .mdebug.abi32  0x0000000000000000        0x0 y:/program files/microchip/xc32/v3.01/bin/bin/../../lib/gcc/pic32mx/8.3.1/../../../../pic32mx/lib/fpu64\libc.a(ctypef.o)
 .mdebug.abi32  0x0000000000000000        0x0 y:/program files/microchip/xc32/v3.01/bin/bin/../../lib/gcc/pic32mx/8.3.1/../../../../pic32mx/lib/fpu64\libc.a(malloc.o)
 .mdebug.abi32  0x0000000000000000        0x0 y:/program files/microchip/xc32/v3.01/bin/bin/../../lib/gcc/pic32mx/8.3.1/../../../../pic32mx/lib/fpu64\libc.a(rand.o)
 .mdebug.abi32  0x0000000000000000        0x0 y:/program files/microchip/xc32/v3.01/bin/bin/../../lib/gcc/pic32mx/8.3.1/../../../../pic32mx/lib/fpu64\libc.a(strchr.o)
 .mdebug.abi32  0x0000000000000000        0x0 y:/program files/microchip/xc32/v3.01/bin/bin/../../lib/gcc/pic32mx/8.3.1/../../../../pic32mx/lib/fpu64\libc.a(strncmp.o)
 .mdebug.abi32  0x0000000000000000        0x0 y:/program files/microchip/xc32/v3.01/bin/bin/../../lib/gcc/pic32mx/8.3.1/../../../../pic32mx/lib/fpu64\libc.a(strncpy.o)
 .mdebug.abi32  0x0000000000000000        0x0 y:/program files/microchip/xc32/v3.01/bin/bin/../../lib/gcc/pic32mx/8.3.1/../../../../pic32mx/lib/fpu64\libc.a(strtok.o)
 .mdebug.abi32  0x0000000000000000        0x0 y:/program files/microchip/xc32/v3.01/bin/bin/../../lib/gcc/pic32mx/8.3.1/../../../../pic32mx/lib/fpu64\libc.a(strtol.o)
 .mdebug.abi32  0x0000000000000000        0x0 y:/program files/microchip/xc32/v3.01/bin/bin/../../lib/gcc/pic32mx/8.3.1/../../../../pic32mx/lib/fpu64\libc.a(snprintf_cdnopsuxX.eo)
 .mdebug.abi32  0x0000000000000000        0x0 y:/program files/microchip/xc32/v3.01/bin/bin/../../lib/gcc/pic32mx/8.3.1/../../../../pic32mx/lib/fpu64\libc.a(sprintf_cdnopsuxX.eo)
 .mdebug.abi32  0x0000000000000000        0x0 y:/program files/microchip/xc32/v3.01/bin/bin/../../lib/gcc/pic32mx/8.3.1/../../../../pic32mx/lib/fpu64\libc.a(sprintf_cdnopuxX.eo)
 .mdebug.abi32  0x0000000000000000        0x0 y:/program files/microchip/xc32/v3.01/bin/bin/../../lib/gcc/pic32mx/8.3.1/../../../../pic32mx/lib/fpu64\libc.a(vsnprintf_cdnopsuxX.eo)
 .mdebug.abi32  0x0000000000000000        0x0 y:/program files/microchip/xc32/v3.01/bin/bin/../../lib/gcc/pic32mx/8.3.1/../../../../pic32mx/lib/fpu64\libc.a(vsnprintf.o)
 .mdebug.abi32  0x0000000000000000        0x0 y:/program files/microchip/xc32/v3.01/bin/bin/../../lib/gcc/pic32mx/8.3.1/../../../../pic32mx/lib/fpu64\libc.a(errno.o)
 .mdebug.abi32  0x0000000000000000        0x0 y:/program files/microchip/xc32/v3.01/bin/bin/../../lib/gcc/pic32mx/8.3.1/../../../../pic32mx/lib/fpu64\libc.a(strcspn.o)
 .mdebug.abi32  0x0000000000000000        0x0 y:/program files/microchip/xc32/v3.01/bin/bin/../../lib/gcc/pic32mx/8.3.1/../../../../pic32mx/lib/fpu64\libc.a(strspn.o)
 .mdebug.abi32  0x0000000000000000        0x0 y:/program files/microchip/xc32/v3.01/bin/bin/../../lib/gcc/pic32mx/8.3.1/../../../../pic32mx/lib/fpu64\libc.a(doprnt_cdnopsuxX.eo)
 .mdebug.abi32  0x0000000000000000        0x0 y:/program files/microchip/xc32/v3.01/bin/bin/../../lib/gcc/pic32mx/8.3.1/../../../../pic32mx/lib/fpu64\libc.a(doprnt_cdnopuxX.eo)
 .mdebug.abi32  0x0000000000000000        0x0 y:/program files/microchip/xc32/v3.01/bin/bin/../../lib/gcc/pic32mx/8.3.1/../../../../pic32mx/lib/fpu64\libc.a(doprnt.o)
 .mdebug.abi32  0x0000000000000000        0x0 y:/program files/microchip/xc32/v3.01/bin/bin/../../lib/gcc/pic32mx/8.3.1/../../../../pic32mx/lib/fpu64\libc.a(_fputc_simple.o)
 .mdebug.abi32  0x0000000000000000        0x0 y:/program files/microchip/xc32/v3.01/bin/bin/../../lib/gcc/pic32mx/8.3.1/../../../../pic32mx/lib/fpu64\libc.a(ldpowers.o)
 .mdebug.abi32  0x0000000000000000        0x0 y:/program files/microchip/xc32/v3.01/bin/bin/../../lib/gcc/pic32mx/8.3.1/../../../../pic32mx/lib/fpu64\libc.a(_iob.o)
 .mdebug.abi32  0x0000000000000000        0x0 y:/program files/microchip/xc32/v3.01/bin/bin/../../lib/gcc/pic32mx/8.3.1/../../../../pic32mx/lib/fpu64\libc.a(_flsbuf_simple.o)
 .mdebug.abi32  0x0000000000000000        0x0 y:/program files/microchip/xc32/v3.01/bin/bin/../../lib/gcc/pic32mx/8.3.1/../../../../pic32mx/lib/fpu64\libmfd.a(s_frexp.o)
 .mdebug.abi32  0x0000000000000000        0x0 y:/program files/microchip/xc32/v3.01/bin/bin/../../lib/gcc/pic32mx/8.3.1/fpu64\libgcc.a(_lshrdi3.o)
 .mdebug.abi32  0x0000000000000000        0x0 y:/program files/microchip/xc32/v3.01/bin/bin/../../lib/gcc/pic32mx/8.3.1/fpu64\libgcc.a(_cmpdi2.o)
 .mdebug.abi32  0x0000000000000000        0x0 y:/program files/microchip/xc32/v3.01/bin/bin/../../lib/gcc/pic32mx/8.3.1/fpu64\libgcc.a(_divdi3.o)
 .mdebug.abi32  0x0000000000000000        0x0 y:/program files/microchip/xc32/v3.01/bin/bin/../../lib/gcc/pic32mx/8.3.1/fpu64\libgcc.a(_moddi3.o)
 .mdebug.abi32  0x0000000000000000        0x0 y:/program files/microchip/xc32/v3.01/bin/bin/../../lib/gcc/pic32mx/8.3.1/fpu64\libgcc.a(_umoddi3.o)
 .mdebug.abi32  0x0000000000000000        0x0 y:/program files/microchip/xc32/v3.01/bin/bin/../../lib/gcc/pic32mx/8.3.1/../../../../pic32mx/lib/fpu64\libpic32.a(sbrk.o)
 .mdebug.abi32  0x0000000000000000        0x0 y:/program files/microchip/xc32/v3.01/bin/bin/../../lib/gcc/pic32mx/8.3.1/../../../../pic32mx/lib/fpu64\libpic32.a(write.o)

.mdebug.abiN32
 *(.mdebug.abiN32)

.mdebug.abi64
 *(.mdebug.abi64)

.mdebug.abiO64
 *(.mdebug.abiO64)

.mdebug.eabi32
 *(.mdebug.eabi32)

.mdebug.eabi64
 *(.mdebug.eabi64)

.gcc_compiled_long32
 *(.gcc_compiled_long32)

.gcc_compiled_long64
 *(.gcc_compiled_long64)

.stab
 *(.stab)

.stabstr
 *(.stabstr)

.stab.excl
 *(.stab.excl)

.stab.exclstr
 *(.stab.exclstr)

.stab.index
 *(.stab.index)

.stab.indexstr
 *(.stab.indexstr)

.comment        0x0000000000000000      0x1b6
 *(.comment)
 .comment       0x0000000000000000       0x53 build/default/production/_ext/1434821282/bsp.o
                                         0x54 (size before relaxing)
 .comment       0x0000000000000053       0x54 build/default/production/_ext/732082881/drv_ethmac.o
 .comment       0x0000000000000053       0x54 build/default/production/_ext/732082881/drv_ethmac_lib.o
 .comment       0x0000000000000053       0x54 build/default/production/_ext/732082881/drv_eth_pic32_lib.o
 .comment       0x0000000000000053       0x54 build/default/production/_ext/444070925/drv_ethphy.o
 .comment       0x0000000000000053       0x54 build/default/production/_ext/444070925/drv_extphy_smsc8740.o
 .comment       0x0000000000000053       0x54 build/default/production/_ext/438849557/drv_miim.o
 .comment       0x0000000000000053       0x54 build/default/production/_ext/1033058136/helpers.o
 .comment       0x0000000000000053       0x54 build/default/production/_ext/1033058136/icmp.o
 .comment       0x0000000000000053       0x54 build/default/production/_ext/1033058136/arp.o
 .comment       0x0000000000000053       0x54 build/default/production/_ext/1033058136/ipv4.o
 .comment       0x0000000000000053       0x54 build/default/production/_ext/1033058136/tcpip_heap_alloc.o
 .comment       0x0000000000000053       0x54 build/default/production/_ext/1033058136/tcpip_heap_internal.o
 .comment       0x0000000000000053       0x54 build/default/production/_ext/1033058136/dhcp.o
 .comment       0x0000000000000053       0x54 build/default/production/_ext/1033058136/dns.o
 .comment       0x0000000000000053       0x54 build/default/production/_ext/1033058136/hash_fnv.o
 .comment       0x0000000000000053       0x54 build/default/production/_ext/1033058136/oahash.o
 .comment       0x0000000000000053       0x54 build/default/production/_ext/1033058136/tcpip_helpers.o
 .comment       0x0000000000000053       0x54 build/default/production/_ext/1033058136/tcpip_manager.o
 .comment       0x0000000000000053       0x54 build/default/production/_ext/1033058136/tcpip_notify.o
 .comment       0x0000000000000053       0x54 build/default/production/_ext/1033058136/tcpip_packet.o
 .comment       0x0000000000000053       0x54 build/default/production/_ext/1033058136/sntp.o
 .comment       0x0000000000000053       0x54 build/default/production/_ext/1033058136/udp.o
 .comment       0x0000000000000053       0x54 build/default/production/_ext/60165520/plib_clk.o
 .comment       0x0000000000000053       0x54 build/default/production/_ext/1249264884/plib_coretimer.o
 .comment       0x0000000000000053       0x54 build/default/production/_ext/1865200349/plib_evic.o
 .comment       0x0000000000000053       0x54 build/default/production/_ext/1865254177/plib_gpio.o
 .comment       0x0000000000000053       0x54 build/default/production/_ext/60176403/plib_nvm.o
 .comment       0x0000000000000053       0x54 build/default/production/_ext/1865585524/plib_rtcc.o
 .comment       0x0000000000000053       0x54 build/default/production/_ext/1865657120/plib_uart2.o
 .comment       0x0000000000000053       0x54 build/default/production/_ext/163028504/xc32_monitor.o
 .comment       0x0000000000000053       0x54 build/default/production/_ext/1376093119/sys_command.o
 .comment       0x0000000000000053       0x54 build/default/production/_ext/1832805299/sys_console_uart.o
 .comment       0x0000000000000053       0x54 build/default/production/_ext/1832805299/sys_console.o
 .comment       0x0000000000000053       0x54 build/default/production/_ext/944882569/sys_debug.o
 .comment       0x0000000000000053       0x54 build/default/production/_ext/1881668453/sys_int.o
 .comment       0x0000000000000053       0x54 build/default/production/_ext/1000052432/sys_reset.o
 .comment       0x0000000000000053       0x54 build/default/production/_ext/101884895/sys_time.o
 .comment       0x0000000000000053       0x54 build/default/production/_ext/753841488/sys_time_h2_adapter.o
 .comment       0x0000000000000053       0x54 build/default/production/_ext/1171490990/tasks.o
 .comment       0x0000000000000053       0x54 build/default/production/_ext/1171490990/initialization.o
 .comment       0x0000000000000053       0x54 build/default/production/_ext/1171490990/interrupts.o
 .comment       0x0000000000000053       0x54 build/default/production/_ext/1171490990/exceptions.o
 .comment       0x0000000000000053       0x54 build/default/production/_ext/1171490990/freertos_hooks.o
 .comment       0x0000000000000053       0x54 build/default/production/_ext/1665200909/heap_1.o
 .comment       0x0000000000000053       0x54 build/default/production/_ext/951553246/port.o
 .comment       0x0000000000000053       0x54 build/default/production/_ext/404212886/croutine.o
 .comment       0x0000000000000053       0x54 build/default/production/_ext/404212886/list.o
 .comment       0x0000000000000053       0x54 build/default/production/_ext/404212886/queue.o
 .comment       0x0000000000000053       0x54 build/default/production/_ext/404212886/FreeRTOS_tasks.o
 .comment       0x0000000000000053       0x54 build/default/production/_ext/404212886/timers.o
 .comment       0x0000000000000053       0x54 build/default/production/_ext/404212886/event_groups.o
 .comment       0x0000000000000053       0x54 build/default/production/_ext/404212886/stream_buffer.o
 .comment       0x0000000000000053       0x54 build/default/production/_ext/1360937237/app.o
 .comment       0x0000000000000053       0x54 build/default/production/_ext/1360937237/main.o
 .comment       0x0000000000000053       0x54 y:/program files/microchip/xc32/v3.01/bin/bin/../../lib/gcc/pic32mx/8.3.1/fpu64\libgcc.a(_udivdi3.o)
 .comment       0x0000000000000053       0x18 y:/program files/microchip/xc32/v3.01/bin/bin/../../lib/gcc/pic32mx/8.3.1/../../../../pic32mx/lib/fpu64\libpic32.a(memcmp.o)
                                         0x19 (size before relaxing)
 .comment       0x000000000000006b       0x18 y:/program files/microchip/xc32/v3.01/bin/bin/../../lib/gcc/pic32mx/8.3.1/../../../../pic32mx/lib/fpu64\libpic32.a(memset.o)
                                         0x19 (size before relaxing)
 .comment       0x0000000000000083       0x19 y:/program files/microchip/xc32/v3.01/bin/bin/../../lib/gcc/pic32mx/8.3.1/../../../../pic32mx/lib/fpu64\libpic32.a(strcmp.o)
                                         0x1a (size before relaxing)
 .comment       0x000000000000009c       0x19 y:/program files/microchip/xc32/v3.01/bin/bin/../../lib/gcc/pic32mx/8.3.1/../../../../pic32mx/lib/fpu64\libpic32.a(strcpy.o)
                                         0x1a (size before relaxing)
 .comment       0x00000000000000b5       0x19 y:/program files/microchip/xc32/v3.01/bin/bin/../../lib/gcc/pic32mx/8.3.1/../../../../pic32mx/lib/fpu64\libpic32.a(strlen.o)
                                         0x1a (size before relaxing)
 .comment       0x00000000000000ce       0x54 y:/program files/microchip/xc32/v3.01/bin/bin/../../lib/gcc/pic32mx/8.3.1/../../../../pic32mx/lib/fpu64\libpic32.a(default-on-reset.o)
 .comment       0x00000000000000ce       0x54 y:/program files/microchip/xc32/v3.01/bin/bin/../../lib/gcc/pic32mx/8.3.1/../../../../pic32mx/lib/fpu64\libpic32.a(default-on-bootstrap.o)
 .comment       0x00000000000000ce       0x54 y:/program files/microchip/xc32/v3.01/bin/bin/../../lib/gcc/pic32mx/8.3.1/../../../../pic32mx/lib/fpu64\libpic32.a(defaultinterrupt.o)
 .comment       0x00000000000000ce       0x54 y:/program files/microchip/xc32/v3.01/bin/bin/../../lib/gcc/pic32mx/8.3.1/../../../../pic32mx/lib/fpu64\libc.a(calloc.o)
 .comment       0x00000000000000ce       0x4e y:/program files/microchip/xc32/v3.01/bin/bin/../../lib/gcc/pic32mx/8.3.1/../../../../pic32mx/lib/fpu64\libc.a(ctype.o)
                                         0xa2 (size before relaxing)
 .comment       0x000000000000011c       0x4f y:/program files/microchip/xc32/v3.01/bin/bin/../../lib/gcc/pic32mx/8.3.1/../../../../pic32mx/lib/fpu64\libc.a(ctypef.o)
                                         0xa3 (size before relaxing)
 .comment       0x000000000000016b       0x54 y:/program files/microchip/xc32/v3.01/bin/bin/../../lib/gcc/pic32mx/8.3.1/../../../../pic32mx/lib/fpu64\libc.a(malloc.o)
 .comment       0x000000000000016b       0x54 y:/program files/microchip/xc32/v3.01/bin/bin/../../lib/gcc/pic32mx/8.3.1/../../../../pic32mx/lib/fpu64\libc.a(rand.o)
 .comment       0x000000000000016b       0x54 y:/program files/microchip/xc32/v3.01/bin/bin/../../lib/gcc/pic32mx/8.3.1/../../../../pic32mx/lib/fpu64\libc.a(strchr.o)
 .comment       0x000000000000016b       0x54 y:/program files/microchip/xc32/v3.01/bin/bin/../../lib/gcc/pic32mx/8.3.1/../../../../pic32mx/lib/fpu64\libc.a(strncmp.o)
 .comment       0x000000000000016b       0x54 y:/program files/microchip/xc32/v3.01/bin/bin/../../lib/gcc/pic32mx/8.3.1/../../../../pic32mx/lib/fpu64\libc.a(strncpy.o)
 .comment       0x000000000000016b       0x54 y:/program files/microchip/xc32/v3.01/bin/bin/../../lib/gcc/pic32mx/8.3.1/../../../../pic32mx/lib/fpu64\libc.a(strtok.o)
 .comment       0x000000000000016b       0x54 y:/program files/microchip/xc32/v3.01/bin/bin/../../lib/gcc/pic32mx/8.3.1/../../../../pic32mx/lib/fpu64\libc.a(strtol.o)
 .comment       0x000000000000016b       0x54 y:/program files/microchip/xc32/v3.01/bin/bin/../../lib/gcc/pic32mx/8.3.1/../../../../pic32mx/lib/fpu64\libc.a(snprintf_cdnopsuxX.eo)
 .comment       0x000000000000016b       0x54 y:/program files/microchip/xc32/v3.01/bin/bin/../../lib/gcc/pic32mx/8.3.1/../../../../pic32mx/lib/fpu64\libc.a(sprintf_cdnopsuxX.eo)
 .comment       0x000000000000016b       0x54 y:/program files/microchip/xc32/v3.01/bin/bin/../../lib/gcc/pic32mx/8.3.1/../../../../pic32mx/lib/fpu64\libc.a(sprintf_cdnopuxX.eo)
 .comment       0x000000000000016b       0x54 y:/program files/microchip/xc32/v3.01/bin/bin/../../lib/gcc/pic32mx/8.3.1/../../../../pic32mx/lib/fpu64\libc.a(vsnprintf_cdnopsuxX.eo)
 .comment       0x000000000000016b       0x54 y:/program files/microchip/xc32/v3.01/bin/bin/../../lib/gcc/pic32mx/8.3.1/../../../../pic32mx/lib/fpu64\libc.a(vsnprintf.o)
 .comment       0x000000000000016b       0x54 y:/program files/microchip/xc32/v3.01/bin/bin/../../lib/gcc/pic32mx/8.3.1/../../../../pic32mx/lib/fpu64\libc.a(errno.o)
 .comment       0x000000000000016b       0x54 y:/program files/microchip/xc32/v3.01/bin/bin/../../lib/gcc/pic32mx/8.3.1/../../../../pic32mx/lib/fpu64\libc.a(strcspn.o)
 .comment       0x000000000000016b       0x54 y:/program files/microchip/xc32/v3.01/bin/bin/../../lib/gcc/pic32mx/8.3.1/../../../../pic32mx/lib/fpu64\libc.a(strspn.o)
 .comment       0x000000000000016b       0x54 y:/program files/microchip/xc32/v3.01/bin/bin/../../lib/gcc/pic32mx/8.3.1/../../../../pic32mx/lib/fpu64\libc.a(doprnt_cdnopsuxX.eo)
 .comment       0x000000000000016b       0x54 y:/program files/microchip/xc32/v3.01/bin/bin/../../lib/gcc/pic32mx/8.3.1/../../../../pic32mx/lib/fpu64\libc.a(doprnt_cdnopuxX.eo)
 .comment       0x000000000000016b       0x54 y:/program files/microchip/xc32/v3.01/bin/bin/../../lib/gcc/pic32mx/8.3.1/../../../../pic32mx/lib/fpu64\libc.a(doprnt.o)
 .comment       0x000000000000016b       0x54 y:/program files/microchip/xc32/v3.01/bin/bin/../../lib/gcc/pic32mx/8.3.1/../../../../pic32mx/lib/fpu64\libc.a(_fputc_simple.o)
 .comment       0x000000000000016b       0x54 y:/program files/microchip/xc32/v3.01/bin/bin/../../lib/gcc/pic32mx/8.3.1/../../../../pic32mx/lib/fpu64\libc.a(ldpowers.o)
 .comment       0x000000000000016b       0x54 y:/program files/microchip/xc32/v3.01/bin/bin/../../lib/gcc/pic32mx/8.3.1/../../../../pic32mx/lib/fpu64\libc.a(_iob.o)
 .comment       0x000000000000016b       0x54 y:/program files/microchip/xc32/v3.01/bin/bin/../../lib/gcc/pic32mx/8.3.1/../../../../pic32mx/lib/fpu64\libc.a(_flsbuf_simple.o)
 .comment       0x000000000000016b       0x54 y:/program files/microchip/xc32/v3.01/bin/bin/../../lib/gcc/pic32mx/8.3.1/../../../../pic32mx/lib/fpu64\libmfd.a(s_frexp.o)
 .comment       0x000000000000016b       0x54 y:/program files/microchip/xc32/v3.01/bin/bin/../../lib/gcc/pic32mx/8.3.1/fpu64\libgcc.a(_lshrdi3.o)
 .comment       0x000000000000016b       0x54 y:/program files/microchip/xc32/v3.01/bin/bin/../../lib/gcc/pic32mx/8.3.1/fpu64\libgcc.a(_cmpdi2.o)
 .comment       0x000000000000016b       0x54 y:/program files/microchip/xc32/v3.01/bin/bin/../../lib/gcc/pic32mx/8.3.1/fpu64\libgcc.a(_divdi3.o)
 .comment       0x000000000000016b       0x54 y:/program files/microchip/xc32/v3.01/bin/bin/../../lib/gcc/pic32mx/8.3.1/fpu64\libgcc.a(_moddi3.o)
 .comment       0x000000000000016b       0x54 y:/program files/microchip/xc32/v3.01/bin/bin/../../lib/gcc/pic32mx/8.3.1/fpu64\libgcc.a(_umoddi3.o)
 .comment       0x000000000000016b       0x4b y:/program files/microchip/xc32/v3.01/bin/bin/../../lib/gcc/pic32mx/8.3.1/../../../../pic32mx/lib/fpu64\libpic32.a(sbrk.o)
                                         0x9f (size before relaxing)
 .comment       0x00000000000001b6       0x54 y:/program files/microchip/xc32/v3.01/bin/bin/../../lib/gcc/pic32mx/8.3.1/../../../../pic32mx/lib/fpu64\libpic32.a(write.o)

.debug
 *.elf(.debug)
 *(.debug)

.line
 *.elf(.line)
 *(.line)

.debug_srcinfo
 *.elf(.debug_srcinfo)
 *(.debug_srcinfo)

.debug_sfnames
 *.elf(.debug_sfnames)
 *(.debug_sfnames)

.debug_aranges  0x0000000000000000     0x28a8
 *.elf(.debug_aranges)
 *(.debug_aranges)
 .debug_aranges
                0x0000000000000000       0x20 build/default/production/_ext/1434821282/bsp.o
 .debug_aranges
                0x0000000000000020      0x188 build/default/production/_ext/732082881/drv_ethmac.o
 .debug_aranges
                0x00000000000001a8       0xe8 build/default/production/_ext/732082881/drv_ethmac_lib.o
 .debug_aranges
                0x0000000000000290      0x240 build/default/production/_ext/732082881/drv_eth_pic32_lib.o
 .debug_aranges
                0x00000000000004d0      0x248 build/default/production/_ext/444070925/drv_ethphy.o
 .debug_aranges
                0x0000000000000718       0x30 build/default/production/_ext/444070925/drv_extphy_smsc8740.o
 .debug_aranges
                0x0000000000000748       0xe0 build/default/production/_ext/438849557/drv_miim.o
 .debug_aranges
                0x0000000000000828       0x48 build/default/production/_ext/1033058136/helpers.o
 .debug_aranges
                0x0000000000000870       0x38 build/default/production/_ext/1033058136/icmp.o
 .debug_aranges
                0x00000000000008a8      0x110 build/default/production/_ext/1033058136/arp.o
 .debug_aranges
                0x00000000000009b8       0xf0 build/default/production/_ext/1033058136/ipv4.o
 .debug_aranges
                0x0000000000000aa8       0x48 build/default/production/_ext/1033058136/tcpip_heap_alloc.o
 .debug_aranges
                0x0000000000000af0       0x68 build/default/production/_ext/1033058136/tcpip_heap_internal.o
 .debug_aranges
                0x0000000000000b58      0x190 build/default/production/_ext/1033058136/dhcp.o
 .debug_aranges
                0x0000000000000ce8       0x68 build/default/production/_ext/1033058136/dns.o
 .debug_aranges
                0x0000000000000d50       0x28 build/default/production/_ext/1033058136/hash_fnv.o
 .debug_aranges
                0x0000000000000d78       0x50 build/default/production/_ext/1033058136/oahash.o
 .debug_aranges
                0x0000000000000dc8      0x210 build/default/production/_ext/1033058136/tcpip_helpers.o
 .debug_aranges
                0x0000000000000fd8       0x20 build/default/production/_ext/1033058136/tcpip_helper_c32.o
 .debug_aranges
                0x0000000000000ff8      0x390 build/default/production/_ext/1033058136/tcpip_manager.o
 .debug_aranges
                0x0000000000001388       0x48 build/default/production/_ext/1033058136/tcpip_notify.o
 .debug_aranges
                0x00000000000013d0       0x80 build/default/production/_ext/1033058136/tcpip_packet.o
 .debug_aranges
                0x0000000000001450       0xb8 build/default/production/_ext/1033058136/sntp.o
 .debug_aranges
                0x0000000000001508      0x1b8 build/default/production/_ext/1033058136/udp.o
 .debug_aranges
                0x00000000000016c0       0x20 build/default/production/_ext/60165520/plib_clk.o
 .debug_aranges
                0x00000000000016e0       0x68 build/default/production/_ext/1249264884/plib_coretimer.o
 .debug_aranges
                0x0000000000001748       0x68 build/default/production/_ext/1865200349/plib_evic.o
 .debug_aranges
                0x00000000000017b0       0x60 build/default/production/_ext/1865254177/plib_gpio.o
 .debug_aranges
                0x0000000000001810       0xa8 build/default/production/_ext/60176403/plib_nvm.o
 .debug_aranges
                0x00000000000018b8       0x38 build/default/production/_ext/1865585524/plib_rtcc.o
 .debug_aranges
                0x00000000000018f0       0xd0 build/default/production/_ext/1865657120/plib_uart2.o
 .debug_aranges
                0x00000000000019c0       0x28 build/default/production/_ext/163028504/xc32_monitor.o
 .debug_aranges
                0x00000000000019e8       0xd8 build/default/production/_ext/1376093119/sys_command.o
 .debug_aranges
                0x0000000000001ac0       0x68 build/default/production/_ext/1832805299/sys_console_uart.o
 .debug_aranges
                0x0000000000001b28       0x88 build/default/production/_ext/1832805299/sys_console.o
 .debug_aranges
                0x0000000000001bb0       0x48 build/default/production/_ext/944882569/sys_debug.o
 .debug_aranges
                0x0000000000001bf8       0x40 build/default/production/_ext/1881668453/sys_int.o
 .debug_aranges
                0x0000000000001c38       0x20 build/default/production/_ext/1000052432/sys_reset.o
 .debug_aranges
                0x0000000000001c58      0x130 build/default/production/_ext/101884895/sys_time.o
 .debug_aranges
                0x0000000000001d88       0x40 build/default/production/_ext/753841488/sys_time_h2_adapter.o
 .debug_aranges
                0x0000000000001dc8       0x20 build/default/production/_ext/1171490990/tasks.o
 .debug_aranges
                0x0000000000001de8       0x28 build/default/production/_ext/1171490990/initialization.o
 .debug_aranges
                0x0000000000001e10       0x48 build/default/production/_ext/1171490990/interrupts.o
 .debug_aranges
                0x0000000000001e58       0x38 build/default/production/_ext/1171490990/exceptions.o
 .debug_aranges
                0x0000000000001e90       0x40 build/default/production/_ext/1171490990/freertos_hooks.o
 .debug_aranges
                0x0000000000001ed0       0x38 build/default/production/_ext/1665200909/heap_1.o
 .debug_aranges
                0x0000000000001f08       0x58 build/default/production/_ext/951553246/port.o
 .debug_aranges
                0x0000000000001f60       0x30 build/default/production/_ext/951553246/port_asm.o
 .debug_aranges
                0x0000000000001f90       0x18 build/default/production/_ext/404212886/croutine.o
 .debug_aranges
                0x0000000000001fa8       0x40 build/default/production/_ext/404212886/list.o
 .debug_aranges
                0x0000000000001fe8       0xc8 build/default/production/_ext/404212886/queue.o
 .debug_aranges
                0x00000000000020b0      0x188 build/default/production/_ext/404212886/FreeRTOS_tasks.o
 .debug_aranges
                0x0000000000002238       0x18 build/default/production/_ext/404212886/timers.o
 .debug_aranges
                0x0000000000002250       0x60 build/default/production/_ext/404212886/event_groups.o
 .debug_aranges
                0x00000000000022b0       0xa8 build/default/production/_ext/404212886/stream_buffer.o
 .debug_aranges
                0x0000000000002358       0x38 build/default/production/_ext/1360937237/app.o
 .debug_aranges
                0x0000000000002390       0x28 build/default/production/_ext/1360937237/main.o
 .debug_aranges
                0x00000000000023b8       0x20 y:/program files/microchip/xc32/v3.01/bin/bin/../../lib/gcc/pic32mx/8.3.1/fpu64\libgcc.a(_udivdi3.o)
 .debug_aranges
                0x00000000000023d8       0x20 y:/program files/microchip/xc32/v3.01/bin/bin/../../lib/gcc/pic32mx/8.3.1/../../../../pic32mx/lib/fpu64\libpic32.a(default-on-reset.o)
 .debug_aranges
                0x00000000000023f8       0x20 y:/program files/microchip/xc32/v3.01/bin/bin/../../lib/gcc/pic32mx/8.3.1/../../../../pic32mx/lib/fpu64\libpic32.a(default-on-bootstrap.o)
 .debug_aranges
                0x0000000000002418       0x20 y:/program files/microchip/xc32/v3.01/bin/bin/../../lib/gcc/pic32mx/8.3.1/../../../../pic32mx/lib/fpu64\libpic32.a(defaultinterrupt.o)
 .debug_aranges
                0x0000000000002438       0x20 y:/program files/microchip/xc32/v3.01/bin/bin/../../lib/gcc/pic32mx/8.3.1/../../../../pic32mx/lib/fpu64\libc.a(calloc.o)
 .debug_aranges
                0x0000000000002458       0xa0 y:/program files/microchip/xc32/v3.01/bin/bin/../../lib/gcc/pic32mx/8.3.1/../../../../pic32mx/lib/fpu64\libc.a(ctypef.o)
 .debug_aranges
                0x00000000000024f8       0x30 y:/program files/microchip/xc32/v3.01/bin/bin/../../lib/gcc/pic32mx/8.3.1/../../../../pic32mx/lib/fpu64\libc.a(malloc.o)
 .debug_aranges
                0x0000000000002528       0x28 y:/program files/microchip/xc32/v3.01/bin/bin/../../lib/gcc/pic32mx/8.3.1/../../../../pic32mx/lib/fpu64\libc.a(rand.o)
 .debug_aranges
                0x0000000000002550       0x20 y:/program files/microchip/xc32/v3.01/bin/bin/../../lib/gcc/pic32mx/8.3.1/../../../../pic32mx/lib/fpu64\libc.a(strchr.o)
 .debug_aranges
                0x0000000000002570       0x20 y:/program files/microchip/xc32/v3.01/bin/bin/../../lib/gcc/pic32mx/8.3.1/../../../../pic32mx/lib/fpu64\libc.a(strncmp.o)
 .debug_aranges
                0x0000000000002590       0x20 y:/program files/microchip/xc32/v3.01/bin/bin/../../lib/gcc/pic32mx/8.3.1/../../../../pic32mx/lib/fpu64\libc.a(strncpy.o)
 .debug_aranges
                0x00000000000025b0       0x20 y:/program files/microchip/xc32/v3.01/bin/bin/../../lib/gcc/pic32mx/8.3.1/../../../../pic32mx/lib/fpu64\libc.a(strtok.o)
 .debug_aranges
                0x00000000000025d0       0x28 y:/program files/microchip/xc32/v3.01/bin/bin/../../lib/gcc/pic32mx/8.3.1/../../../../pic32mx/lib/fpu64\libc.a(strtol.o)
 .debug_aranges
                0x00000000000025f8       0x20 y:/program files/microchip/xc32/v3.01/bin/bin/../../lib/gcc/pic32mx/8.3.1/../../../../pic32mx/lib/fpu64\libc.a(snprintf_cdnopsuxX.eo)
 .debug_aranges
                0x0000000000002618       0x20 y:/program files/microchip/xc32/v3.01/bin/bin/../../lib/gcc/pic32mx/8.3.1/../../../../pic32mx/lib/fpu64\libc.a(sprintf_cdnopsuxX.eo)
 .debug_aranges
                0x0000000000002638       0x20 y:/program files/microchip/xc32/v3.01/bin/bin/../../lib/gcc/pic32mx/8.3.1/../../../../pic32mx/lib/fpu64\libc.a(sprintf_cdnopuxX.eo)
 .debug_aranges
                0x0000000000002658       0x20 y:/program files/microchip/xc32/v3.01/bin/bin/../../lib/gcc/pic32mx/8.3.1/../../../../pic32mx/lib/fpu64\libc.a(vsnprintf_cdnopsuxX.eo)
 .debug_aranges
                0x0000000000002678       0x20 y:/program files/microchip/xc32/v3.01/bin/bin/../../lib/gcc/pic32mx/8.3.1/../../../../pic32mx/lib/fpu64\libc.a(vsnprintf.o)
 .debug_aranges
                0x0000000000002698       0x20 y:/program files/microchip/xc32/v3.01/bin/bin/../../lib/gcc/pic32mx/8.3.1/../../../../pic32mx/lib/fpu64\libc.a(strcspn.o)
 .debug_aranges
                0x00000000000026b8       0x20 y:/program files/microchip/xc32/v3.01/bin/bin/../../lib/gcc/pic32mx/8.3.1/../../../../pic32mx/lib/fpu64\libc.a(strspn.o)
 .debug_aranges
                0x00000000000026d8       0x20 y:/program files/microchip/xc32/v3.01/bin/bin/../../lib/gcc/pic32mx/8.3.1/../../../../pic32mx/lib/fpu64\libc.a(doprnt_cdnopsuxX.eo)
 .debug_aranges
                0x00000000000026f8       0x20 y:/program files/microchip/xc32/v3.01/bin/bin/../../lib/gcc/pic32mx/8.3.1/../../../../pic32mx/lib/fpu64\libc.a(doprnt_cdnopuxX.eo)
 .debug_aranges
                0x0000000000002718       0x30 y:/program files/microchip/xc32/v3.01/bin/bin/../../lib/gcc/pic32mx/8.3.1/../../../../pic32mx/lib/fpu64\libc.a(doprnt.o)
 .debug_aranges
                0x0000000000002748       0x20 y:/program files/microchip/xc32/v3.01/bin/bin/../../lib/gcc/pic32mx/8.3.1/../../../../pic32mx/lib/fpu64\libc.a(_fputc_simple.o)
 .debug_aranges
                0x0000000000002768       0x20 y:/program files/microchip/xc32/v3.01/bin/bin/../../lib/gcc/pic32mx/8.3.1/../../../../pic32mx/lib/fpu64\libc.a(_flsbuf_simple.o)
 .debug_aranges
                0x0000000000002788       0x20 y:/program files/microchip/xc32/v3.01/bin/bin/../../lib/gcc/pic32mx/8.3.1/../../../../pic32mx/lib/fpu64\libmfd.a(s_frexp.o)
 .debug_aranges
                0x00000000000027a8       0x20 y:/program files/microchip/xc32/v3.01/bin/bin/../../lib/gcc/pic32mx/8.3.1/fpu64\libgcc.a(_lshrdi3.o)
 .debug_aranges
                0x00000000000027c8       0x20 y:/program files/microchip/xc32/v3.01/bin/bin/../../lib/gcc/pic32mx/8.3.1/fpu64\libgcc.a(_cmpdi2.o)
 .debug_aranges
                0x00000000000027e8       0x20 y:/program files/microchip/xc32/v3.01/bin/bin/../../lib/gcc/pic32mx/8.3.1/fpu64\libgcc.a(_divdi3.o)
 .debug_aranges
                0x0000000000002808       0x20 y:/program files/microchip/xc32/v3.01/bin/bin/../../lib/gcc/pic32mx/8.3.1/fpu64\libgcc.a(_moddi3.o)
 .debug_aranges
                0x0000000000002828       0x20 y:/program files/microchip/xc32/v3.01/bin/bin/../../lib/gcc/pic32mx/8.3.1/fpu64\libgcc.a(_umoddi3.o)
 .debug_aranges
                0x0000000000002848       0x40 y:/program files/microchip/xc32/v3.01/bin/bin/../../lib/gcc/pic32mx/8.3.1/../../../../pic32mx/lib/fpu64\libpic32.a(sbrk.o)
 .debug_aranges
                0x0000000000002888       0x20 y:/program files/microchip/xc32/v3.01/bin/bin/../../lib/gcc/pic32mx/8.3.1/../../../../pic32mx/lib/fpu64\libpic32.a(write.o)

.debug_pubnames
 *.elf(.debug_pubnames)
 *(.debug_pubnames)

.debug_info     0x0000000000000000  0x1178543
 *.elf(.debug_info .gnu.linkonce.wi.*)
 *(.debug_info .gnu.linkonce.wi.*)
 .debug_info    0x0000000000000000    0x5aec8 build/default/production/_ext/1434821282/bsp.o
 .debug_info    0x000000000005aec8    0x61b80 build/default/production/_ext/732082881/drv_ethmac.o
 .debug_info    0x00000000000bca48    0x6093a build/default/production/_ext/732082881/drv_ethmac_lib.o
 .debug_info    0x000000000011d382    0x5c744 build/default/production/_ext/732082881/drv_eth_pic32_lib.o
 .debug_info    0x0000000000179ac6    0x5f9ed build/default/production/_ext/444070925/drv_ethphy.o
 .debug_info    0x00000000001d94b3     0x12a5 build/default/production/_ext/444070925/drv_extphy_smsc8740.o
 .debug_info    0x00000000001da758    0x5f19f build/default/production/_ext/438849557/drv_miim.o
 .debug_info    0x00000000002398f7      0x3e1 build/default/production/_ext/1033058136/helpers.o
 .debug_info    0x0000000000239cd8    0x5d011 build/default/production/_ext/1033058136/icmp.o
 .debug_info    0x0000000000296ce9    0x5fae5 build/default/production/_ext/1033058136/arp.o
 .debug_info    0x00000000002f67ce    0x5ffb2 build/default/production/_ext/1033058136/ipv4.o
 .debug_info    0x0000000000356780    0x5c5a4 build/default/production/_ext/1033058136/tcpip_heap_alloc.o
 .debug_info    0x00000000003b2d24    0x5d3b9 build/default/production/_ext/1033058136/tcpip_heap_internal.o
 .debug_info    0x00000000004100dd    0x61e75 build/default/production/_ext/1033058136/dhcp.o
 .debug_info    0x0000000000471f52    0x5c42d build/default/production/_ext/1033058136/dns.o
 .debug_info    0x00000000004ce37f      0x1ba build/default/production/_ext/1033058136/hash_fnv.o
 .debug_info    0x00000000004ce539      0x7c1 build/default/production/_ext/1033058136/oahash.o
 .debug_info    0x00000000004cecfa    0x606bf build/default/production/_ext/1033058136/tcpip_helpers.o
 .debug_info    0x000000000052f3b9       0x26 build/default/production/_ext/1033058136/tcpip_helper_c32.o
 .debug_info    0x000000000052f3df    0x63b9d build/default/production/_ext/1033058136/tcpip_manager.o
 .debug_info    0x0000000000592f7c    0x5c6b7 build/default/production/_ext/1033058136/tcpip_notify.o
 .debug_info    0x00000000005ef633    0x5cdbe build/default/production/_ext/1033058136/tcpip_packet.o
 .debug_info    0x000000000064c3f1    0x5dfcc build/default/production/_ext/1033058136/sntp.o
 .debug_info    0x00000000006aa3bd    0x619c7 build/default/production/_ext/1033058136/udp.o
 .debug_info    0x000000000070bd84    0x5adbb build/default/production/_ext/60165520/plib_clk.o
 .debug_info    0x0000000000766b3f    0x5afde build/default/production/_ext/1249264884/plib_coretimer.o
 .debug_info    0x00000000007c1b1d    0x5b4d1 build/default/production/_ext/1865200349/plib_evic.o
 .debug_info    0x000000000081cfee    0x5aff8 build/default/production/_ext/1865254177/plib_gpio.o
 .debug_info    0x0000000000877fe6    0x5b3b6 build/default/production/_ext/60176403/plib_nvm.o
 .debug_info    0x00000000008d339c    0x5afd9 build/default/production/_ext/1865585524/plib_rtcc.o
 .debug_info    0x000000000092e375    0x5ba13 build/default/production/_ext/1865657120/plib_uart2.o
 .debug_info    0x0000000000989d88       0x8a build/default/production/_ext/163028504/xc32_monitor.o
 .debug_info    0x0000000000989e12     0x1fff build/default/production/_ext/1376093119/sys_command.o
 .debug_info    0x000000000098be11    0x5d86e build/default/production/_ext/1832805299/sys_console_uart.o
 .debug_info    0x00000000009e967f    0x5ba39 build/default/production/_ext/1832805299/sys_console.o
 .debug_info    0x0000000000a450b8      0x45e build/default/production/_ext/944882569/sys_debug.o
 .debug_info    0x0000000000a45516    0x5b484 build/default/production/_ext/1881668453/sys_int.o
 .debug_info    0x0000000000aa099a    0x5adbc build/default/production/_ext/1000052432/sys_reset.o
 .debug_info    0x0000000000afb756    0x5cef7 build/default/production/_ext/101884895/sys_time.o
 .debug_info    0x0000000000b5864d    0x5b00d build/default/production/_ext/753841488/sys_time_h2_adapter.o
 .debug_info    0x0000000000bb365a    0x5cc9a build/default/production/_ext/1171490990/tasks.o
 .debug_info    0x0000000000c102f4    0x5e6ff build/default/production/_ext/1171490990/initialization.o
 .debug_info    0x0000000000c6e9f3    0x5cd47 build/default/production/_ext/1171490990/interrupts.o
 .debug_info    0x0000000000ccb73a    0x5cd33 build/default/production/_ext/1171490990/exceptions.o
 .debug_info    0x0000000000d2846d    0x5af27 build/default/production/_ext/1171490990/freertos_hooks.o
 .debug_info    0x0000000000d83394    0x5af39 build/default/production/_ext/1665200909/heap_1.o
 .debug_info    0x0000000000dde2cd    0x5b08a build/default/production/_ext/951553246/port.o
 .debug_info    0x0000000000e39357       0x22 build/default/production/_ext/951553246/port_asm.o
 .debug_info    0x0000000000e39379    0x5adb9 build/default/production/_ext/404212886/croutine.o
 .debug_info    0x0000000000e94132    0x5b021 build/default/production/_ext/404212886/list.o
 .debug_info    0x0000000000eef153    0x5c7ed build/default/production/_ext/404212886/queue.o
 .debug_info    0x0000000000f4b940    0x5d12b build/default/production/_ext/404212886/FreeRTOS_tasks.o
 .debug_info    0x0000000000fa8a6b    0x5adb9 build/default/production/_ext/404212886/timers.o
 .debug_info    0x0000000001003824    0x5b7d2 build/default/production/_ext/404212886/event_groups.o
 .debug_info    0x000000000105eff6    0x5c333 build/default/production/_ext/404212886/stream_buffer.o
 .debug_info    0x00000000010bb329    0x5d27c build/default/production/_ext/1360937237/app.o
 .debug_info    0x00000000011185a5    0x5cd65 build/default/production/_ext/1360937237/main.o
 .debug_info    0x000000000117530a      0x85c y:/program files/microchip/xc32/v3.01/bin/bin/../../lib/gcc/pic32mx/8.3.1/fpu64\libgcc.a(_udivdi3.o)
 .debug_info    0x0000000001175b66       0x3f y:/program files/microchip/xc32/v3.01/bin/bin/../../lib/gcc/pic32mx/8.3.1/../../../../pic32mx/lib/fpu64\libpic32.a(default-on-reset.o)
 .debug_info    0x0000000001175ba5       0x3f y:/program files/microchip/xc32/v3.01/bin/bin/../../lib/gcc/pic32mx/8.3.1/../../../../pic32mx/lib/fpu64\libpic32.a(default-on-bootstrap.o)
 .debug_info    0x0000000001175be4       0x40 y:/program files/microchip/xc32/v3.01/bin/bin/../../lib/gcc/pic32mx/8.3.1/../../../../pic32mx/lib/fpu64\libpic32.a(defaultinterrupt.o)
 .debug_info    0x0000000001175c24       0x3e y:/program files/microchip/xc32/v3.01/bin/bin/../../lib/gcc/pic32mx/8.3.1/../../../../pic32mx/lib/fpu64\libc.a(calloc.o)
 .debug_info    0x0000000001175c62      0x17e y:/program files/microchip/xc32/v3.01/bin/bin/../../lib/gcc/pic32mx/8.3.1/../../../../pic32mx/lib/fpu64\libc.a(ctypef.o)
 .debug_info    0x0000000001175de0       0x66 y:/program files/microchip/xc32/v3.01/bin/bin/../../lib/gcc/pic32mx/8.3.1/../../../../pic32mx/lib/fpu64\libc.a(malloc.o)
 .debug_info    0x0000000001175e46       0x52 y:/program files/microchip/xc32/v3.01/bin/bin/../../lib/gcc/pic32mx/8.3.1/../../../../pic32mx/lib/fpu64\libc.a(rand.o)
 .debug_info    0x0000000001175e98       0x3e y:/program files/microchip/xc32/v3.01/bin/bin/../../lib/gcc/pic32mx/8.3.1/../../../../pic32mx/lib/fpu64\libc.a(strchr.o)
 .debug_info    0x0000000001175ed6       0x3e y:/program files/microchip/xc32/v3.01/bin/bin/../../lib/gcc/pic32mx/8.3.1/../../../../pic32mx/lib/fpu64\libc.a(strncmp.o)
 .debug_info    0x0000000001175f14       0x3e y:/program files/microchip/xc32/v3.01/bin/bin/../../lib/gcc/pic32mx/8.3.1/../../../../pic32mx/lib/fpu64\libc.a(strncpy.o)
 .debug_info    0x0000000001175f52       0x3e y:/program files/microchip/xc32/v3.01/bin/bin/../../lib/gcc/pic32mx/8.3.1/../../../../pic32mx/lib/fpu64\libc.a(strtok.o)
 .debug_info    0x0000000001175f90       0x52 y:/program files/microchip/xc32/v3.01/bin/bin/../../lib/gcc/pic32mx/8.3.1/../../../../pic32mx/lib/fpu64\libc.a(strtol.o)
 .debug_info    0x0000000001175fe2       0x3e y:/program files/microchip/xc32/v3.01/bin/bin/../../lib/gcc/pic32mx/8.3.1/../../../../pic32mx/lib/fpu64\libc.a(snprintf_cdnopsuxX.eo)
 .debug_info    0x0000000001176020       0x3e y:/program files/microchip/xc32/v3.01/bin/bin/../../lib/gcc/pic32mx/8.3.1/../../../../pic32mx/lib/fpu64\libc.a(sprintf_cdnopsuxX.eo)
 .debug_info    0x000000000117605e       0x3e y:/program files/microchip/xc32/v3.01/bin/bin/../../lib/gcc/pic32mx/8.3.1/../../../../pic32mx/lib/fpu64\libc.a(sprintf_cdnopuxX.eo)
 .debug_info    0x000000000117609c       0x3e y:/program files/microchip/xc32/v3.01/bin/bin/../../lib/gcc/pic32mx/8.3.1/../../../../pic32mx/lib/fpu64\libc.a(vsnprintf_cdnopsuxX.eo)
 .debug_info    0x00000000011760da       0x3e y:/program files/microchip/xc32/v3.01/bin/bin/../../lib/gcc/pic32mx/8.3.1/../../../../pic32mx/lib/fpu64\libc.a(vsnprintf.o)
 .debug_info    0x0000000001176118       0x3e y:/program files/microchip/xc32/v3.01/bin/bin/../../lib/gcc/pic32mx/8.3.1/../../../../pic32mx/lib/fpu64\libc.a(strcspn.o)
 .debug_info    0x0000000001176156       0x3e y:/program files/microchip/xc32/v3.01/bin/bin/../../lib/gcc/pic32mx/8.3.1/../../../../pic32mx/lib/fpu64\libc.a(strspn.o)
 .debug_info    0x0000000001176194       0x3f y:/program files/microchip/xc32/v3.01/bin/bin/../../lib/gcc/pic32mx/8.3.1/../../../../pic32mx/lib/fpu64\libc.a(doprnt_cdnopsuxX.eo)
 .debug_info    0x00000000011761d3       0x3f y:/program files/microchip/xc32/v3.01/bin/bin/../../lib/gcc/pic32mx/8.3.1/../../../../pic32mx/lib/fpu64\libc.a(doprnt_cdnopuxX.eo)
 .debug_info    0x0000000001176212       0xba y:/program files/microchip/xc32/v3.01/bin/bin/../../lib/gcc/pic32mx/8.3.1/../../../../pic32mx/lib/fpu64\libc.a(doprnt.o)
 .debug_info    0x00000000011762cc       0x48 y:/program files/microchip/xc32/v3.01/bin/bin/../../lib/gcc/pic32mx/8.3.1/../../../../pic32mx/lib/fpu64\libc.a(_fputc_simple.o)
 .debug_info    0x0000000001176314       0x3e y:/program files/microchip/xc32/v3.01/bin/bin/../../lib/gcc/pic32mx/8.3.1/../../../../pic32mx/lib/fpu64\libc.a(_flsbuf_simple.o)
 .debug_info    0x0000000001176352       0x3e y:/program files/microchip/xc32/v3.01/bin/bin/../../lib/gcc/pic32mx/8.3.1/../../../../pic32mx/lib/fpu64\libmfd.a(s_frexp.o)
 .debug_info    0x0000000001176390      0x33c y:/program files/microchip/xc32/v3.01/bin/bin/../../lib/gcc/pic32mx/8.3.1/fpu64\libgcc.a(_lshrdi3.o)
 .debug_info    0x00000000011766cc      0x304 y:/program files/microchip/xc32/v3.01/bin/bin/../../lib/gcc/pic32mx/8.3.1/fpu64\libgcc.a(_cmpdi2.o)
 .debug_info    0x00000000011769d0      0x8aa y:/program files/microchip/xc32/v3.01/bin/bin/../../lib/gcc/pic32mx/8.3.1/fpu64\libgcc.a(_divdi3.o)
 .debug_info    0x000000000117727a      0x907 y:/program files/microchip/xc32/v3.01/bin/bin/../../lib/gcc/pic32mx/8.3.1/fpu64\libgcc.a(_moddi3.o)
 .debug_info    0x0000000001177b81      0x8d4 y:/program files/microchip/xc32/v3.01/bin/bin/../../lib/gcc/pic32mx/8.3.1/fpu64\libgcc.a(_umoddi3.o)
 .debug_info    0x0000000001178455       0xae y:/program files/microchip/xc32/v3.01/bin/bin/../../lib/gcc/pic32mx/8.3.1/../../../../pic32mx/lib/fpu64\libpic32.a(sbrk.o)
 .debug_info    0x0000000001178503       0x40 y:/program files/microchip/xc32/v3.01/bin/bin/../../lib/gcc/pic32mx/8.3.1/../../../../pic32mx/lib/fpu64\libpic32.a(write.o)

.debug_abbrev   0x0000000000000000     0xdc6b
 *.elf(.debug_abbrev)
 *(.debug_abbrev)
 .debug_abbrev  0x0000000000000000      0x1c4 build/default/production/_ext/1434821282/bsp.o
 .debug_abbrev  0x00000000000001c4      0x678 build/default/production/_ext/732082881/drv_ethmac.o
 .debug_abbrev  0x000000000000083c      0x608 build/default/production/_ext/732082881/drv_ethmac_lib.o
 .debug_abbrev  0x0000000000000e44      0x2fe build/default/production/_ext/732082881/drv_eth_pic32_lib.o
 .debug_abbrev  0x0000000000001142      0x51d build/default/production/_ext/444070925/drv_ethphy.o
 .debug_abbrev  0x000000000000165f      0x25a build/default/production/_ext/444070925/drv_extphy_smsc8740.o
 .debug_abbrev  0x00000000000018b9      0x68e build/default/production/_ext/438849557/drv_miim.o
 .debug_abbrev  0x0000000000001f47      0x1d6 build/default/production/_ext/1033058136/helpers.o
 .debug_abbrev  0x000000000000211d      0x538 build/default/production/_ext/1033058136/icmp.o
 .debug_abbrev  0x0000000000002655      0x680 build/default/production/_ext/1033058136/arp.o
 .debug_abbrev  0x0000000000002cd5      0x649 build/default/production/_ext/1033058136/ipv4.o
 .debug_abbrev  0x000000000000331e      0x3b3 build/default/production/_ext/1033058136/tcpip_heap_alloc.o
 .debug_abbrev  0x00000000000036d1      0x553 build/default/production/_ext/1033058136/tcpip_heap_internal.o
 .debug_abbrev  0x0000000000003c24      0x6b0 build/default/production/_ext/1033058136/dhcp.o
 .debug_abbrev  0x00000000000042d4      0x33b build/default/production/_ext/1033058136/dns.o
 .debug_abbrev  0x000000000000460f       0xfe build/default/production/_ext/1033058136/hash_fnv.o
 .debug_abbrev  0x000000000000470d      0x2ba build/default/production/_ext/1033058136/oahash.o
 .debug_abbrev  0x00000000000049c7      0x638 build/default/production/_ext/1033058136/tcpip_helpers.o
 .debug_abbrev  0x0000000000004fff       0x14 build/default/production/_ext/1033058136/tcpip_helper_c32.o
 .debug_abbrev  0x0000000000005013      0x771 build/default/production/_ext/1033058136/tcpip_manager.o
 .debug_abbrev  0x0000000000005784      0x40b build/default/production/_ext/1033058136/tcpip_notify.o
 .debug_abbrev  0x0000000000005b8f      0x53d build/default/production/_ext/1033058136/tcpip_packet.o
 .debug_abbrev  0x00000000000060cc      0x5aa build/default/production/_ext/1033058136/sntp.o
 .debug_abbrev  0x0000000000006676      0x7b9 build/default/production/_ext/1033058136/udp.o
 .debug_abbrev  0x0000000000006e2f      0x178 build/default/production/_ext/60165520/plib_clk.o
 .debug_abbrev  0x0000000000006fa7      0x257 build/default/production/_ext/1249264884/plib_coretimer.o
 .debug_abbrev  0x00000000000071fe      0x202 build/default/production/_ext/1865200349/plib_evic.o
 .debug_abbrev  0x0000000000007400      0x1f3 build/default/production/_ext/1865254177/plib_gpio.o
 .debug_abbrev  0x00000000000075f3      0x303 build/default/production/_ext/60176403/plib_nvm.o
 .debug_abbrev  0x00000000000078f6      0x229 build/default/production/_ext/1865585524/plib_rtcc.o
 .debug_abbrev  0x0000000000007b1f      0x464 build/default/production/_ext/1865657120/plib_uart2.o
 .debug_abbrev  0x0000000000007f83       0x88 build/default/production/_ext/163028504/xc32_monitor.o
 .debug_abbrev  0x000000000000800b      0x470 build/default/production/_ext/1376093119/sys_command.o
 .debug_abbrev  0x000000000000847b      0x4c3 build/default/production/_ext/1832805299/sys_console_uart.o
 .debug_abbrev  0x000000000000893e      0x49c build/default/production/_ext/1832805299/sys_console.o
 .debug_abbrev  0x0000000000008dda      0x1d0 build/default/production/_ext/944882569/sys_debug.o
 .debug_abbrev  0x0000000000008faa      0x279 build/default/production/_ext/1881668453/sys_int.o
 .debug_abbrev  0x0000000000009223      0x17b build/default/production/_ext/1000052432/sys_reset.o
 .debug_abbrev  0x000000000000939e      0x5e6 build/default/production/_ext/101884895/sys_time.o
 .debug_abbrev  0x0000000000009984      0x257 build/default/production/_ext/753841488/sys_time_h2_adapter.o
 .debug_abbrev  0x0000000000009bdb      0x311 build/default/production/_ext/1171490990/tasks.o
 .debug_abbrev  0x0000000000009eec      0x3c7 build/default/production/_ext/1171490990/initialization.o
 .debug_abbrev  0x000000000000a2b3      0x2fd build/default/production/_ext/1171490990/interrupts.o
 .debug_abbrev  0x000000000000a5b0      0x2ee build/default/production/_ext/1171490990/exceptions.o
 .debug_abbrev  0x000000000000a89e      0x216 build/default/production/_ext/1171490990/freertos_hooks.o
 .debug_abbrev  0x000000000000aab4      0x282 build/default/production/_ext/1665200909/heap_1.o
 .debug_abbrev  0x000000000000ad36      0x36a build/default/production/_ext/951553246/port.o
 .debug_abbrev  0x000000000000b0a0       0x12 build/default/production/_ext/951553246/port_asm.o
 .debug_abbrev  0x000000000000b0b2      0x158 build/default/production/_ext/404212886/croutine.o
 .debug_abbrev  0x000000000000b20a      0x207 build/default/production/_ext/404212886/list.o
 .debug_abbrev  0x000000000000b411      0x3d2 build/default/production/_ext/404212886/queue.o
 .debug_abbrev  0x000000000000b7e3      0x45b build/default/production/_ext/404212886/FreeRTOS_tasks.o
 .debug_abbrev  0x000000000000bc3e      0x158 build/default/production/_ext/404212886/timers.o
 .debug_abbrev  0x000000000000bd96      0x31a build/default/production/_ext/404212886/event_groups.o
 .debug_abbrev  0x000000000000c0b0      0x3bf build/default/production/_ext/404212886/stream_buffer.o
 .debug_abbrev  0x000000000000c46f      0x435 build/default/production/_ext/1360937237/app.o
 .debug_abbrev  0x000000000000c8a4      0x38d build/default/production/_ext/1360937237/main.o
 .debug_abbrev  0x000000000000cc31      0x1d8 y:/program files/microchip/xc32/v3.01/bin/bin/../../lib/gcc/pic32mx/8.3.1/fpu64\libgcc.a(_udivdi3.o)
 .debug_abbrev  0x000000000000ce09       0x2e y:/program files/microchip/xc32/v3.01/bin/bin/../../lib/gcc/pic32mx/8.3.1/../../../../pic32mx/lib/fpu64\libpic32.a(default-on-reset.o)
 .debug_abbrev  0x000000000000ce37       0x2e y:/program files/microchip/xc32/v3.01/bin/bin/../../lib/gcc/pic32mx/8.3.1/../../../../pic32mx/lib/fpu64\libpic32.a(default-on-bootstrap.o)
 .debug_abbrev  0x000000000000ce65       0x31 y:/program files/microchip/xc32/v3.01/bin/bin/../../lib/gcc/pic32mx/8.3.1/../../../../pic32mx/lib/fpu64\libpic32.a(defaultinterrupt.o)
 .debug_abbrev  0x000000000000ce96       0x2e y:/program files/microchip/xc32/v3.01/bin/bin/../../lib/gcc/pic32mx/8.3.1/../../../../pic32mx/lib/fpu64\libc.a(calloc.o)
 .debug_abbrev  0x000000000000cec4       0x2e y:/program files/microchip/xc32/v3.01/bin/bin/../../lib/gcc/pic32mx/8.3.1/../../../../pic32mx/lib/fpu64\libc.a(ctypef.o)
 .debug_abbrev  0x000000000000cef2       0x46 y:/program files/microchip/xc32/v3.01/bin/bin/../../lib/gcc/pic32mx/8.3.1/../../../../pic32mx/lib/fpu64\libc.a(malloc.o)
 .debug_abbrev  0x000000000000cf38       0x46 y:/program files/microchip/xc32/v3.01/bin/bin/../../lib/gcc/pic32mx/8.3.1/../../../../pic32mx/lib/fpu64\libc.a(rand.o)
 .debug_abbrev  0x000000000000cf7e       0x2e y:/program files/microchip/xc32/v3.01/bin/bin/../../lib/gcc/pic32mx/8.3.1/../../../../pic32mx/lib/fpu64\libc.a(strchr.o)
 .debug_abbrev  0x000000000000cfac       0x2e y:/program files/microchip/xc32/v3.01/bin/bin/../../lib/gcc/pic32mx/8.3.1/../../../../pic32mx/lib/fpu64\libc.a(strncmp.o)
 .debug_abbrev  0x000000000000cfda       0x2e y:/program files/microchip/xc32/v3.01/bin/bin/../../lib/gcc/pic32mx/8.3.1/../../../../pic32mx/lib/fpu64\libc.a(strncpy.o)
 .debug_abbrev  0x000000000000d008       0x2e y:/program files/microchip/xc32/v3.01/bin/bin/../../lib/gcc/pic32mx/8.3.1/../../../../pic32mx/lib/fpu64\libc.a(strtok.o)
 .debug_abbrev  0x000000000000d036       0x2e y:/program files/microchip/xc32/v3.01/bin/bin/../../lib/gcc/pic32mx/8.3.1/../../../../pic32mx/lib/fpu64\libc.a(strtol.o)
 .debug_abbrev  0x000000000000d064       0x2e y:/program files/microchip/xc32/v3.01/bin/bin/../../lib/gcc/pic32mx/8.3.1/../../../../pic32mx/lib/fpu64\libc.a(snprintf_cdnopsuxX.eo)
 .debug_abbrev  0x000000000000d092       0x2e y:/program files/microchip/xc32/v3.01/bin/bin/../../lib/gcc/pic32mx/8.3.1/../../../../pic32mx/lib/fpu64\libc.a(sprintf_cdnopsuxX.eo)
 .debug_abbrev  0x000000000000d0c0       0x2e y:/program files/microchip/xc32/v3.01/bin/bin/../../lib/gcc/pic32mx/8.3.1/../../../../pic32mx/lib/fpu64\libc.a(sprintf_cdnopuxX.eo)
 .debug_abbrev  0x000000000000d0ee       0x2e y:/program files/microchip/xc32/v3.01/bin/bin/../../lib/gcc/pic32mx/8.3.1/../../../../pic32mx/lib/fpu64\libc.a(vsnprintf_cdnopsuxX.eo)
 .debug_abbrev  0x000000000000d11c       0x2e y:/program files/microchip/xc32/v3.01/bin/bin/../../lib/gcc/pic32mx/8.3.1/../../../../pic32mx/lib/fpu64\libc.a(vsnprintf.o)
 .debug_abbrev  0x000000000000d14a       0x2e y:/program files/microchip/xc32/v3.01/bin/bin/../../lib/gcc/pic32mx/8.3.1/../../../../pic32mx/lib/fpu64\libc.a(strcspn.o)
 .debug_abbrev  0x000000000000d178       0x2e y:/program files/microchip/xc32/v3.01/bin/bin/../../lib/gcc/pic32mx/8.3.1/../../../../pic32mx/lib/fpu64\libc.a(strspn.o)
 .debug_abbrev  0x000000000000d1a6       0x2e y:/program files/microchip/xc32/v3.01/bin/bin/../../lib/gcc/pic32mx/8.3.1/../../../../pic32mx/lib/fpu64\libc.a(doprnt_cdnopsuxX.eo)
 .debug_abbrev  0x000000000000d1d4       0x2e y:/program files/microchip/xc32/v3.01/bin/bin/../../lib/gcc/pic32mx/8.3.1/../../../../pic32mx/lib/fpu64\libc.a(doprnt_cdnopuxX.eo)
 .debug_abbrev  0x000000000000d202       0x92 y:/program files/microchip/xc32/v3.01/bin/bin/../../lib/gcc/pic32mx/8.3.1/../../../../pic32mx/lib/fpu64\libc.a(doprnt.o)
 .debug_abbrev  0x000000000000d294       0x37 y:/program files/microchip/xc32/v3.01/bin/bin/../../lib/gcc/pic32mx/8.3.1/../../../../pic32mx/lib/fpu64\libc.a(_fputc_simple.o)
 .debug_abbrev  0x000000000000d2cb       0x2e y:/program files/microchip/xc32/v3.01/bin/bin/../../lib/gcc/pic32mx/8.3.1/../../../../pic32mx/lib/fpu64\libc.a(_flsbuf_simple.o)
 .debug_abbrev  0x000000000000d2f9       0x2e y:/program files/microchip/xc32/v3.01/bin/bin/../../lib/gcc/pic32mx/8.3.1/../../../../pic32mx/lib/fpu64\libmfd.a(s_frexp.o)
 .debug_abbrev  0x000000000000d327      0x17e y:/program files/microchip/xc32/v3.01/bin/bin/../../lib/gcc/pic32mx/8.3.1/fpu64\libgcc.a(_lshrdi3.o)
 .debug_abbrev  0x000000000000d4a5      0x139 y:/program files/microchip/xc32/v3.01/bin/bin/../../lib/gcc/pic32mx/8.3.1/fpu64\libgcc.a(_cmpdi2.o)
 .debug_abbrev  0x000000000000d5de      0x1ec y:/program files/microchip/xc32/v3.01/bin/bin/../../lib/gcc/pic32mx/8.3.1/fpu64\libgcc.a(_divdi3.o)
 .debug_abbrev  0x000000000000d7ca      0x1f5 y:/program files/microchip/xc32/v3.01/bin/bin/../../lib/gcc/pic32mx/8.3.1/fpu64\libgcc.a(_moddi3.o)
 .debug_abbrev  0x000000000000d9bf      0x1ee y:/program files/microchip/xc32/v3.01/bin/bin/../../lib/gcc/pic32mx/8.3.1/fpu64\libgcc.a(_umoddi3.o)
 .debug_abbrev  0x000000000000dbad       0x90 y:/program files/microchip/xc32/v3.01/bin/bin/../../lib/gcc/pic32mx/8.3.1/../../../../pic32mx/lib/fpu64\libpic32.a(sbrk.o)
 .debug_abbrev  0x000000000000dc3d       0x2e y:/program files/microchip/xc32/v3.01/bin/bin/../../lib/gcc/pic32mx/8.3.1/../../../../pic32mx/lib/fpu64\libpic32.a(write.o)

.debug_line     0x0000000000000000    0x2db0d
 *.elf(.debug_line)
 *(.debug_line)
 .debug_line    0x0000000000000000      0x237 build/default/production/_ext/1434821282/bsp.o
 .debug_line    0x0000000000000237     0x1e98 build/default/production/_ext/732082881/drv_ethmac.o
 .debug_line    0x00000000000020cf     0x1ace build/default/production/_ext/732082881/drv_ethmac_lib.o
 .debug_line    0x0000000000003b9d      0xa8b build/default/production/_ext/732082881/drv_eth_pic32_lib.o
 .debug_line    0x0000000000004628     0x2343 build/default/production/_ext/444070925/drv_ethphy.o
 .debug_line    0x000000000000696b      0x4a2 build/default/production/_ext/444070925/drv_extphy_smsc8740.o
 .debug_line    0x0000000000006e0d     0x184e build/default/production/_ext/438849557/drv_miim.o
 .debug_line    0x000000000000865b      0x39c build/default/production/_ext/1033058136/helpers.o
 .debug_line    0x00000000000089f7      0x674 build/default/production/_ext/1033058136/icmp.o
 .debug_line    0x000000000000906b     0x1b33 build/default/production/_ext/1033058136/arp.o
 .debug_line    0x000000000000ab9e     0x199a build/default/production/_ext/1033058136/ipv4.o
 .debug_line    0x000000000000c538      0x524 build/default/production/_ext/1033058136/tcpip_heap_alloc.o
 .debug_line    0x000000000000ca5c      0xd93 build/default/production/_ext/1033058136/tcpip_heap_internal.o
 .debug_line    0x000000000000d7ef     0x2704 build/default/production/_ext/1033058136/dhcp.o
 .debug_line    0x000000000000fef3      0x4c5 build/default/production/_ext/1033058136/dns.o
 .debug_line    0x00000000000103b8      0x203 build/default/production/_ext/1033058136/hash_fnv.o
 .debug_line    0x00000000000105bb      0x469 build/default/production/_ext/1033058136/oahash.o
 .debug_line    0x0000000000010a24     0x2c3a build/default/production/_ext/1033058136/tcpip_helpers.o
 .debug_line    0x000000000001365e      0x102 build/default/production/_ext/1033058136/tcpip_helper_c32.o
 .debug_line    0x0000000000013760     0x3c11 build/default/production/_ext/1033058136/tcpip_manager.o
 .debug_line    0x0000000000017371      0x618 build/default/production/_ext/1033058136/tcpip_notify.o
 .debug_line    0x0000000000017989      0x96b build/default/production/_ext/1033058136/tcpip_packet.o
 .debug_line    0x00000000000182f4      0xf4f build/default/production/_ext/1033058136/sntp.o
 .debug_line    0x0000000000019243     0x2e17 build/default/production/_ext/1033058136/udp.o
 .debug_line    0x000000000001c05a      0x245 build/default/production/_ext/60165520/plib_clk.o
 .debug_line    0x000000000001c29f      0x37c build/default/production/_ext/1249264884/plib_coretimer.o
 .debug_line    0x000000000001c61b      0x3a9 build/default/production/_ext/1865200349/plib_evic.o
 .debug_line    0x000000000001c9c4      0x384 build/default/production/_ext/1865254177/plib_gpio.o
 .debug_line    0x000000000001cd48      0x5ad build/default/production/_ext/60176403/plib_nvm.o
 .debug_line    0x000000000001d2f5      0x4eb build/default/production/_ext/1865585524/plib_rtcc.o
 .debug_line    0x000000000001d7e0      0xbed build/default/production/_ext/1865657120/plib_uart2.o
 .debug_line    0x000000000001e3cd       0xa1 build/default/production/_ext/163028504/xc32_monitor.o
 .debug_line    0x000000000001e46e     0x1098 build/default/production/_ext/1376093119/sys_command.o
 .debug_line    0x000000000001f506      0xa5a build/default/production/_ext/1832805299/sys_console_uart.o
 .debug_line    0x000000000001ff60      0x85a build/default/production/_ext/1832805299/sys_console.o
 .debug_line    0x00000000000207ba      0x2e5 build/default/production/_ext/944882569/sys_debug.o
 .debug_line    0x0000000000020a9f      0x2e7 build/default/production/_ext/1881668453/sys_int.o
 .debug_line    0x0000000000020d86      0x211 build/default/production/_ext/1000052432/sys_reset.o
 .debug_line    0x0000000000020f97     0x134e build/default/production/_ext/101884895/sys_time.o
 .debug_line    0x00000000000222e5      0x323 build/default/production/_ext/753841488/sys_time_h2_adapter.o
 .debug_line    0x0000000000022608      0x542 build/default/production/_ext/1171490990/tasks.o
 .debug_line    0x0000000000022b4a      0xacf build/default/production/_ext/1171490990/initialization.o
 .debug_line    0x0000000000023619      0x536 build/default/production/_ext/1171490990/interrupts.o
 .debug_line    0x0000000000023b4f      0x520 build/default/production/_ext/1171490990/exceptions.o
 .debug_line    0x000000000002406f      0x359 build/default/production/_ext/1171490990/freertos_hooks.o
 .debug_line    0x00000000000243c8      0x3f7 build/default/production/_ext/1665200909/heap_1.o
 .debug_line    0x00000000000247bf      0x43d build/default/production/_ext/951553246/port.o
 .debug_line    0x0000000000024bfc      0x131 build/default/production/_ext/951553246/port_asm.o
 .debug_line    0x0000000000024d2d      0x1f4 build/default/production/_ext/404212886/croutine.o
 .debug_line    0x0000000000024f21      0x439 build/default/production/_ext/404212886/list.o
 .debug_line    0x000000000002535a      0xff1 build/default/production/_ext/404212886/queue.o
 .debug_line    0x000000000002634b     0x18e9 build/default/production/_ext/404212886/FreeRTOS_tasks.o
 .debug_line    0x0000000000027c34      0x1f4 build/default/production/_ext/404212886/timers.o
 .debug_line    0x0000000000027e28      0x758 build/default/production/_ext/404212886/event_groups.o
 .debug_line    0x0000000000028580      0xc67 build/default/production/_ext/404212886/stream_buffer.o
 .debug_line    0x00000000000291e7      0x653 build/default/production/_ext/1360937237/app.o
 .debug_line    0x000000000002983a      0x56d build/default/production/_ext/1360937237/main.o
 .debug_line    0x0000000000029da7      0x490 y:/program files/microchip/xc32/v3.01/bin/bin/../../lib/gcc/pic32mx/8.3.1/fpu64\libgcc.a(_udivdi3.o)
 .debug_line    0x000000000002a237       0xa6 y:/program files/microchip/xc32/v3.01/bin/bin/../../lib/gcc/pic32mx/8.3.1/../../../../pic32mx/lib/fpu64\libpic32.a(default-on-reset.o)
 .debug_line    0x000000000002a2dd       0xaa y:/program files/microchip/xc32/v3.01/bin/bin/../../lib/gcc/pic32mx/8.3.1/../../../../pic32mx/lib/fpu64\libpic32.a(default-on-bootstrap.o)
 .debug_line    0x000000000002a387       0xc9 y:/program files/microchip/xc32/v3.01/bin/bin/../../lib/gcc/pic32mx/8.3.1/../../../../pic32mx/lib/fpu64\libpic32.a(defaultinterrupt.o)
 .debug_line    0x000000000002a450       0xa3 y:/program files/microchip/xc32/v3.01/bin/bin/../../lib/gcc/pic32mx/8.3.1/../../../../pic32mx/lib/fpu64\libc.a(calloc.o)
 .debug_line    0x000000000002a4f3        0x0 y:/program files/microchip/xc32/v3.01/bin/bin/../../lib/gcc/pic32mx/8.3.1/../../../../pic32mx/lib/fpu64\libc.a(ctype.o)
 .debug_line    0x000000000002a4f3      0x20a y:/program files/microchip/xc32/v3.01/bin/bin/../../lib/gcc/pic32mx/8.3.1/../../../../pic32mx/lib/fpu64\libc.a(ctypef.o)
 .debug_line    0x000000000002a6fd      0x1f7 y:/program files/microchip/xc32/v3.01/bin/bin/../../lib/gcc/pic32mx/8.3.1/../../../../pic32mx/lib/fpu64\libc.a(malloc.o)
 .debug_line    0x000000000002a8f4       0xce y:/program files/microchip/xc32/v3.01/bin/bin/../../lib/gcc/pic32mx/8.3.1/../../../../pic32mx/lib/fpu64\libc.a(rand.o)
 .debug_line    0x000000000002a9c2       0xa1 y:/program files/microchip/xc32/v3.01/bin/bin/../../lib/gcc/pic32mx/8.3.1/../../../../pic32mx/lib/fpu64\libc.a(strchr.o)
 .debug_line    0x000000000002aa63       0xa9 y:/program files/microchip/xc32/v3.01/bin/bin/../../lib/gcc/pic32mx/8.3.1/../../../../pic32mx/lib/fpu64\libc.a(strncmp.o)
 .debug_line    0x000000000002ab0c       0xb0 y:/program files/microchip/xc32/v3.01/bin/bin/../../lib/gcc/pic32mx/8.3.1/../../../../pic32mx/lib/fpu64\libc.a(strncpy.o)
 .debug_line    0x000000000002abbc       0xba y:/program files/microchip/xc32/v3.01/bin/bin/../../lib/gcc/pic32mx/8.3.1/../../../../pic32mx/lib/fpu64\libc.a(strtok.o)
 .debug_line    0x000000000002ac76      0x1c8 y:/program files/microchip/xc32/v3.01/bin/bin/../../lib/gcc/pic32mx/8.3.1/../../../../pic32mx/lib/fpu64\libc.a(strtol.o)
 .debug_line    0x000000000002ae3e       0x9e y:/program files/microchip/xc32/v3.01/bin/bin/../../lib/gcc/pic32mx/8.3.1/../../../../pic32mx/lib/fpu64\libc.a(snprintf_cdnopsuxX.eo)
 .debug_line    0x000000000002aedc       0xc3 y:/program files/microchip/xc32/v3.01/bin/bin/../../lib/gcc/pic32mx/8.3.1/../../../../pic32mx/lib/fpu64\libc.a(sprintf_cdnopsuxX.eo)
 .debug_line    0x000000000002af9f       0xc3 y:/program files/microchip/xc32/v3.01/bin/bin/../../lib/gcc/pic32mx/8.3.1/../../../../pic32mx/lib/fpu64\libc.a(sprintf_cdnopuxX.eo)
 .debug_line    0x000000000002b062       0xb6 y:/program files/microchip/xc32/v3.01/bin/bin/../../lib/gcc/pic32mx/8.3.1/../../../../pic32mx/lib/fpu64\libc.a(vsnprintf_cdnopsuxX.eo)
 .debug_line    0x000000000002b118       0xb6 y:/program files/microchip/xc32/v3.01/bin/bin/../../lib/gcc/pic32mx/8.3.1/../../../../pic32mx/lib/fpu64\libc.a(vsnprintf.o)
 .debug_line    0x000000000002b1ce        0x0 y:/program files/microchip/xc32/v3.01/bin/bin/../../lib/gcc/pic32mx/8.3.1/../../../../pic32mx/lib/fpu64\libc.a(errno.o)
 .debug_line    0x000000000002b1ce       0xa3 y:/program files/microchip/xc32/v3.01/bin/bin/../../lib/gcc/pic32mx/8.3.1/../../../../pic32mx/lib/fpu64\libc.a(strcspn.o)
 .debug_line    0x000000000002b271       0xa2 y:/program files/microchip/xc32/v3.01/bin/bin/../../lib/gcc/pic32mx/8.3.1/../../../../pic32mx/lib/fpu64\libc.a(strspn.o)
 .debug_line    0x000000000002b313      0x35b y:/program files/microchip/xc32/v3.01/bin/bin/../../lib/gcc/pic32mx/8.3.1/../../../../pic32mx/lib/fpu64\libc.a(doprnt_cdnopsuxX.eo)
 .debug_line    0x000000000002b66e      0x35b y:/program files/microchip/xc32/v3.01/bin/bin/../../lib/gcc/pic32mx/8.3.1/../../../../pic32mx/lib/fpu64\libc.a(doprnt_cdnopuxX.eo)
 .debug_line    0x000000000002b9c9      0x86b y:/program files/microchip/xc32/v3.01/bin/bin/../../lib/gcc/pic32mx/8.3.1/../../../../pic32mx/lib/fpu64\libc.a(doprnt.o)
 .debug_line    0x000000000002c234       0xf3 y:/program files/microchip/xc32/v3.01/bin/bin/../../lib/gcc/pic32mx/8.3.1/../../../../pic32mx/lib/fpu64\libc.a(_fputc_simple.o)
 .debug_line    0x000000000002c327        0x0 y:/program files/microchip/xc32/v3.01/bin/bin/../../lib/gcc/pic32mx/8.3.1/../../../../pic32mx/lib/fpu64\libc.a(ldpowers.o)
 .debug_line    0x000000000002c327        0x0 y:/program files/microchip/xc32/v3.01/bin/bin/../../lib/gcc/pic32mx/8.3.1/../../../../pic32mx/lib/fpu64\libc.a(_iob.o)
 .debug_line    0x000000000002c327       0xfb y:/program files/microchip/xc32/v3.01/bin/bin/../../lib/gcc/pic32mx/8.3.1/../../../../pic32mx/lib/fpu64\libc.a(_flsbuf_simple.o)
 .debug_line    0x000000000002c422       0xc1 y:/program files/microchip/xc32/v3.01/bin/bin/../../lib/gcc/pic32mx/8.3.1/../../../../pic32mx/lib/fpu64\libmfd.a(s_frexp.o)
 .debug_line    0x000000000002c4e3      0x290 y:/program files/microchip/xc32/v3.01/bin/bin/../../lib/gcc/pic32mx/8.3.1/fpu64\libgcc.a(_lshrdi3.o)
 .debug_line    0x000000000002c773      0x26b y:/program files/microchip/xc32/v3.01/bin/bin/../../lib/gcc/pic32mx/8.3.1/fpu64\libgcc.a(_cmpdi2.o)
 .debug_line    0x000000000002c9de      0x4d7 y:/program files/microchip/xc32/v3.01/bin/bin/../../lib/gcc/pic32mx/8.3.1/fpu64\libgcc.a(_divdi3.o)
 .debug_line    0x000000000002ceb5      0x518 y:/program files/microchip/xc32/v3.01/bin/bin/../../lib/gcc/pic32mx/8.3.1/fpu64\libgcc.a(_moddi3.o)
 .debug_line    0x000000000002d3cd      0x4d9 y:/program files/microchip/xc32/v3.01/bin/bin/../../lib/gcc/pic32mx/8.3.1/fpu64\libgcc.a(_umoddi3.o)
 .debug_line    0x000000000002d8a6      0x1af y:/program files/microchip/xc32/v3.01/bin/bin/../../lib/gcc/pic32mx/8.3.1/../../../../pic32mx/lib/fpu64\libpic32.a(sbrk.o)
 .debug_line    0x000000000002da55       0xb8 y:/program files/microchip/xc32/v3.01/bin/bin/../../lib/gcc/pic32mx/8.3.1/../../../../pic32mx/lib/fpu64\libpic32.a(write.o)

.debug_frame    0x0000000000000000     0x73f4
 *.elf(.debug_frame)
 *(.debug_frame)
 .debug_frame   0x0000000000000000       0x20 build/default/production/_ext/1434821282/bsp.o
 .debug_frame   0x0000000000000020      0x578 build/default/production/_ext/732082881/drv_ethmac.o
 .debug_frame   0x0000000000000598      0x328 build/default/production/_ext/732082881/drv_ethmac_lib.o
 .debug_frame   0x00000000000008c0      0x460 build/default/production/_ext/732082881/drv_eth_pic32_lib.o
 .debug_frame   0x0000000000000d20      0x7d8 build/default/production/_ext/444070925/drv_ethphy.o
 .debug_frame   0x00000000000014f8       0x68 build/default/production/_ext/444070925/drv_extphy_smsc8740.o
 .debug_frame   0x0000000000001560      0x300 build/default/production/_ext/438849557/drv_miim.o
 .debug_frame   0x0000000000001860       0xb8 build/default/production/_ext/1033058136/helpers.o
 .debug_frame   0x0000000000001918       0x94 build/default/production/_ext/1033058136/icmp.o
 .debug_frame   0x00000000000019ac      0x49c build/default/production/_ext/1033058136/arp.o
 .debug_frame   0x0000000000001e48      0x340 build/default/production/_ext/1033058136/ipv4.o
 .debug_frame   0x0000000000002188       0xa0 build/default/production/_ext/1033058136/tcpip_heap_alloc.o
 .debug_frame   0x0000000000002228      0x13c build/default/production/_ext/1033058136/tcpip_heap_internal.o
 .debug_frame   0x0000000000002364      0x588 build/default/production/_ext/1033058136/dhcp.o
 .debug_frame   0x00000000000028ec       0xb0 build/default/production/_ext/1033058136/dns.o
 .debug_frame   0x000000000000299c       0x30 build/default/production/_ext/1033058136/hash_fnv.o
 .debug_frame   0x00000000000029cc       0xc0 build/default/production/_ext/1033058136/oahash.o
 .debug_frame   0x0000000000002a8c      0x74c build/default/production/_ext/1033058136/tcpip_helpers.o
 .debug_frame   0x00000000000031d8      0xa24 build/default/production/_ext/1033058136/tcpip_manager.o
 .debug_frame   0x0000000000003bfc       0xd4 build/default/production/_ext/1033058136/tcpip_notify.o
 .debug_frame   0x0000000000003cd0      0x16c build/default/production/_ext/1033058136/tcpip_packet.o
 .debug_frame   0x0000000000003e3c      0x228 build/default/production/_ext/1033058136/sntp.o
 .debug_frame   0x0000000000004064      0x6c4 build/default/production/_ext/1033058136/udp.o
 .debug_frame   0x0000000000004728       0x20 build/default/production/_ext/60165520/plib_clk.o
 .debug_frame   0x0000000000004748      0x110 build/default/production/_ext/1249264884/plib_coretimer.o
 .debug_frame   0x0000000000004858       0xd4 build/default/production/_ext/1865200349/plib_evic.o
 .debug_frame   0x000000000000492c       0xa0 build/default/production/_ext/1865254177/plib_gpio.o
 .debug_frame   0x00000000000049cc      0x1d8 build/default/production/_ext/60176403/plib_nvm.o
 .debug_frame   0x0000000000004ba4       0x50 build/default/production/_ext/1865585524/plib_rtcc.o
 .debug_frame   0x0000000000004bf4      0x1f4 build/default/production/_ext/1865657120/plib_uart2.o
 .debug_frame   0x0000000000004de8       0x30 build/default/production/_ext/163028504/xc32_monitor.o
 .debug_frame   0x0000000000004e18      0x304 build/default/production/_ext/1376093119/sys_command.o
 .debug_frame   0x000000000000511c      0x110 build/default/production/_ext/1832805299/sys_console_uart.o
 .debug_frame   0x000000000000522c      0x188 build/default/production/_ext/1832805299/sys_console.o
 .debug_frame   0x00000000000053b4       0x70 build/default/production/_ext/944882569/sys_debug.o
 .debug_frame   0x0000000000005424       0xa0 build/default/production/_ext/1881668453/sys_int.o
 .debug_frame   0x00000000000054c4       0x28 build/default/production/_ext/1000052432/sys_reset.o
 .debug_frame   0x00000000000054ec      0x404 build/default/production/_ext/101884895/sys_time.o
 .debug_frame   0x00000000000058f0       0x9c build/default/production/_ext/753841488/sys_time_h2_adapter.o
 .debug_frame   0x000000000000598c       0x2c build/default/production/_ext/1171490990/tasks.o
 .debug_frame   0x00000000000059b8       0x4c build/default/production/_ext/1171490990/initialization.o
 .debug_frame   0x0000000000005a04      0x388 build/default/production/_ext/1171490990/interrupts.o
 .debug_frame   0x0000000000005d8c       0x70 build/default/production/_ext/1171490990/exceptions.o
 .debug_frame   0x0000000000005dfc       0x7c build/default/production/_ext/1171490990/freertos_hooks.o
 .debug_frame   0x0000000000005e78       0x60 build/default/production/_ext/1665200909/heap_1.o
 .debug_frame   0x0000000000005ed8       0xd0 build/default/production/_ext/951553246/port.o
 .debug_frame   0x0000000000005fa8       0x60 build/default/production/_ext/404212886/list.o
 .debug_frame   0x0000000000006008      0x2d8 build/default/production/_ext/404212886/queue.o
 .debug_frame   0x00000000000062e0      0x540 build/default/production/_ext/404212886/FreeRTOS_tasks.o
 .debug_frame   0x0000000000006820      0x134 build/default/production/_ext/404212886/event_groups.o
 .debug_frame   0x0000000000006954      0x24c build/default/production/_ext/404212886/stream_buffer.o
 .debug_frame   0x0000000000006ba0       0x64 build/default/production/_ext/1360937237/app.o
 .debug_frame   0x0000000000006c04       0x44 build/default/production/_ext/1360937237/main.o
 .debug_frame   0x0000000000006c48       0x20 y:/program files/microchip/xc32/v3.01/bin/bin/../../lib/gcc/pic32mx/8.3.1/fpu64\libgcc.a(_udivdi3.o)
 .debug_frame   0x0000000000006c68       0x20 y:/program files/microchip/xc32/v3.01/bin/bin/../../lib/gcc/pic32mx/8.3.1/../../../../pic32mx/lib/fpu64\libpic32.a(default-on-reset.o)
 .debug_frame   0x0000000000006c88       0x20 y:/program files/microchip/xc32/v3.01/bin/bin/../../lib/gcc/pic32mx/8.3.1/../../../../pic32mx/lib/fpu64\libpic32.a(default-on-bootstrap.o)
 .debug_frame   0x0000000000006ca8       0x20 y:/program files/microchip/xc32/v3.01/bin/bin/../../lib/gcc/pic32mx/8.3.1/../../../../pic32mx/lib/fpu64\libpic32.a(defaultinterrupt.o)
 .debug_frame   0x0000000000006cc8       0x30 y:/program files/microchip/xc32/v3.01/bin/bin/../../lib/gcc/pic32mx/8.3.1/../../../../pic32mx/lib/fpu64\libc.a(calloc.o)
 .debug_frame   0x0000000000006cf8      0x120 y:/program files/microchip/xc32/v3.01/bin/bin/../../lib/gcc/pic32mx/8.3.1/../../../../pic32mx/lib/fpu64\libc.a(ctypef.o)
 .debug_frame   0x0000000000006e18       0x74 y:/program files/microchip/xc32/v3.01/bin/bin/../../lib/gcc/pic32mx/8.3.1/../../../../pic32mx/lib/fpu64\libc.a(malloc.o)
 .debug_frame   0x0000000000006e8c       0x3c y:/program files/microchip/xc32/v3.01/bin/bin/../../lib/gcc/pic32mx/8.3.1/../../../../pic32mx/lib/fpu64\libc.a(rand.o)
 .debug_frame   0x0000000000006ec8       0x20 y:/program files/microchip/xc32/v3.01/bin/bin/../../lib/gcc/pic32mx/8.3.1/../../../../pic32mx/lib/fpu64\libc.a(strchr.o)
 .debug_frame   0x0000000000006ee8       0x20 y:/program files/microchip/xc32/v3.01/bin/bin/../../lib/gcc/pic32mx/8.3.1/../../../../pic32mx/lib/fpu64\libc.a(strncmp.o)
 .debug_frame   0x0000000000006f08       0x20 y:/program files/microchip/xc32/v3.01/bin/bin/../../lib/gcc/pic32mx/8.3.1/../../../../pic32mx/lib/fpu64\libc.a(strncpy.o)
 .debug_frame   0x0000000000006f28       0x34 y:/program files/microchip/xc32/v3.01/bin/bin/../../lib/gcc/pic32mx/8.3.1/../../../../pic32mx/lib/fpu64\libc.a(strtok.o)
 .debug_frame   0x0000000000006f5c       0x68 y:/program files/microchip/xc32/v3.01/bin/bin/../../lib/gcc/pic32mx/8.3.1/../../../../pic32mx/lib/fpu64\libc.a(strtol.o)
 .debug_frame   0x0000000000006fc4       0x2c y:/program files/microchip/xc32/v3.01/bin/bin/../../lib/gcc/pic32mx/8.3.1/../../../../pic32mx/lib/fpu64\libc.a(snprintf_cdnopsuxX.eo)
 .debug_frame   0x0000000000006ff0       0x2c y:/program files/microchip/xc32/v3.01/bin/bin/../../lib/gcc/pic32mx/8.3.1/../../../../pic32mx/lib/fpu64\libc.a(sprintf_cdnopsuxX.eo)
 .debug_frame   0x000000000000701c       0x2c y:/program files/microchip/xc32/v3.01/bin/bin/../../lib/gcc/pic32mx/8.3.1/../../../../pic32mx/lib/fpu64\libc.a(sprintf_cdnopuxX.eo)
 .debug_frame   0x0000000000007048       0x30 y:/program files/microchip/xc32/v3.01/bin/bin/../../lib/gcc/pic32mx/8.3.1/../../../../pic32mx/lib/fpu64\libc.a(vsnprintf_cdnopsuxX.eo)
 .debug_frame   0x0000000000007078       0x30 y:/program files/microchip/xc32/v3.01/bin/bin/../../lib/gcc/pic32mx/8.3.1/../../../../pic32mx/lib/fpu64\libc.a(vsnprintf.o)
 .debug_frame   0x00000000000070a8       0x30 y:/program files/microchip/xc32/v3.01/bin/bin/../../lib/gcc/pic32mx/8.3.1/../../../../pic32mx/lib/fpu64\libc.a(strcspn.o)
 .debug_frame   0x00000000000070d8       0x30 y:/program files/microchip/xc32/v3.01/bin/bin/../../lib/gcc/pic32mx/8.3.1/../../../../pic32mx/lib/fpu64\libc.a(strspn.o)
 .debug_frame   0x0000000000007108       0x40 y:/program files/microchip/xc32/v3.01/bin/bin/../../lib/gcc/pic32mx/8.3.1/../../../../pic32mx/lib/fpu64\libc.a(doprnt_cdnopsuxX.eo)
 .debug_frame   0x0000000000007148       0x40 y:/program files/microchip/xc32/v3.01/bin/bin/../../lib/gcc/pic32mx/8.3.1/../../../../pic32mx/lib/fpu64\libc.a(doprnt_cdnopuxX.eo)
 .debug_frame   0x0000000000007188       0x7c y:/program files/microchip/xc32/v3.01/bin/bin/../../lib/gcc/pic32mx/8.3.1/../../../../pic32mx/lib/fpu64\libc.a(doprnt.o)
 .debug_frame   0x0000000000007204       0x34 y:/program files/microchip/xc32/v3.01/bin/bin/../../lib/gcc/pic32mx/8.3.1/../../../../pic32mx/lib/fpu64\libc.a(_fputc_simple.o)
 .debug_frame   0x0000000000007238       0x30 y:/program files/microchip/xc32/v3.01/bin/bin/../../lib/gcc/pic32mx/8.3.1/../../../../pic32mx/lib/fpu64\libc.a(_flsbuf_simple.o)
 .debug_frame   0x0000000000007268       0x20 y:/program files/microchip/xc32/v3.01/bin/bin/../../lib/gcc/pic32mx/8.3.1/../../../../pic32mx/lib/fpu64\libmfd.a(s_frexp.o)
 .debug_frame   0x0000000000007288       0x20 y:/program files/microchip/xc32/v3.01/bin/bin/../../lib/gcc/pic32mx/8.3.1/fpu64\libgcc.a(_lshrdi3.o)
 .debug_frame   0x00000000000072a8       0x20 y:/program files/microchip/xc32/v3.01/bin/bin/../../lib/gcc/pic32mx/8.3.1/fpu64\libgcc.a(_cmpdi2.o)
 .debug_frame   0x00000000000072c8       0x20 y:/program files/microchip/xc32/v3.01/bin/bin/../../lib/gcc/pic32mx/8.3.1/fpu64\libgcc.a(_divdi3.o)
 .debug_frame   0x00000000000072e8       0x20 y:/program files/microchip/xc32/v3.01/bin/bin/../../lib/gcc/pic32mx/8.3.1/fpu64\libgcc.a(_moddi3.o)
 .debug_frame   0x0000000000007308       0x20 y:/program files/microchip/xc32/v3.01/bin/bin/../../lib/gcc/pic32mx/8.3.1/fpu64\libgcc.a(_umoddi3.o)
 .debug_frame   0x0000000000007328       0x98 y:/program files/microchip/xc32/v3.01/bin/bin/../../lib/gcc/pic32mx/8.3.1/../../../../pic32mx/lib/fpu64\libpic32.a(sbrk.o)
 .debug_frame   0x00000000000073c0       0x34 y:/program files/microchip/xc32/v3.01/bin/bin/../../lib/gcc/pic32mx/8.3.1/../../../../pic32mx/lib/fpu64\libpic32.a(write.o)

.debug_str      0x0000000000000000   0x60931b
 *.elf(.debug_str)
 *(.debug_str)
 .debug_str     0x0000000000000000    0x1e62e build/default/production/_ext/1434821282/bsp.o
 .debug_str     0x000000000001e62e    0x23b93 build/default/production/_ext/732082881/drv_ethmac.o
 .debug_str     0x00000000000421c1    0x22b86 build/default/production/_ext/732082881/drv_ethmac_lib.o
 .debug_str     0x0000000000064d47    0x1f171 build/default/production/_ext/732082881/drv_eth_pic32_lib.o
 .debug_str     0x0000000000083eb8    0x20f56 build/default/production/_ext/444070925/drv_ethphy.o
 .debug_str     0x00000000000a4e0e     0x189c build/default/production/_ext/444070925/drv_extphy_smsc8740.o
 .debug_str     0x00000000000a66aa    0x1fb52 build/default/production/_ext/438849557/drv_miim.o
 .debug_str     0x00000000000c61fc      0x43f build/default/production/_ext/1033058136/helpers.o
 .debug_str     0x00000000000c663b    0x2055f build/default/production/_ext/1033058136/icmp.o
 .debug_str     0x00000000000e6b9a    0x216e8 build/default/production/_ext/1033058136/arp.o
 .debug_str     0x0000000000108282    0x221be build/default/production/_ext/1033058136/ipv4.o
 .debug_str     0x000000000012a440    0x1fc77 build/default/production/_ext/1033058136/tcpip_heap_alloc.o
 .debug_str     0x000000000014a0b7    0x1ffca build/default/production/_ext/1033058136/tcpip_heap_internal.o
 .debug_str     0x000000000016a081    0x224f4 build/default/production/_ext/1033058136/dhcp.o
 .debug_str     0x000000000018c575    0x1fae0 build/default/production/_ext/1033058136/dns.o
 .debug_str     0x00000000001ac055      0x39c build/default/production/_ext/1033058136/hash_fnv.o
 .debug_str     0x00000000001ac3f1      0x565 build/default/production/_ext/1033058136/oahash.o
 .debug_str     0x00000000001ac956    0x205f7 build/default/production/_ext/1033058136/tcpip_helpers.o
 .debug_str     0x00000000001ccf4d       0x83 build/default/production/_ext/1033058136/tcpip_helper_c32.o
 .debug_str     0x00000000001ccfd0    0x230fc build/default/production/_ext/1033058136/tcpip_manager.o
 .debug_str     0x00000000001f00cc    0x1fb49 build/default/production/_ext/1033058136/tcpip_notify.o
 .debug_str     0x000000000020fc15    0x205d5 build/default/production/_ext/1033058136/tcpip_packet.o
 .debug_str     0x00000000002301ea    0x20f01 build/default/production/_ext/1033058136/sntp.o
 .debug_str     0x00000000002510eb    0x22262 build/default/production/_ext/1033058136/udp.o
 .debug_str     0x000000000027334d    0x1e5de build/default/production/_ext/60165520/plib_clk.o
 .debug_str     0x000000000029192b    0x1e72a build/default/production/_ext/1249264884/plib_coretimer.o
 .debug_str     0x00000000002b0055    0x1f8ad build/default/production/_ext/1865200349/plib_evic.o
 .debug_str     0x00000000002cf902    0x1e6fa build/default/production/_ext/1865254177/plib_gpio.o
 .debug_str     0x00000000002edffc    0x1eaf3 build/default/production/_ext/60176403/plib_nvm.o
 .debug_str     0x000000000030caef    0x1e7aa build/default/production/_ext/1865585524/plib_rtcc.o
 .debug_str     0x000000000032b299    0x1ece2 build/default/production/_ext/1865657120/plib_uart2.o
 .debug_str     0x0000000000349f7b      0x2d8 build/default/production/_ext/163028504/xc32_monitor.o
 .debug_str     0x000000000034a253      0xbfc build/default/production/_ext/1376093119/sys_command.o
 .debug_str     0x000000000034ae4f    0x20f0a build/default/production/_ext/1832805299/sys_console_uart.o
 .debug_str     0x000000000036bd59    0x1edab build/default/production/_ext/1832805299/sys_console.o
 .debug_str     0x000000000038ab04      0x61e build/default/production/_ext/944882569/sys_debug.o
 .debug_str     0x000000000038b122    0x1f89e build/default/production/_ext/1881668453/sys_int.o
 .debug_str     0x00000000003aa9c0    0x1e5e6 build/default/production/_ext/1000052432/sys_reset.o
 .debug_str     0x00000000003c8fa6    0x2026f build/default/production/_ext/101884895/sys_time.o
 .debug_str     0x00000000003e9215    0x1e766 build/default/production/_ext/753841488/sys_time_h2_adapter.o
 .debug_str     0x000000000040797b    0x207f6 build/default/production/_ext/1171490990/tasks.o
 .debug_str     0x0000000000428171    0x233ca build/default/production/_ext/1171490990/initialization.o
 .debug_str     0x000000000044b53b    0x208d4 build/default/production/_ext/1171490990/interrupts.o
 .debug_str     0x000000000046be0f    0x20999 build/default/production/_ext/1171490990/exceptions.o
 .debug_str     0x000000000048c7a8    0x1e6c7 build/default/production/_ext/1171490990/freertos_hooks.o
 .debug_str     0x00000000004aae6f    0x1e6c8 build/default/production/_ext/1665200909/heap_1.o
 .debug_str     0x00000000004c9537    0x1e7b6 build/default/production/_ext/951553246/port.o
 .debug_str     0x00000000004e7ced       0x92 build/default/production/_ext/951553246/port_asm.o
 .debug_str     0x00000000004e7d7f    0x1e5f1 build/default/production/_ext/404212886/croutine.o
 .debug_str     0x0000000000506370    0x1e720 build/default/production/_ext/404212886/list.o
 .debug_str     0x0000000000524a90    0x1edb1 build/default/production/_ext/404212886/queue.o
 .debug_str     0x0000000000543841    0x1f2ee build/default/production/_ext/404212886/FreeRTOS_tasks.o
 .debug_str     0x0000000000562b2f    0x1e5ef build/default/production/_ext/404212886/timers.o
 .debug_str     0x000000000058111e    0x1ea46 build/default/production/_ext/404212886/event_groups.o
 .debug_str     0x000000000059fb64    0x1ec8c build/default/production/_ext/404212886/stream_buffer.o
 .debug_str     0x00000000005be7f0    0x20e18 build/default/production/_ext/1360937237/app.o
 .debug_str     0x00000000005df608    0x208b7 build/default/production/_ext/1360937237/main.o
 .debug_str     0x00000000005ffebf      0x552 y:/program files/microchip/xc32/v3.01/bin/bin/../../lib/gcc/pic32mx/8.3.1/fpu64\libgcc.a(_udivdi3.o)
 .debug_str     0x0000000000600411      0x39a y:/program files/microchip/xc32/v3.01/bin/bin/../../lib/gcc/pic32mx/8.3.1/../../../../pic32mx/lib/fpu64\libpic32.a(default-on-reset.o)
 .debug_str     0x00000000006007ab      0x3a2 y:/program files/microchip/xc32/v3.01/bin/bin/../../lib/gcc/pic32mx/8.3.1/../../../../pic32mx/lib/fpu64\libpic32.a(default-on-bootstrap.o)
 .debug_str     0x0000000000600b4d      0x3b4 y:/program files/microchip/xc32/v3.01/bin/bin/../../lib/gcc/pic32mx/8.3.1/../../../../pic32mx/lib/fpu64\libpic32.a(defaultinterrupt.o)
 .debug_str     0x0000000000600f01      0x3c6 y:/program files/microchip/xc32/v3.01/bin/bin/../../lib/gcc/pic32mx/8.3.1/../../../../pic32mx/lib/fpu64\libc.a(calloc.o)
 .debug_str     0x00000000006012c7      0x3be y:/program files/microchip/xc32/v3.01/bin/bin/../../lib/gcc/pic32mx/8.3.1/../../../../pic32mx/lib/fpu64\libc.a(ctype.o)
 .debug_str     0x0000000000601685      0x44a y:/program files/microchip/xc32/v3.01/bin/bin/../../lib/gcc/pic32mx/8.3.1/../../../../pic32mx/lib/fpu64\libc.a(ctypef.o)
 .debug_str     0x0000000000601acf      0x3d3 y:/program files/microchip/xc32/v3.01/bin/bin/../../lib/gcc/pic32mx/8.3.1/../../../../pic32mx/lib/fpu64\libc.a(malloc.o)
 .debug_str     0x0000000000601ea2      0x3c8 y:/program files/microchip/xc32/v3.01/bin/bin/../../lib/gcc/pic32mx/8.3.1/../../../../pic32mx/lib/fpu64\libc.a(rand.o)
 .debug_str     0x000000000060226a      0x3c6 y:/program files/microchip/xc32/v3.01/bin/bin/../../lib/gcc/pic32mx/8.3.1/../../../../pic32mx/lib/fpu64\libc.a(strchr.o)
 .debug_str     0x0000000000602630      0x3c8 y:/program files/microchip/xc32/v3.01/bin/bin/../../lib/gcc/pic32mx/8.3.1/../../../../pic32mx/lib/fpu64\libc.a(strncmp.o)
 .debug_str     0x00000000006029f8      0x3c8 y:/program files/microchip/xc32/v3.01/bin/bin/../../lib/gcc/pic32mx/8.3.1/../../../../pic32mx/lib/fpu64\libc.a(strncpy.o)
 .debug_str     0x0000000000602dc0      0x3c6 y:/program files/microchip/xc32/v3.01/bin/bin/../../lib/gcc/pic32mx/8.3.1/../../../../pic32mx/lib/fpu64\libc.a(strtok.o)
 .debug_str     0x0000000000603186      0x3ce y:/program files/microchip/xc32/v3.01/bin/bin/../../lib/gcc/pic32mx/8.3.1/../../../../pic32mx/lib/fpu64\libc.a(strtol.o)
 .debug_str     0x0000000000603554      0x3d5 y:/program files/microchip/xc32/v3.01/bin/bin/../../lib/gcc/pic32mx/8.3.1/../../../../pic32mx/lib/fpu64\libc.a(snprintf_cdnopsuxX.eo)
 .debug_str     0x0000000000603929      0x3d3 y:/program files/microchip/xc32/v3.01/bin/bin/../../lib/gcc/pic32mx/8.3.1/../../../../pic32mx/lib/fpu64\libc.a(sprintf_cdnopsuxX.eo)
 .debug_str     0x0000000000603cfc      0x3d2 y:/program files/microchip/xc32/v3.01/bin/bin/../../lib/gcc/pic32mx/8.3.1/../../../../pic32mx/lib/fpu64\libc.a(sprintf_cdnopuxX.eo)
 .debug_str     0x00000000006040ce      0x3d7 y:/program files/microchip/xc32/v3.01/bin/bin/../../lib/gcc/pic32mx/8.3.1/../../../../pic32mx/lib/fpu64\libc.a(vsnprintf_cdnopsuxX.eo)
 .debug_str     0x00000000006044a5      0x3cc y:/program files/microchip/xc32/v3.01/bin/bin/../../lib/gcc/pic32mx/8.3.1/../../../../pic32mx/lib/fpu64\libc.a(vsnprintf.o)
 .debug_str     0x0000000000604871      0x3be y:/program files/microchip/xc32/v3.01/bin/bin/../../lib/gcc/pic32mx/8.3.1/../../../../pic32mx/lib/fpu64\libc.a(errno.o)
 .debug_str     0x0000000000604c2f      0x3c8 y:/program files/microchip/xc32/v3.01/bin/bin/../../lib/gcc/pic32mx/8.3.1/../../../../pic32mx/lib/fpu64\libc.a(strcspn.o)
 .debug_str     0x0000000000604ff7      0x3c6 y:/program files/microchip/xc32/v3.01/bin/bin/../../lib/gcc/pic32mx/8.3.1/../../../../pic32mx/lib/fpu64\libc.a(strspn.o)
 .debug_str     0x00000000006053bd      0x3d3 y:/program files/microchip/xc32/v3.01/bin/bin/../../lib/gcc/pic32mx/8.3.1/../../../../pic32mx/lib/fpu64\libc.a(doprnt_cdnopsuxX.eo)
 .debug_str     0x0000000000605790      0x3d2 y:/program files/microchip/xc32/v3.01/bin/bin/../../lib/gcc/pic32mx/8.3.1/../../../../pic32mx/lib/fpu64\libc.a(doprnt_cdnopuxX.eo)
 .debug_str     0x0000000000605b62      0x3db y:/program files/microchip/xc32/v3.01/bin/bin/../../lib/gcc/pic32mx/8.3.1/../../../../pic32mx/lib/fpu64\libc.a(doprnt.o)
 .debug_str     0x0000000000605f3d      0x3c4 y:/program files/microchip/xc32/v3.01/bin/bin/../../lib/gcc/pic32mx/8.3.1/../../../../pic32mx/lib/fpu64\libc.a(_fputc_simple.o)
 .debug_str     0x0000000000606301      0x3c1 y:/program files/microchip/xc32/v3.01/bin/bin/../../lib/gcc/pic32mx/8.3.1/../../../../pic32mx/lib/fpu64\libc.a(ldpowers.o)
 .debug_str     0x00000000006066c2      0x3bd y:/program files/microchip/xc32/v3.01/bin/bin/../../lib/gcc/pic32mx/8.3.1/../../../../pic32mx/lib/fpu64\libc.a(_iob.o)
 .debug_str     0x0000000000606a7f      0x3c7 y:/program files/microchip/xc32/v3.01/bin/bin/../../lib/gcc/pic32mx/8.3.1/../../../../pic32mx/lib/fpu64\libc.a(_flsbuf_simple.o)
 .debug_str     0x0000000000606e46      0x37c y:/program files/microchip/xc32/v3.01/bin/bin/../../lib/gcc/pic32mx/8.3.1/../../../../pic32mx/lib/fpu64\libmfd.a(s_frexp.o)
 .debug_str     0x00000000006071c2      0x515 y:/program files/microchip/xc32/v3.01/bin/bin/../../lib/gcc/pic32mx/8.3.1/fpu64\libgcc.a(_lshrdi3.o)
 .debug_str     0x00000000006076d7      0x50b y:/program files/microchip/xc32/v3.01/bin/bin/../../lib/gcc/pic32mx/8.3.1/fpu64\libgcc.a(_cmpdi2.o)
 .debug_str     0x0000000000607be2      0x551 y:/program files/microchip/xc32/v3.01/bin/bin/../../lib/gcc/pic32mx/8.3.1/fpu64\libgcc.a(_divdi3.o)
 .debug_str     0x0000000000608133      0x551 y:/program files/microchip/xc32/v3.01/bin/bin/../../lib/gcc/pic32mx/8.3.1/fpu64\libgcc.a(_moddi3.o)
 .debug_str     0x0000000000608684      0x552 y:/program files/microchip/xc32/v3.01/bin/bin/../../lib/gcc/pic32mx/8.3.1/fpu64\libgcc.a(_umoddi3.o)
 .debug_str     0x0000000000608bd6      0x3ba y:/program files/microchip/xc32/v3.01/bin/bin/../../lib/gcc/pic32mx/8.3.1/../../../../pic32mx/lib/fpu64\libpic32.a(sbrk.o)
 .debug_str     0x0000000000608f90      0x38b y:/program files/microchip/xc32/v3.01/bin/bin/../../lib/gcc/pic32mx/8.3.1/../../../../pic32mx/lib/fpu64\libpic32.a(write.o)

.debug_loc      0x0000000000000000    0x330c9
 *.elf(.debug_loc)
 *(.debug_loc)
 .debug_loc     0x0000000000000000     0x2b9f build/default/production/_ext/732082881/drv_ethmac.o
 .debug_loc     0x0000000000002b9f     0x280b build/default/production/_ext/732082881/drv_ethmac_lib.o
 .debug_loc     0x00000000000053aa      0x1a7 build/default/production/_ext/732082881/drv_eth_pic32_lib.o
 .debug_loc     0x0000000000005551     0x310d build/default/production/_ext/444070925/drv_ethphy.o
 .debug_loc     0x000000000000865e      0x2df build/default/production/_ext/444070925/drv_extphy_smsc8740.o
 .debug_loc     0x000000000000893d     0x2af5 build/default/production/_ext/438849557/drv_miim.o
 .debug_loc     0x000000000000b432      0x3b4 build/default/production/_ext/1033058136/helpers.o
 .debug_loc     0x000000000000b7e6      0x2a3 build/default/production/_ext/1033058136/icmp.o
 .debug_loc     0x000000000000ba89     0x2ddf build/default/production/_ext/1033058136/arp.o
 .debug_loc     0x000000000000e868     0x251f build/default/production/_ext/1033058136/ipv4.o
 .debug_loc     0x0000000000010d87      0x2f5 build/default/production/_ext/1033058136/tcpip_heap_alloc.o
 .debug_loc     0x000000000001107c     0x11aa build/default/production/_ext/1033058136/tcpip_heap_internal.o
 .debug_loc     0x0000000000012226     0x300c build/default/production/_ext/1033058136/dhcp.o
 .debug_loc     0x0000000000015232      0x18b build/default/production/_ext/1033058136/hash_fnv.o
 .debug_loc     0x00000000000153bd      0x496 build/default/production/_ext/1033058136/oahash.o
 .debug_loc     0x0000000000015853     0x46ed build/default/production/_ext/1033058136/tcpip_helpers.o
 .debug_loc     0x0000000000019f40     0x55f4 build/default/production/_ext/1033058136/tcpip_manager.o
 .debug_loc     0x000000000001f534      0x47f build/default/production/_ext/1033058136/tcpip_notify.o
 .debug_loc     0x000000000001f9b3      0xae8 build/default/production/_ext/1033058136/tcpip_packet.o
 .debug_loc     0x000000000002049b      0x9ce build/default/production/_ext/1033058136/sntp.o
 .debug_loc     0x0000000000020e69     0x434a build/default/production/_ext/1033058136/udp.o
 .debug_loc     0x00000000000251b3       0xd1 build/default/production/_ext/1249264884/plib_coretimer.o
 .debug_loc     0x0000000000025284       0xc5 build/default/production/_ext/1865200349/plib_evic.o
 .debug_loc     0x0000000000025349      0x172 build/default/production/_ext/1865254177/plib_gpio.o
 .debug_loc     0x00000000000254bb      0x2d3 build/default/production/_ext/60176403/plib_nvm.o
 .debug_loc     0x000000000002578e      0x29e build/default/production/_ext/1865585524/plib_rtcc.o
 .debug_loc     0x0000000000025a2c      0xb26 build/default/production/_ext/1865657120/plib_uart2.o
 .debug_loc     0x0000000000026552     0x14eb build/default/production/_ext/1376093119/sys_command.o
 .debug_loc     0x0000000000027a3d      0x752 build/default/production/_ext/1832805299/sys_console_uart.o
 .debug_loc     0x000000000002818f      0x867 build/default/production/_ext/1832805299/sys_console.o
 .debug_loc     0x00000000000289f6       0x15 build/default/production/_ext/944882569/sys_debug.o
 .debug_loc     0x0000000000028a0b       0xe8 build/default/production/_ext/1881668453/sys_int.o
 .debug_loc     0x0000000000028af3     0x1b87 build/default/production/_ext/101884895/sys_time.o
 .debug_loc     0x000000000002a67a       0xb2 build/default/production/_ext/753841488/sys_time_h2_adapter.o
 .debug_loc     0x000000000002a72c       0x25 build/default/production/_ext/1171490990/initialization.o
 .debug_loc     0x000000000002a751       0xb6 build/default/production/_ext/1171490990/freertos_hooks.o
 .debug_loc     0x000000000002a807       0x60 build/default/production/_ext/1665200909/heap_1.o
 .debug_loc     0x000000000002a867      0x14d build/default/production/_ext/951553246/port.o
 .debug_loc     0x000000000002a9b4       0x61 build/default/production/_ext/404212886/list.o
 .debug_loc     0x000000000002aa15     0x178a build/default/production/_ext/404212886/queue.o
 .debug_loc     0x000000000002c19f     0x1e1a build/default/production/_ext/404212886/FreeRTOS_tasks.o
 .debug_loc     0x000000000002dfb9      0xc4f build/default/production/_ext/404212886/event_groups.o
 .debug_loc     0x000000000002ec08     0x18db build/default/production/_ext/404212886/stream_buffer.o
 .debug_loc     0x00000000000304e3       0xe0 build/default/production/_ext/1360937237/app.o
 .debug_loc     0x00000000000305c3       0x32 build/default/production/_ext/1360937237/main.o
 .debug_loc     0x00000000000305f5      0xb5b y:/program files/microchip/xc32/v3.01/bin/bin/../../lib/gcc/pic32mx/8.3.1/fpu64\libgcc.a(_udivdi3.o)
 .debug_loc     0x0000000000031150       0x99 y:/program files/microchip/xc32/v3.01/bin/bin/../../lib/gcc/pic32mx/8.3.1/fpu64\libgcc.a(_lshrdi3.o)
 .debug_loc     0x00000000000311e9      0xbd3 y:/program files/microchip/xc32/v3.01/bin/bin/../../lib/gcc/pic32mx/8.3.1/fpu64\libgcc.a(_divdi3.o)
 .debug_loc     0x0000000000031dbc      0x918 y:/program files/microchip/xc32/v3.01/bin/bin/../../lib/gcc/pic32mx/8.3.1/fpu64\libgcc.a(_moddi3.o)
 .debug_loc     0x00000000000326d4      0x969 y:/program files/microchip/xc32/v3.01/bin/bin/../../lib/gcc/pic32mx/8.3.1/fpu64\libgcc.a(_umoddi3.o)
 .debug_loc     0x000000000003303d       0x6c y:/program files/microchip/xc32/v3.01/bin/bin/../../lib/gcc/pic32mx/8.3.1/../../../../pic32mx/lib/fpu64\libpic32.a(sbrk.o)
 .debug_loc     0x00000000000330a9       0x20 y:/program files/microchip/xc32/v3.01/bin/bin/../../lib/gcc/pic32mx/8.3.1/../../../../pic32mx/lib/fpu64\libpic32.a(write.o)

.debug_macinfo
 *.elf(.debug_macinfo)
 *(.debug_macinfo)

.debug_weaknames
 *.elf(.debug_weaknames)
 *(.debug_weaknames)

.debug_funcnames
 *.elf(.debug_funcnames)
 *(.debug_funcnames)

.debug_typenames
 *.elf(.debug_typenames)
 *(.debug_typenames)

.debug_varnames
 *.elf(.debug_varnames)
 *(.debug_varnames)

.debug_pubtypes
 *.elf(.debug_pubtypes)
 *(.debug_pubtypes)

.debug_ranges   0x0000000000000000     0x5610
 *.elf(.debug_ranges)
 *(.debug_ranges)
 .debug_ranges  0x0000000000000000       0x10 build/default/production/_ext/1434821282/bsp.o
 .debug_ranges  0x0000000000000010      0x308 build/default/production/_ext/732082881/drv_ethmac.o
 .debug_ranges  0x0000000000000318      0x3f8 build/default/production/_ext/732082881/drv_ethmac_lib.o
 .debug_ranges  0x0000000000000710      0x230 build/default/production/_ext/732082881/drv_eth_pic32_lib.o
 .debug_ranges  0x0000000000000940      0x268 build/default/production/_ext/444070925/drv_ethphy.o
 .debug_ranges  0x0000000000000ba8       0x20 build/default/production/_ext/444070925/drv_extphy_smsc8740.o
 .debug_ranges  0x0000000000000bc8      0x4b0 build/default/production/_ext/438849557/drv_miim.o
 .debug_ranges  0x0000000000001078       0x38 build/default/production/_ext/1033058136/helpers.o
 .debug_ranges  0x00000000000010b0       0x40 build/default/production/_ext/1033058136/icmp.o
 .debug_ranges  0x00000000000010f0      0x4f8 build/default/production/_ext/1033058136/arp.o
 .debug_ranges  0x00000000000015e8      0x2b0 build/default/production/_ext/1033058136/ipv4.o
 .debug_ranges  0x0000000000001898       0x38 build/default/production/_ext/1033058136/tcpip_heap_alloc.o
 .debug_ranges  0x00000000000018d0      0x148 build/default/production/_ext/1033058136/tcpip_heap_internal.o
 .debug_ranges  0x0000000000001a18      0x528 build/default/production/_ext/1033058136/dhcp.o
 .debug_ranges  0x0000000000001f40       0x58 build/default/production/_ext/1033058136/dns.o
 .debug_ranges  0x0000000000001f98       0x18 build/default/production/_ext/1033058136/hash_fnv.o
 .debug_ranges  0x0000000000001fb0       0x40 build/default/production/_ext/1033058136/oahash.o
 .debug_ranges  0x0000000000001ff0      0x438 build/default/production/_ext/1033058136/tcpip_helpers.o
 .debug_ranges  0x0000000000002428      0xf00 build/default/production/_ext/1033058136/tcpip_manager.o
 .debug_ranges  0x0000000000003328       0x38 build/default/production/_ext/1033058136/tcpip_notify.o
 .debug_ranges  0x0000000000003360       0xb8 build/default/production/_ext/1033058136/tcpip_packet.o
 .debug_ranges  0x0000000000003418      0x1c8 build/default/production/_ext/1033058136/sntp.o
 .debug_ranges  0x00000000000035e0      0x7f8 build/default/production/_ext/1033058136/udp.o
 .debug_ranges  0x0000000000003dd8       0x10 build/default/production/_ext/60165520/plib_clk.o
 .debug_ranges  0x0000000000003de8       0x58 build/default/production/_ext/1249264884/plib_coretimer.o
 .debug_ranges  0x0000000000003e40       0x58 build/default/production/_ext/1865200349/plib_evic.o
 .debug_ranges  0x0000000000003e98       0x50 build/default/production/_ext/1865254177/plib_gpio.o
 .debug_ranges  0x0000000000003ee8       0x98 build/default/production/_ext/60176403/plib_nvm.o
 .debug_ranges  0x0000000000003f80       0x28 build/default/production/_ext/1865585524/plib_rtcc.o
 .debug_ranges  0x0000000000003fa8      0x190 build/default/production/_ext/1865657120/plib_uart2.o
 .debug_ranges  0x0000000000004138       0x18 build/default/production/_ext/163028504/xc32_monitor.o
 .debug_ranges  0x0000000000004150      0x2a8 build/default/production/_ext/1376093119/sys_command.o
 .debug_ranges  0x00000000000043f8      0x1a8 build/default/production/_ext/1832805299/sys_console_uart.o
 .debug_ranges  0x00000000000045a0       0x90 build/default/production/_ext/1832805299/sys_console.o
 .debug_ranges  0x0000000000004630       0x38 build/default/production/_ext/944882569/sys_debug.o
 .debug_ranges  0x0000000000004668       0x30 build/default/production/_ext/1881668453/sys_int.o
 .debug_ranges  0x0000000000004698       0x10 build/default/production/_ext/1000052432/sys_reset.o
 .debug_ranges  0x00000000000046a8      0x190 build/default/production/_ext/101884895/sys_time.o
 .debug_ranges  0x0000000000004838       0x30 build/default/production/_ext/753841488/sys_time_h2_adapter.o
 .debug_ranges  0x0000000000004868       0x10 build/default/production/_ext/1171490990/tasks.o
 .debug_ranges  0x0000000000004878       0x18 build/default/production/_ext/1171490990/initialization.o
 .debug_ranges  0x0000000000004890       0x38 build/default/production/_ext/1171490990/interrupts.o
 .debug_ranges  0x00000000000048c8       0x28 build/default/production/_ext/1171490990/exceptions.o
 .debug_ranges  0x00000000000048f0       0x30 build/default/production/_ext/1171490990/freertos_hooks.o
 .debug_ranges  0x0000000000004920       0x28 build/default/production/_ext/1665200909/heap_1.o
 .debug_ranges  0x0000000000004948       0x48 build/default/production/_ext/951553246/port.o
 .debug_ranges  0x0000000000004990       0x28 build/default/production/_ext/951553246/port_asm.o
 .debug_ranges  0x00000000000049b8       0x30 build/default/production/_ext/404212886/list.o
 .debug_ranges  0x00000000000049e8      0x1c8 build/default/production/_ext/404212886/queue.o
 .debug_ranges  0x0000000000004bb0      0x2a0 build/default/production/_ext/404212886/FreeRTOS_tasks.o
 .debug_ranges  0x0000000000004e50       0xa0 build/default/production/_ext/404212886/event_groups.o
 .debug_ranges  0x0000000000004ef0      0x128 build/default/production/_ext/404212886/stream_buffer.o
 .debug_ranges  0x0000000000005018       0x48 build/default/production/_ext/1360937237/app.o
 .debug_ranges  0x0000000000005060       0x18 build/default/production/_ext/1360937237/main.o
 .debug_ranges  0x0000000000005078       0xd0 y:/program files/microchip/xc32/v3.01/bin/bin/../../lib/gcc/pic32mx/8.3.1/fpu64\libgcc.a(_udivdi3.o)
 .debug_ranges  0x0000000000005148       0x10 y:/program files/microchip/xc32/v3.01/bin/bin/../../lib/gcc/pic32mx/8.3.1/../../../../pic32mx/lib/fpu64\libpic32.a(default-on-reset.o)
 .debug_ranges  0x0000000000005158       0x10 y:/program files/microchip/xc32/v3.01/bin/bin/../../lib/gcc/pic32mx/8.3.1/../../../../pic32mx/lib/fpu64\libpic32.a(default-on-bootstrap.o)
 .debug_ranges  0x0000000000005168       0x10 y:/program files/microchip/xc32/v3.01/bin/bin/../../lib/gcc/pic32mx/8.3.1/../../../../pic32mx/lib/fpu64\libpic32.a(defaultinterrupt.o)
 .debug_ranges  0x0000000000005178       0x10 y:/program files/microchip/xc32/v3.01/bin/bin/../../lib/gcc/pic32mx/8.3.1/../../../../pic32mx/lib/fpu64\libc.a(calloc.o)
 .debug_ranges  0x0000000000005188       0x90 y:/program files/microchip/xc32/v3.01/bin/bin/../../lib/gcc/pic32mx/8.3.1/../../../../pic32mx/lib/fpu64\libc.a(ctypef.o)
 .debug_ranges  0x0000000000005218       0x20 y:/program files/microchip/xc32/v3.01/bin/bin/../../lib/gcc/pic32mx/8.3.1/../../../../pic32mx/lib/fpu64\libc.a(malloc.o)
 .debug_ranges  0x0000000000005238       0x18 y:/program files/microchip/xc32/v3.01/bin/bin/../../lib/gcc/pic32mx/8.3.1/../../../../pic32mx/lib/fpu64\libc.a(rand.o)
 .debug_ranges  0x0000000000005250       0x10 y:/program files/microchip/xc32/v3.01/bin/bin/../../lib/gcc/pic32mx/8.3.1/../../../../pic32mx/lib/fpu64\libc.a(strchr.o)
 .debug_ranges  0x0000000000005260       0x10 y:/program files/microchip/xc32/v3.01/bin/bin/../../lib/gcc/pic32mx/8.3.1/../../../../pic32mx/lib/fpu64\libc.a(strncmp.o)
 .debug_ranges  0x0000000000005270       0x10 y:/program files/microchip/xc32/v3.01/bin/bin/../../lib/gcc/pic32mx/8.3.1/../../../../pic32mx/lib/fpu64\libc.a(strncpy.o)
 .debug_ranges  0x0000000000005280       0x10 y:/program files/microchip/xc32/v3.01/bin/bin/../../lib/gcc/pic32mx/8.3.1/../../../../pic32mx/lib/fpu64\libc.a(strtok.o)
 .debug_ranges  0x0000000000005290       0x18 y:/program files/microchip/xc32/v3.01/bin/bin/../../lib/gcc/pic32mx/8.3.1/../../../../pic32mx/lib/fpu64\libc.a(strtol.o)
 .debug_ranges  0x00000000000052a8       0x10 y:/program files/microchip/xc32/v3.01/bin/bin/../../lib/gcc/pic32mx/8.3.1/../../../../pic32mx/lib/fpu64\libc.a(snprintf_cdnopsuxX.eo)
 .debug_ranges  0x00000000000052b8       0x10 y:/program files/microchip/xc32/v3.01/bin/bin/../../lib/gcc/pic32mx/8.3.1/../../../../pic32mx/lib/fpu64\libc.a(sprintf_cdnopsuxX.eo)
 .debug_ranges  0x00000000000052c8       0x10 y:/program files/microchip/xc32/v3.01/bin/bin/../../lib/gcc/pic32mx/8.3.1/../../../../pic32mx/lib/fpu64\libc.a(sprintf_cdnopuxX.eo)
 .debug_ranges  0x00000000000052d8       0x10 y:/program files/microchip/xc32/v3.01/bin/bin/../../lib/gcc/pic32mx/8.3.1/../../../../pic32mx/lib/fpu64\libc.a(vsnprintf_cdnopsuxX.eo)
 .debug_ranges  0x00000000000052e8       0x10 y:/program files/microchip/xc32/v3.01/bin/bin/../../lib/gcc/pic32mx/8.3.1/../../../../pic32mx/lib/fpu64\libc.a(vsnprintf.o)
 .debug_ranges  0x00000000000052f8       0x10 y:/program files/microchip/xc32/v3.01/bin/bin/../../lib/gcc/pic32mx/8.3.1/../../../../pic32mx/lib/fpu64\libc.a(strcspn.o)
 .debug_ranges  0x0000000000005308       0x10 y:/program files/microchip/xc32/v3.01/bin/bin/../../lib/gcc/pic32mx/8.3.1/../../../../pic32mx/lib/fpu64\libc.a(strspn.o)
 .debug_ranges  0x0000000000005318       0x10 y:/program files/microchip/xc32/v3.01/bin/bin/../../lib/gcc/pic32mx/8.3.1/../../../../pic32mx/lib/fpu64\libc.a(doprnt_cdnopsuxX.eo)
 .debug_ranges  0x0000000000005328       0x10 y:/program files/microchip/xc32/v3.01/bin/bin/../../lib/gcc/pic32mx/8.3.1/../../../../pic32mx/lib/fpu64\libc.a(doprnt_cdnopuxX.eo)
 .debug_ranges  0x0000000000005338       0x38 y:/program files/microchip/xc32/v3.01/bin/bin/../../lib/gcc/pic32mx/8.3.1/../../../../pic32mx/lib/fpu64\libc.a(doprnt.o)
 .debug_ranges  0x0000000000005370       0x10 y:/program files/microchip/xc32/v3.01/bin/bin/../../lib/gcc/pic32mx/8.3.1/../../../../pic32mx/lib/fpu64\libc.a(_fputc_simple.o)
 .debug_ranges  0x0000000000005380       0x10 y:/program files/microchip/xc32/v3.01/bin/bin/../../lib/gcc/pic32mx/8.3.1/../../../../pic32mx/lib/fpu64\libc.a(_flsbuf_simple.o)
 .debug_ranges  0x0000000000005390       0x10 y:/program files/microchip/xc32/v3.01/bin/bin/../../lib/gcc/pic32mx/8.3.1/../../../../pic32mx/lib/fpu64\libmfd.a(s_frexp.o)
 .debug_ranges  0x00000000000053a0       0xc8 y:/program files/microchip/xc32/v3.01/bin/bin/../../lib/gcc/pic32mx/8.3.1/fpu64\libgcc.a(_divdi3.o)
 .debug_ranges  0x0000000000005468       0xa0 y:/program files/microchip/xc32/v3.01/bin/bin/../../lib/gcc/pic32mx/8.3.1/fpu64\libgcc.a(_moddi3.o)
 .debug_ranges  0x0000000000005508       0xa0 y:/program files/microchip/xc32/v3.01/bin/bin/../../lib/gcc/pic32mx/8.3.1/fpu64\libgcc.a(_umoddi3.o)
 .debug_ranges  0x00000000000055a8       0x58 y:/program files/microchip/xc32/v3.01/bin/bin/../../lib/gcc/pic32mx/8.3.1/../../../../pic32mx/lib/fpu64\libpic32.a(sbrk.o)
 .debug_ranges  0x0000000000005600       0x10 y:/program files/microchip/xc32/v3.01/bin/bin/../../lib/gcc/pic32mx/8.3.1/../../../../pic32mx/lib/fpu64\libpic32.a(write.o)

.gnu.attributes
                0x0000000000000000       0x10
 *(.gnu.attributes)
 .gnu.attributes
                0x0000000000000000       0x10 y:/program files/microchip/xc32/v3.01/bin/bin/../../lib/gcc/pic32mx/8.3.1/../../../../pic32mx/lib/fpu64\debug-exception-return.o
 .gnu.attributes
                0x0000000000000010       0x10 build/default/production/_ext/1434821282/bsp.o
 .gnu.attributes
                0x0000000000000020       0x10 build/default/production/_ext/732082881/drv_ethmac.o
 .gnu.attributes
                0x0000000000000030       0x10 build/default/production/_ext/732082881/drv_ethmac_lib.o
 .gnu.attributes
                0x0000000000000040       0x10 build/default/production/_ext/732082881/drv_eth_pic32_lib.o
 .gnu.attributes
                0x0000000000000050       0x10 build/default/production/_ext/444070925/drv_ethphy.o
 .gnu.attributes
                0x0000000000000060       0x10 build/default/production/_ext/444070925/drv_extphy_smsc8740.o
 .gnu.attributes
                0x0000000000000070       0x10 build/default/production/_ext/438849557/drv_miim.o
 .gnu.attributes
                0x0000000000000080       0x10 build/default/production/_ext/1033058136/helpers.o
 .gnu.attributes
                0x0000000000000090       0x10 build/default/production/_ext/1033058136/icmp.o
 .gnu.attributes
                0x00000000000000a0       0x10 build/default/production/_ext/1033058136/arp.o
 .gnu.attributes
                0x00000000000000b0       0x10 build/default/production/_ext/1033058136/ipv4.o
 .gnu.attributes
                0x00000000000000c0       0x10 build/default/production/_ext/1033058136/tcpip_heap_alloc.o
 .gnu.attributes
                0x00000000000000d0       0x10 build/default/production/_ext/1033058136/tcpip_heap_internal.o
 .gnu.attributes
                0x00000000000000e0       0x10 build/default/production/_ext/1033058136/dhcp.o
 .gnu.attributes
                0x00000000000000f0       0x10 build/default/production/_ext/1033058136/dns.o
 .gnu.attributes
                0x0000000000000100       0x10 build/default/production/_ext/1033058136/hash_fnv.o
 .gnu.attributes
                0x0000000000000110       0x10 build/default/production/_ext/1033058136/oahash.o
 .gnu.attributes
                0x0000000000000120       0x10 build/default/production/_ext/1033058136/tcpip_helpers.o
 .gnu.attributes
                0x0000000000000130       0x10 build/default/production/_ext/1033058136/tcpip_helper_c32.o
 .gnu.attributes
                0x0000000000000140       0x10 build/default/production/_ext/1033058136/tcpip_manager.o
 .gnu.attributes
                0x0000000000000150       0x10 build/default/production/_ext/1033058136/tcpip_notify.o
 .gnu.attributes
                0x0000000000000160       0x10 build/default/production/_ext/1033058136/tcpip_packet.o
 .gnu.attributes
                0x0000000000000170       0x10 build/default/production/_ext/1033058136/sntp.o
 .gnu.attributes
                0x0000000000000180       0x10 build/default/production/_ext/1033058136/udp.o
 .gnu.attributes
                0x0000000000000190       0x10 build/default/production/_ext/60165520/plib_clk.o
 .gnu.attributes
                0x00000000000001a0       0x10 build/default/production/_ext/1249264884/plib_coretimer.o
 .gnu.attributes
                0x00000000000001b0       0x10 build/default/production/_ext/1865200349/plib_evic.o
 .gnu.attributes
                0x00000000000001c0       0x10 build/default/production/_ext/1865254177/plib_gpio.o
 .gnu.attributes
                0x00000000000001d0       0x10 build/default/production/_ext/60176403/plib_nvm.o
 .gnu.attributes
                0x00000000000001e0       0x10 build/default/production/_ext/1865585524/plib_rtcc.o
 .gnu.attributes
                0x00000000000001f0       0x10 build/default/production/_ext/1865657120/plib_uart2.o
 .gnu.attributes
                0x0000000000000200       0x10 build/default/production/_ext/163028504/xc32_monitor.o
 .gnu.attributes
                0x0000000000000210       0x10 build/default/production/_ext/1376093119/sys_command.o
 .gnu.attributes
                0x0000000000000220       0x10 build/default/production/_ext/1832805299/sys_console_uart.o
 .gnu.attributes
                0x0000000000000230       0x10 build/default/production/_ext/1832805299/sys_console.o
 .gnu.attributes
                0x0000000000000240       0x10 build/default/production/_ext/944882569/sys_debug.o
 .gnu.attributes
                0x0000000000000250       0x10 build/default/production/_ext/1881668453/sys_int.o
 .gnu.attributes
                0x0000000000000260       0x10 build/default/production/_ext/1000052432/sys_reset.o
 .gnu.attributes
                0x0000000000000270       0x10 build/default/production/_ext/101884895/sys_time.o
 .gnu.attributes
                0x0000000000000280       0x10 build/default/production/_ext/753841488/sys_time_h2_adapter.o
 .gnu.attributes
                0x0000000000000290       0x10 build/default/production/_ext/1171490990/tasks.o
 .gnu.attributes
                0x00000000000002a0       0x10 build/default/production/_ext/1171490990/initialization.o
 .gnu.attributes
                0x00000000000002b0       0x10 build/default/production/_ext/1171490990/interrupts.o
 .gnu.attributes
                0x00000000000002c0       0x10 build/default/production/_ext/1171490990/exceptions.o
 .gnu.attributes
                0x00000000000002d0       0x10 build/default/production/_ext/1171490990/freertos_hooks.o
 .gnu.attributes
                0x00000000000002e0       0x10 build/default/production/_ext/1665200909/heap_1.o
 .gnu.attributes
                0x00000000000002f0       0x10 build/default/production/_ext/951553246/port.o
 .gnu.attributes
                0x0000000000000300       0x10 build/default/production/_ext/951553246/port_asm.o
 .gnu.attributes
                0x0000000000000310       0x10 build/default/production/_ext/404212886/croutine.o
 .gnu.attributes
                0x0000000000000320       0x10 build/default/production/_ext/404212886/list.o
 .gnu.attributes
                0x0000000000000330       0x10 build/default/production/_ext/404212886/queue.o
 .gnu.attributes
                0x0000000000000340       0x10 build/default/production/_ext/404212886/FreeRTOS_tasks.o
 .gnu.attributes
                0x0000000000000350       0x10 build/default/production/_ext/404212886/timers.o
 .gnu.attributes
                0x0000000000000360       0x10 build/default/production/_ext/404212886/event_groups.o
 .gnu.attributes
                0x0000000000000370       0x10 build/default/production/_ext/404212886/stream_buffer.o
 .gnu.attributes
                0x0000000000000380       0x10 build/default/production/_ext/1360937237/app.o
 .gnu.attributes
                0x0000000000000390       0x10 build/default/production/_ext/1360937237/main.o
 .gnu.attributes
                0x00000000000003a0       0x10 C:\Users\DANIEL~1.RAI\AppData\Local\Temp\ccdMNJnB.o
 .gnu.attributes
                0x00000000000003b0       0x10 C:\Users\DANIEL~1.RAI\AppData\Local\Temp\cckwbaKI.o
 .gnu.attributes
                0x00000000000003c0       0x10 C:\Users\DANIEL~1.RAI\AppData\Local\Temp\ccJ1sfCC.o
 .gnu.attributes
                0x00000000000003d0       0x10 C:\Users\DANIEL~1.RAI\AppData\Local\Temp\ccXcxPD4.o
 .gnu.attributes
                0x00000000000003e0       0x10 y:/program files/microchip/xc32/v3.01/bin/bin/../../lib/gcc/pic32mx/8.3.1/../../../../pic32mx/lib/fpu64\pic32_software_reset.o
 .gnu.attributes
                0x00000000000003f0       0x10 y:/program files/microchip/xc32/v3.01/bin/bin/../../lib/gcc/pic32mx/8.3.1/fpu64\libgcc.a(_udivdi3.o)
 .gnu.attributes
                0x0000000000000400       0x10 y:/program files/microchip/xc32/v3.01/bin/bin/../../lib/gcc/pic32mx/8.3.1/../../../../pic32mx/lib/fpu64\libpic32.a(memcmp.o)
 .gnu.attributes
                0x0000000000000410       0x10 y:/program files/microchip/xc32/v3.01/bin/bin/../../lib/gcc/pic32mx/8.3.1/../../../../pic32mx/lib/fpu64\libpic32.a(memcpy.o)
 .gnu.attributes
                0x0000000000000420       0x10 y:/program files/microchip/xc32/v3.01/bin/bin/../../lib/gcc/pic32mx/8.3.1/../../../../pic32mx/lib/fpu64\libpic32.a(memset.o)
 .gnu.attributes
                0x0000000000000430       0x10 y:/program files/microchip/xc32/v3.01/bin/bin/../../lib/gcc/pic32mx/8.3.1/../../../../pic32mx/lib/fpu64\libpic32.a(strcmp.o)
 .gnu.attributes
                0x0000000000000440       0x10 y:/program files/microchip/xc32/v3.01/bin/bin/../../lib/gcc/pic32mx/8.3.1/../../../../pic32mx/lib/fpu64\libpic32.a(strcpy.o)
 .gnu.attributes
                0x0000000000000450       0x10 y:/program files/microchip/xc32/v3.01/bin/bin/../../lib/gcc/pic32mx/8.3.1/../../../../pic32mx/lib/fpu64\libpic32.a(strlen.o)
 .gnu.attributes
                0x0000000000000460       0x10 y:/program files/microchip/xc32/v3.01/bin/bin/../../lib/gcc/pic32mx/8.3.1/../../../../pic32mx/lib/fpu64\libpic32.a(default-on-reset.o)
 .gnu.attributes
                0x0000000000000470       0x10 y:/program files/microchip/xc32/v3.01/bin/bin/../../lib/gcc/pic32mx/8.3.1/../../../../pic32mx/lib/fpu64\libpic32.a(default-on-bootstrap.o)
 .gnu.attributes
                0x0000000000000480       0x10 y:/program files/microchip/xc32/v3.01/bin/bin/../../lib/gcc/pic32mx/8.3.1/../../../../pic32mx/lib/fpu64\libpic32.a(default-nmi-handler.o)
 .gnu.attributes
                0x0000000000000490       0x10 y:/program files/microchip/xc32/v3.01/bin/bin/../../lib/gcc/pic32mx/8.3.1/../../../../pic32mx/lib/fpu64\libpic32.a(pic32_data_init.o)
 .gnu.attributes
                0x00000000000004a0       0x10 y:/program files/microchip/xc32/v3.01/bin/bin/../../lib/gcc/pic32mx/8.3.1/../../../../pic32mx/lib/fpu64\libpic32.a(pic32_init_cache.o)
 .gnu.attributes
                0x00000000000004b0       0x10 y:/program files/microchip/xc32/v3.01/bin/bin/../../lib/gcc/pic32mx/8.3.1/../../../../pic32mx/lib/fpu64\libpic32.a(pic32_init_tlb_ebi_sqi.o)
 .gnu.attributes
                0x00000000000004c0       0x10 y:/program files/microchip/xc32/v3.01/bin/bin/../../lib/gcc/pic32mx/8.3.1/../../../../pic32mx/lib/fpu64\libpic32.a(general-exception.o)
 .gnu.attributes
                0x00000000000004d0       0x10 y:/program files/microchip/xc32/v3.01/bin/bin/../../lib/gcc/pic32mx/8.3.1/../../../../pic32mx/lib/fpu64\libpic32.a(cache-err-exception.o)
 .gnu.attributes
                0x00000000000004e0       0x10 y:/program files/microchip/xc32/v3.01/bin/bin/../../lib/gcc/pic32mx/8.3.1/../../../../pic32mx/lib/fpu64\libpic32.a(simple-tlb-refill-exception.o)
 .gnu.attributes
                0x00000000000004f0       0x10 y:/program files/microchip/xc32/v3.01/bin/bin/../../lib/gcc/pic32mx/8.3.1/../../../../pic32mx/lib/fpu64\libpic32.a(defaultinterrupt.o)
 .gnu.attributes
                0x0000000000000500       0x10 y:/program files/microchip/xc32/v3.01/bin/bin/../../lib/gcc/pic32mx/8.3.1/../../../../pic32mx/lib/fpu64\libc.a(calloc.o)
 .gnu.attributes
                0x0000000000000510       0x10 y:/program files/microchip/xc32/v3.01/bin/bin/../../lib/gcc/pic32mx/8.3.1/../../../../pic32mx/lib/fpu64\libc.a(ctype.o)
 .gnu.attributes
                0x0000000000000520       0x10 y:/program files/microchip/xc32/v3.01/bin/bin/../../lib/gcc/pic32mx/8.3.1/../../../../pic32mx/lib/fpu64\libc.a(ctypef.o)
 .gnu.attributes
                0x0000000000000530       0x10 y:/program files/microchip/xc32/v3.01/bin/bin/../../lib/gcc/pic32mx/8.3.1/../../../../pic32mx/lib/fpu64\libc.a(malloc.o)
 .gnu.attributes
                0x0000000000000540       0x10 y:/program files/microchip/xc32/v3.01/bin/bin/../../lib/gcc/pic32mx/8.3.1/../../../../pic32mx/lib/fpu64\libc.a(rand.o)
 .gnu.attributes
                0x0000000000000550       0x10 y:/program files/microchip/xc32/v3.01/bin/bin/../../lib/gcc/pic32mx/8.3.1/../../../../pic32mx/lib/fpu64\libc.a(strchr.o)
 .gnu.attributes
                0x0000000000000560       0x10 y:/program files/microchip/xc32/v3.01/bin/bin/../../lib/gcc/pic32mx/8.3.1/../../../../pic32mx/lib/fpu64\libc.a(strncmp.o)
 .gnu.attributes
                0x0000000000000570       0x10 y:/program files/microchip/xc32/v3.01/bin/bin/../../lib/gcc/pic32mx/8.3.1/../../../../pic32mx/lib/fpu64\libc.a(strncpy.o)
 .gnu.attributes
                0x0000000000000580       0x10 y:/program files/microchip/xc32/v3.01/bin/bin/../../lib/gcc/pic32mx/8.3.1/../../../../pic32mx/lib/fpu64\libc.a(strtok.o)
 .gnu.attributes
                0x0000000000000590       0x10 y:/program files/microchip/xc32/v3.01/bin/bin/../../lib/gcc/pic32mx/8.3.1/../../../../pic32mx/lib/fpu64\libc.a(strtol.o)
 .gnu.attributes
                0x00000000000005a0       0x10 y:/program files/microchip/xc32/v3.01/bin/bin/../../lib/gcc/pic32mx/8.3.1/../../../../pic32mx/lib/fpu64\libc.a(snprintf_cdnopsuxX.eo)
 .gnu.attributes
                0x00000000000005b0       0x10 y:/program files/microchip/xc32/v3.01/bin/bin/../../lib/gcc/pic32mx/8.3.1/../../../../pic32mx/lib/fpu64\libc.a(sprintf_cdnopsuxX.eo)
 .gnu.attributes
                0x00000000000005c0       0x10 y:/program files/microchip/xc32/v3.01/bin/bin/../../lib/gcc/pic32mx/8.3.1/../../../../pic32mx/lib/fpu64\libc.a(sprintf_cdnopuxX.eo)
 .gnu.attributes
                0x00000000000005d0       0x10 y:/program files/microchip/xc32/v3.01/bin/bin/../../lib/gcc/pic32mx/8.3.1/../../../../pic32mx/lib/fpu64\libc.a(vsnprintf_cdnopsuxX.eo)
 .gnu.attributes
                0x00000000000005e0       0x10 y:/program files/microchip/xc32/v3.01/bin/bin/../../lib/gcc/pic32mx/8.3.1/../../../../pic32mx/lib/fpu64\libc.a(vsnprintf.o)
 .gnu.attributes
                0x00000000000005f0       0x10 y:/program files/microchip/xc32/v3.01/bin/bin/../../lib/gcc/pic32mx/8.3.1/../../../../pic32mx/lib/fpu64\libc.a(errno.o)
 .gnu.attributes
                0x0000000000000600       0x10 y:/program files/microchip/xc32/v3.01/bin/bin/../../lib/gcc/pic32mx/8.3.1/../../../../pic32mx/lib/fpu64\libc.a(strcspn.o)
 .gnu.attributes
                0x0000000000000610       0x10 y:/program files/microchip/xc32/v3.01/bin/bin/../../lib/gcc/pic32mx/8.3.1/../../../../pic32mx/lib/fpu64\libc.a(strspn.o)
 .gnu.attributes
                0x0000000000000620       0x10 y:/program files/microchip/xc32/v3.01/bin/bin/../../lib/gcc/pic32mx/8.3.1/../../../../pic32mx/lib/fpu64\libc.a(doprnt_cdnopsuxX.eo)
 .gnu.attributes
                0x0000000000000630       0x10 y:/program files/microchip/xc32/v3.01/bin/bin/../../lib/gcc/pic32mx/8.3.1/../../../../pic32mx/lib/fpu64\libc.a(doprnt_cdnopuxX.eo)
 .gnu.attributes
                0x0000000000000640       0x10 y:/program files/microchip/xc32/v3.01/bin/bin/../../lib/gcc/pic32mx/8.3.1/../../../../pic32mx/lib/fpu64\libc.a(doprnt.o)
 .gnu.attributes
                0x0000000000000650       0x10 y:/program files/microchip/xc32/v3.01/bin/bin/../../lib/gcc/pic32mx/8.3.1/../../../../pic32mx/lib/fpu64\libc.a(_fputc_simple.o)
 .gnu.attributes
                0x0000000000000660       0x10 y:/program files/microchip/xc32/v3.01/bin/bin/../../lib/gcc/pic32mx/8.3.1/../../../../pic32mx/lib/fpu64\libc.a(ldpowers.o)
 .gnu.attributes
                0x0000000000000670       0x10 y:/program files/microchip/xc32/v3.01/bin/bin/../../lib/gcc/pic32mx/8.3.1/../../../../pic32mx/lib/fpu64\libc.a(_iob.o)
 .gnu.attributes
                0x0000000000000680       0x10 y:/program files/microchip/xc32/v3.01/bin/bin/../../lib/gcc/pic32mx/8.3.1/../../../../pic32mx/lib/fpu64\libc.a(_flsbuf_simple.o)
 .gnu.attributes
                0x0000000000000690       0x10 y:/program files/microchip/xc32/v3.01/bin/bin/../../lib/gcc/pic32mx/8.3.1/../../../../pic32mx/lib/fpu64\libmfd.a(s_frexp.o)
 .gnu.attributes
                0x00000000000006a0       0x10 y:/program files/microchip/xc32/v3.01/bin/bin/../../lib/gcc/pic32mx/8.3.1/fpu64\libgcc.a(_lshrdi3.o)
 .gnu.attributes
                0x00000000000006b0       0x10 y:/program files/microchip/xc32/v3.01/bin/bin/../../lib/gcc/pic32mx/8.3.1/fpu64\libgcc.a(_cmpdi2.o)
 .gnu.attributes
                0x00000000000006c0       0x10 y:/program files/microchip/xc32/v3.01/bin/bin/../../lib/gcc/pic32mx/8.3.1/fpu64\libgcc.a(_divdi3.o)
 .gnu.attributes
                0x00000000000006d0       0x10 y:/program files/microchip/xc32/v3.01/bin/bin/../../lib/gcc/pic32mx/8.3.1/fpu64\libgcc.a(_moddi3.o)
 .gnu.attributes
                0x00000000000006e0       0x10 y:/program files/microchip/xc32/v3.01/bin/bin/../../lib/gcc/pic32mx/8.3.1/fpu64\libgcc.a(_umoddi3.o)
 .gnu.attributes
                0x00000000000006f0       0x10 y:/program files/microchip/xc32/v3.01/bin/bin/../../lib/gcc/pic32mx/8.3.1/../../../../pic32mx/lib/fpu64\libpic32.a(sbrk.o)
 .gnu.attributes
                0x0000000000000700       0x10 y:/program files/microchip/xc32/v3.01/bin/bin/../../lib/gcc/pic32mx/8.3.1/../../../../pic32mx/lib/fpu64\libpic32.a(write.o)
                0x000000009d000000                PROVIDE (__pic32_init_cache_program_base_addr = 0x9d000000)
                0x0000000080000000                PROVIDE (__pic32_init_cache_data_base_addr = 0x80000000)
                0x00000000d0000000                PROVIDE (__pic32_init_sqi_kseg2_virtual_base_addr = 0xd0000000)
                0x0000000030000000                PROVIDE (__pic32_init_sqi_kseg2_physical_base_addr = 0x30000000)
                0x000000000000001f                PROVIDE (__pic32_init_sqi_kseg2_entrylo0_bitset = 0x1f)
                0x00000000d0000000                __pic32_tlb_0_entryhi = __pic32_init_sqi_kseg2_virtual_base_addr
                0x0000000000c0001f                __pic32_tlb_0_entrylo0 = ((__pic32_init_sqi_kseg2_physical_base_addr >> 0x6) | __pic32_init_sqi_kseg2_entrylo0_bitset)
                0x0000000000c4001f                __pic32_tlb_0_entrylo1 = (__pic32_tlb_0_entrylo0 | ((__pic32_init_sqi_kseg2_physical_base_addr + 0x1000000) >> 0x6))
                0x00000000d2000000                __pic32_tlb_1_entryhi = (__pic32_init_sqi_kseg2_virtual_base_addr + 0x2000000)
                0x0000000000c8001f                __pic32_tlb_1_entrylo0 = (((__pic32_init_sqi_kseg2_physical_base_addr + 0x2000000) >> 0x6) | __pic32_init_sqi_kseg2_entrylo0_bitset)
                0x0000000000cc001f                __pic32_tlb_1_entrylo1 = (__pic32_tlb_1_entrylo0 | 0x40000)
                0x00000000f0000000                PROVIDE (__pic32_init_sqi_kseg3_virtual_base_addr = 0xf0000000)
                0x0000000030000000                PROVIDE (__pic32_init_sqi_kseg3_physical_base_addr = 0x30000000)
                0x0000000000000017                PROVIDE (__pic32_init_sqi_kseg3_entrylo0_bitset = 0x17)
                0x00000000f0000000                __pic32_tlb_2_entryhi = __pic32_init_sqi_kseg3_virtual_base_addr
                0x0000000000c00017                __pic32_tlb_2_entrylo0 = ((__pic32_init_sqi_kseg3_physical_base_addr >> 0x6) | __pic32_init_sqi_kseg3_entrylo0_bitset)
                0x0000000000c40017                __pic32_tlb_2_entrylo1 = (__pic32_tlb_2_entrylo0 | ((__pic32_init_sqi_kseg3_physical_base_addr + 0x1000000) >> 0x6))
                0x00000000f2000000                __pic32_tlb_3_entryhi = (__pic32_init_sqi_kseg3_virtual_base_addr + 0x2000000)
                0x0000000000c80017                __pic32_tlb_3_entrylo0 = (((__pic32_init_sqi_kseg3_physical_base_addr + 0x2000000) >> 0x6) | __pic32_init_sqi_kseg3_entrylo0_bitset)
                0x0000000000cc0017                __pic32_tlb_3_entrylo1 = (__pic32_tlb_3_entrylo0 | 0x40000)
                0x00000000c0000000                PROVIDE (__pic32_init_ebi_kseg2_virtual_base_addr = 0xc0000000)
                0x0000000020000000                PROVIDE (__pic32_init_ebi_kseg2_physical_base_addr = 0x20000000)
                0x000000000000001f                PROVIDE (__pic32_init_ebi_kseg2_entrylo0_bitset = 0x1f)
                0x00000000c0000000                __pic32_tlb_4_entryhi = __pic32_init_ebi_kseg2_virtual_base_addr
                0x000000000080001f                __pic32_tlb_4_entrylo0 = ((__pic32_init_ebi_kseg2_physical_base_addr >> 0x6) | __pic32_init_ebi_kseg2_entrylo0_bitset)
                0x000000000084001f                __pic32_tlb_4_entrylo1 = (__pic32_tlb_4_entrylo0 | ((__pic32_init_ebi_kseg2_physical_base_addr + 0x1000000) >> 0x6))
                0x00000000c2000000                __pic32_tlb_5_entryhi = (__pic32_init_ebi_kseg2_virtual_base_addr + 0x2000000)
                0x000000000088001f                __pic32_tlb_5_entrylo0 = (((__pic32_init_ebi_kseg2_physical_base_addr + 0x2000000) >> 0x6) | __pic32_init_ebi_kseg2_entrylo0_bitset)
                0x00000000008c001f                __pic32_tlb_5_entrylo1 = (__pic32_tlb_5_entrylo0 | 0x40000)
                0x00000000e0000000                PROVIDE (__pic32_init_ebi_kseg3_virtual_base_addr = 0xe0000000)
                0x0000000020000000                PROVIDE (__pic32_init_ebi_kseg3_physical_base_addr = 0x20000000)
                0x0000000000000017                PROVIDE (__pic32_init_ebi_kseg3_entrylo0_bitset = 0x17)
                0x00000000e0000000                __pic32_tlb_6_entryhi = __pic32_init_ebi_kseg3_virtual_base_addr
                0x0000000000800017                __pic32_tlb_6_entrylo0 = ((__pic32_init_ebi_kseg3_physical_base_addr >> 0x6) | __pic32_init_ebi_kseg3_entrylo0_bitset)
                0x0000000000840017                __pic32_tlb_6_entrylo1 = (__pic32_tlb_6_entrylo0 | ((__pic32_init_ebi_kseg3_physical_base_addr + 0x1000000) >> 0x6))
                0x00000000e2000000                __pic32_tlb_7_entryhi = (__pic32_init_ebi_kseg3_virtual_base_addr + 0x2000000)
                0x0000000000880017                __pic32_tlb_7_entrylo0 = (((__pic32_init_ebi_kseg3_physical_base_addr + 0x2000000) >> 0x6) | __pic32_init_ebi_kseg3_entrylo0_bitset)
                0x00000000008c0017                __pic32_tlb_7_entrylo1 = (__pic32_tlb_7_entrylo0 | 0x40000)

.tlb_init_values
                0x00000000bfc00670       0x60
                0x00000000bfc00670                . = ALIGN (0x4)
                0x00000000bfc00670                __pic32_tlb_init_values_begin = ABSOLUTE (.)
                0x00000000bfc00670        0x4 LONG 0xd0000000 __pic32_tlb_0_entryhi
                0x00000000bfc00674        0x4 LONG 0xc0001f __pic32_tlb_0_entrylo0
                0x00000000bfc00678        0x4 LONG 0xc4001f __pic32_tlb_0_entrylo1
                0x00000000bfc0067c        0x4 LONG 0xd2000000 __pic32_tlb_1_entryhi
                0x00000000bfc00680        0x4 LONG 0xc8001f __pic32_tlb_1_entrylo0
                0x00000000bfc00684        0x4 LONG 0xcc001f __pic32_tlb_1_entrylo1
                0x00000000bfc00688        0x4 LONG 0xf0000000 __pic32_tlb_2_entryhi
                0x00000000bfc0068c        0x4 LONG 0xc00017 __pic32_tlb_2_entrylo0
                0x00000000bfc00690        0x4 LONG 0xc40017 __pic32_tlb_2_entrylo1
                0x00000000bfc00694        0x4 LONG 0xf2000000 __pic32_tlb_3_entryhi
                0x00000000bfc00698        0x4 LONG 0xc80017 __pic32_tlb_3_entrylo0
                0x00000000bfc0069c        0x4 LONG 0xcc0017 __pic32_tlb_3_entrylo1
                0x00000000bfc006a0        0x4 LONG 0xc0000000 __pic32_tlb_4_entryhi
                0x00000000bfc006a4        0x4 LONG 0x80001f __pic32_tlb_4_entrylo0
                0x00000000bfc006a8        0x4 LONG 0x84001f __pic32_tlb_4_entrylo1
                0x00000000bfc006ac        0x4 LONG 0xc2000000 __pic32_tlb_5_entryhi
                0x00000000bfc006b0        0x4 LONG 0x88001f __pic32_tlb_5_entrylo0
                0x00000000bfc006b4        0x4 LONG 0x8c001f __pic32_tlb_5_entrylo1
                0x00000000bfc006b8        0x4 LONG 0xe0000000 __pic32_tlb_6_entryhi
                0x00000000bfc006bc        0x4 LONG 0x800017 __pic32_tlb_6_entrylo0
                0x00000000bfc006c0        0x4 LONG 0x840017 __pic32_tlb_6_entrylo1
                0x00000000bfc006c4        0x4 LONG 0xe2000000 __pic32_tlb_7_entryhi
                0x00000000bfc006c8        0x4 LONG 0x880017 __pic32_tlb_7_entrylo0
                0x00000000bfc006cc        0x4 LONG 0x8c0017 __pic32_tlb_7_entrylo1
                0x00000000bfc006d0                __pic32_tlb_init_values_end = ABSOLUTE (.)
                0x00000000bfc00678                __pic32_tlb_init_values_count = 0x8
                0x000000000000fdc0                _min_heap_size = 0xfdc0
LOAD C:\Users\DANIEL~1.RAI\AppData\Local\Temp\ccdMNJnB.o
LOAD C:\Users\DANIEL~1.RAI\AppData\Local\Temp\cckwbaKI.o
LOAD C:\Users\DANIEL~1.RAI\AppData\Local\Temp\ccJ1sfCC.o
LOAD C:\Users\DANIEL~1.RAI\AppData\Local\Temp\ccXcxPD4.o
LOAD y:/program files/microchip/xc32/v3.01/bin/bin/../../lib/gcc/pic32mx/8.3.1/../../../../pic32mx/lib/fpu64\pic32_software_reset.o
LOAD y:/program files/microchip/xc32/v3.01/bin/bin/../../lib/gcc/pic32mx/8.3.1/fpu64\libgcc.a
START GROUP
LOAD y:/program files/microchip/xc32/v3.01/bin/bin/../../lib/gcc/pic32mx/8.3.1/../../../../pic32mx/lib/fpu64\libpic32.a
LOAD y:/program files/microchip/xc32/v3.01/bin/bin/../../lib/gcc/pic32mx/8.3.1/../../../../pic32mx/lib/fpu64\libdebug.a
LOAD y:/program files/microchip/xc32/v3.01/bin/bin/../../lib/gcc/pic32mx/8.3.1/../../../../pic32mx/lib/fpu64\libc.a
LOAD y:/program files/microchip/xc32/v3.01/bin/bin/../../lib/gcc/pic32mx/8.3.1/../../../../pic32mx/lib/fpu64\libmfd.a
LOAD y:/program files/microchip/xc32/v3.01/bin/bin/../../lib/gcc/pic32mx/8.3.1/../../../../pic32mx/lib/fpu64\libm.a
LOAD y:/program files/microchip/xc32/v3.01/bin/bin/../../lib/gcc/pic32mx/8.3.1/../../../../pic32mx/lib/fpu64\libe.a
LOAD y:/program files/microchip/xc32/v3.01/bin/bin/../../lib/gcc/pic32mx/8.3.1/../../../../pic32mx/lib/fpu64\libdspr2.a
LOAD y:/program files/microchip/xc32/v3.01/bin/bin/../../lib/gcc/pic32mx/8.3.1/../../../../pic32mx/lib/fpu64\libdsp.a
LOAD y:/program files/microchip/xc32/v3.01/bin/bin/../../lib/gcc/pic32mx/8.3.1/fpu64\libgcc.a
LOAD y:/program files/microchip/xc32/v3.01/bin/bin/../../lib/gcc/pic32mx/8.3.1/../../../../pic32mx/lib/fpu64\libpic32.a
END GROUP
LOAD y:/program files/microchip/xc32/v3.01/bin/bin/../../lib/gcc/pic32mx/8.3.1/fpu64\libgcc.a
OUTPUT(dist/default/production/sntp_standalone.X.production.elf elf32-tradlittlemips)
LOAD stack
LOAD data_init

.reginfo        0x0000000000000000       0x18
 .reginfo       0x0000000000000000       0x18 y:/program files/microchip/xc32/v3.01/bin/bin/../../lib/gcc/pic32mx/8.3.1/../../../../pic32mx/lib/fpu64\debug-exception-return.o

.stack          0x0000000080011ae8      0x400
 .stack         0x0000000080011ae8      0x400 stack

.__vector_offset_BF810540_data
                0x00000000bf810540      0x1ac
 .__vector_offset_BF810540_data
                0x00000000bf810540      0x1ac C:\Users\DANIEL~1.RAI\AppData\Local\Temp\ccJ1sfCC.o

.__vector_offset_BF8106F4_data
                0x00000000bf8106f4      0x148
 .__vector_offset_BF8106F4_data
                0x00000000bf8106f4      0x148 C:\Users\DANIEL~1.RAI\AppData\Local\Temp\ccJ1sfCC.o

.__vector_offset_BF810874_data
                0x00000000bf810874       0x18
 .__vector_offset_BF810874_data
                0x00000000bf810874       0x18 C:\Users\DANIEL~1.RAI\AppData\Local\Temp\ccJ1sfCC.o

.__vector_offset_BF810858_data
                0x00000000bf810858       0x14
 .__vector_offset_BF810858_data
                0x00000000bf810858       0x14 C:\Users\DANIEL~1.RAI\AppData\Local\Temp\ccJ1sfCC.o

.__vector_offset_BF810840_data
                0x00000000bf810840        0xc
 .__vector_offset_BF810840_data
                0x00000000bf810840        0xc C:\Users\DANIEL~1.RAI\AppData\Local\Temp\ccJ1sfCC.o

.__vector_offset_BF810850_data
                0x00000000bf810850        0x4
 .__vector_offset_BF810850_data
                0x00000000bf810850        0x4 C:\Users\DANIEL~1.RAI\AppData\Local\Temp\ccJ1sfCC.o

.__vector_offset_BF810894_data
                0x00000000bf810894        0x4
 .__vector_offset_BF810894_data
                0x00000000bf810894        0x4 C:\Users\DANIEL~1.RAI\AppData\Local\Temp\ccJ1sfCC.o

.bss            0x00000000800001a0      0xcc4
 .bss           0x00000000800001a0      0x800 build/default/production/_ext/951553246/port.o
                0x00000000800001a0                xISRStack
 .bss           0x00000000800009a0      0x4c4 build/default/production/_ext/1865657120/plib_uart2.o
                0x0000000080000e20                uart2Obj

.bss            0x0000000080000e64      0x7d4
 .bss           0x0000000080000e64      0x480 build/default/production/_ext/1376093119/sys_command.o
 .bss           0x00000000800012e4      0x354 build/default/production/_ext/1033058136/tcpip_manager.o

.data           0x0000000080001640      0x140
 .data          0x0000000080001640      0x140 build/default/production/_ext/732082881/drv_ethmac.o

.bss            0x0000000080001780      0x1c0
 .bss           0x0000000080001780       0xec build/default/production/_ext/101884895/sys_time.o
 .bss           0x000000008000186c       0xd4 build/default/production/_ext/1832805299/sys_console.o

.bss            0x0000000080001940      0x160
 .bss           0x0000000080001940       0xc8 build/default/production/_ext/404212886/FreeRTOS_tasks.o
 .bss           0x0000000080001a08       0x98 build/default/production/_ext/438849557/drv_miim.o

.bss            0x0000000080001aa0       0x74
 .bss           0x0000000080001aa0       0x74 build/default/production/_ext/444070925/drv_ethphy.o

.bss            0x0000000080001b18       0x4f
 .bss           0x0000000080001b18       0x4f build/default/production/_ext/1033058136/sntp.o

.bss            0x0000000080001b68       0x94
 .bss           0x0000000080001b68       0x4c build/default/production/_ext/1360937237/app.o
                0x0000000080001b68                printBuffer
                0x0000000080001ba8                appData
 .bss           0x0000000080001bb4       0x48 build/default/production/_ext/1033058136/arp.o

.bss            0x0000000080001bfc       0x41
 .bss           0x0000000080001bfc       0x41 y:/program files/microchip/xc32/v3.01/bin/bin/../../lib/gcc/pic32mx/8.3.1/../../../../pic32mx/lib/fpu64\libc.a(_iob.o)
                0x0000000080001bfc                _sobuf
                0x0000000080001c1c                _sibuf
                0x0000000080001c3c                _outdone

.bss            0x0000000080001c40       0x50
 .bss           0x0000000080001c40       0x2c build/default/production/_ext/1033058136/ipv4.o
 .bss           0x0000000080001c6c       0x24 y:/program files/microchip/xc32/v3.01/bin/bin/../../lib/gcc/pic32mx/8.3.1/../../../../pic32mx/lib/fpu64\libpic32.a(sbrk.o)
                0x0000000080001c88                _maxbrk
                0x0000000080001c8c                _minbrk

.bss            0x0000000080001c90       0x20
 .bss           0x0000000080001c90       0x20 y:/program files/microchip/xc32/v3.01/bin/bin/../../lib/gcc/pic32mx/8.3.1/../../../../pic32mx/lib/fpu64\libc.a(malloc.o)
                0x0000000080001c90                __allocx
                0x0000000080001c98                __alloct
                0x0000000080001c9c                __allocp
                0x0000000080001ca0                __allocs

.data           0x0000000080001cb0       0x1c
 .data          0x0000000080001cb0       0x1c build/default/production/_ext/1171490990/initialization.o
                0x0000000080001cb0                tcpipHeapConfig

.bss            0x0000000080001ccc       0x24
 .bss           0x0000000080001ccc       0x14 build/default/production/_ext/1171490990/initialization.o
                0x0000000080001ccc                sysObj
 .bss           0x0000000080001ce0       0x10 build/default/production/_ext/1033058136/dhcp.o

.bss            0x0000000080001cf0       0x1c
 .bss           0x0000000080001cf0       0x10 y:/program files/microchip/xc32/v3.01/bin/bin/../../lib/gcc/pic32mx/8.3.1/../../../../pic32mx/lib/fpu64\libc.a(rand.o)
 .bss           0x0000000080001d00        0xc build/default/production/_ext/1832805299/sys_console_uart.o

.bss            0x000000008000019c        0x4
 .bss           0x000000008000019c        0x4 y:/program files/microchip/xc32/v3.01/bin/bin/../../lib/gcc/pic32mx/8.3.1/../../../../pic32mx/lib/fpu64\libc.a(strtok.o)

.bss.errno      0x0000000080001b14        0x4
 .bss.errno     0x0000000080001b14        0x4 y:/program files/microchip/xc32/v3.01/bin/bin/../../lib/gcc/pic32mx/8.3.1/../../../../pic32mx/lib/fpu64\libc.a(errno.o)
                0x0000000080001b14                errno

._debug_exception
                0x00000000bfc00480       0x2c
 ._debug_exception
                0x00000000bfc00480       0x2c y:/program files/microchip/xc32/v3.01/bin/bin/../../lib/gcc/pic32mx/8.3.1/../../../../pic32mx/lib/fpu64\debug-exception-return.o
                0x00000000bfc00480                __DbgExecReturn

.text.vfprintf  0x000000009d0006fc     0x1934
 .text.vfprintf
                0x000000009d0006fc     0x1934 y:/program files/microchip/xc32/v3.01/bin/bin/../../lib/gcc/pic32mx/8.3.1/../../../../pic32mx/lib/fpu64\libc.a(doprnt.o)
                0x000000009d0006fc                vfprintf

.text.TCPIP_STACK_Task
                0x000000009d002030      0x92c
 .text.TCPIP_STACK_Task
                0x000000009d002030      0x92c build/default/production/_ext/1033058136/tcpip_manager.o
                0x000000009d002030                TCPIP_STACK_Task

.text._vfprintf_cdnopsuxX
                0x000000009d00295c      0x8cc
 .text._vfprintf_cdnopsuxX
                0x000000009d00295c      0x8cc y:/program files/microchip/xc32/v3.01/bin/bin/../../lib/gcc/pic32mx/8.3.1/../../../../pic32mx/lib/fpu64\libc.a(doprnt_cdnopsuxX.eo)
                0x000000009d00295c                _vfprintf_cdnopuxX
                0x000000009d00295c                _vfprintf_cdnopsuxX

.dinit          0x000000009d003228      0x880
 .dinit         0x000000009d003228      0x880 data_init

.text.TCPIP_DHCP_Task
                0x000000009d003aa8      0x744
 .text.TCPIP_DHCP_Task
                0x000000009d003aa8      0x744 build/default/production/_ext/1033058136/dhcp.o
                0x000000009d003aa8                TCPIP_DHCP_Task

.text._TCPIP_DoInitialize
                0x000000009d0041ec      0x6c0
 .text._TCPIP_DoInitialize
                0x000000009d0041ec      0x6c0 build/default/production/_ext/1033058136/tcpip_manager.o

.text.SYS_CMD_Tasks
                0x000000009d0048ac      0x6b4
 .text.SYS_CMD_Tasks
                0x000000009d0048ac      0x6b4 build/default/production/_ext/1376093119/sys_command.o
                0x000000009d0048ac                SYS_CMD_Tasks

.text.TCPIP_SNTP_Task
                0x000000009d004f60      0x64c
 .text.TCPIP_SNTP_Task
                0x000000009d004f60      0x64c build/default/production/_ext/1033058136/sntp.o
                0x000000009d004f60                TCPIP_SNTP_Task

.text.DRV_ETHMAC_PIC32MACInitialize
                0x000000009d0055ac      0x55c
 .text.DRV_ETHMAC_PIC32MACInitialize
                0x000000009d0055ac      0x55c build/default/production/_ext/732082881/drv_ethmac.o
                0x000000009d0055ac                DRV_ETHMAC_PIC32MACInitialize

.rodata.str1.4  0x000000009d005b08      0x490
 .rodata.str1.4
                0x000000009d005b08      0x490 build/default/production/_ext/1033058136/tcpip_manager.o

.text.TCPIP_ARP_Task
                0x000000009d005f98      0x450
 .text.TCPIP_ARP_Task
                0x000000009d005f98      0x450 build/default/production/_ext/1033058136/arp.o
                0x000000009d005f98                TCPIP_ARP_Task

.text           0x000000009d0063e8      0x7e4
 .text          0x000000009d0063e8      0x3f8 y:/program files/microchip/xc32/v3.01/bin/bin/../../lib/gcc/pic32mx/8.3.1/fpu64\libgcc.a(_umoddi3.o)
                0x000000009d0063e8                __umoddi3
 .text          0x000000009d0067e0      0x3ec y:/program files/microchip/xc32/v3.01/bin/bin/../../lib/gcc/pic32mx/8.3.1/fpu64\libgcc.a(_udivdi3.o)
                0x000000009d0067e0                __udivdi3

.text.TCPIP_STACK_BringNetUp
                0x000000009d006bcc      0x3a0
 .text.TCPIP_STACK_BringNetUp
                0x000000009d006bcc      0x3a0 build/default/production/_ext/1033058136/tcpip_manager.o

.text.TCPIP_ARP_Initialize
                0x000000009d006f6c      0x38c
 .text.TCPIP_ARP_Initialize
                0x000000009d006f6c      0x38c build/default/production/_ext/1033058136/arp.o
                0x000000009d006f6c                TCPIP_ARP_Initialize

.text.TCPIP_IPV4_Task
                0x000000009d0072f8      0x358
 .text.TCPIP_IPV4_Task
                0x000000009d0072f8      0x358 build/default/production/_ext/1033058136/ipv4.o
                0x000000009d0072f8                TCPIP_IPV4_Task

.text.TCPIP_IPV4_PktTx
                0x000000009d007650      0x34c
 .text.TCPIP_IPV4_PktTx
                0x000000009d007650      0x34c build/default/production/_ext/1033058136/ipv4.o
                0x000000009d007650                TCPIP_IPV4_PktTx

.text.TCPIP_UDP_Flush
                0x000000009d00799c      0x32c
 .text.TCPIP_UDP_Flush
                0x000000009d00799c      0x32c build/default/production/_ext/1033058136/udp.o
                0x000000009d00799c                TCPIP_UDP_Flush

.text._DHCPReceive
                0x000000009d007cc8      0x300
 .text._DHCPReceive
                0x000000009d007cc8      0x300 build/default/production/_ext/1033058136/dhcp.o

.text._DRV_ETHPHY_DefaultDetect
                0x000000009d007fc8      0x2f8
 .text._DRV_ETHPHY_DefaultDetect
                0x000000009d007fc8      0x2f8 build/default/production/_ext/444070925/drv_ethphy.o

.text.TCPIP_UDP_Task
                0x000000009d0082c0      0x2f4
 .text.TCPIP_UDP_Task
                0x000000009d0082c0      0x2f4 build/default/production/_ext/1033058136/udp.o
                0x000000009d0082c0                TCPIP_UDP_Task

.text.TCPIP_UDP_OptionsSet
                0x000000009d0085b4      0x2ec
 .text.TCPIP_UDP_OptionsSet
                0x000000009d0085b4      0x2ec build/default/production/_ext/1033058136/udp.o
                0x000000009d0085b4                TCPIP_UDP_OptionsSet

.text._DHCPSend
                0x000000009d0088a0      0x2cc
 .text._DHCPSend
                0x000000009d0088a0      0x2cc build/default/production/_ext/1033058136/dhcp.o

.text.CommandHelp
                0x000000009d008b6c      0x2c4
 .text.CommandHelp
                0x000000009d008b6c      0x2c4 build/default/production/_ext/1376093119/sys_command.o

.text.DRV_MIIM_Tasks
                0x000000009d008e30      0x2a8
 .text.DRV_MIIM_Tasks
                0x000000009d008e30      0x2a8 build/default/production/_ext/438849557/drv_miim.o
                0x000000009d008e30                DRV_MIIM_Tasks

.text._DHCPOptionHostName
                0x000000009d0090d8      0x288
 .text._DHCPOptionHostName
                0x000000009d0090d8      0x288 build/default/production/_ext/1033058136/dhcp.o

.rodata.str1.4  0x000000009d009360      0x26c
 .rodata.str1.4
                0x000000009d009360      0x26c build/default/production/_ext/1376093119/sys_command.o

.text           0x000000009d0095cc      0x25c
 .text          0x000000009d0095cc      0x25c build/default/production/_ext/1033058136/tcpip_helper_c32.o
                0x000000009d0095cc                TCPIP_Helper_htonl
                0x000000009d0095d8                TCPIP_Helper_htons
                0x000000009d0095e4                TCPIP_Helper_htonll
                0x000000009d0095f8                TCPIP_Helper_CalcIPChecksum

.text.DRV_ETHMAC_PIC32MACPacketRx
                0x000000009d009828      0x254
 .text.DRV_ETHMAC_PIC32MACPacketRx
                0x000000009d009828      0x254 build/default/production/_ext/732082881/drv_ethmac.o
                0x000000009d009828                DRV_ETHMAC_PIC32MACPacketRx

.text.TCPIP_DHCP_Initialize
                0x000000009d009a7c      0x254
 .text.TCPIP_DHCP_Initialize
                0x000000009d009a7c      0x254 build/default/production/_ext/1033058136/dhcp.o
                0x000000009d009a7c                TCPIP_DHCP_Initialize

.text._UDPOpen  0x000000009d009cd0      0x250
 .text._UDPOpen
                0x000000009d009cd0      0x250 build/default/production/_ext/1033058136/udp.o

.text.TCPIP_IPV4_PacketFormatTx
                0x000000009d009f20      0x238
 .text.TCPIP_IPV4_PacketFormatTx
                0x000000009d009f20      0x238 build/default/production/_ext/1033058136/ipv4.o
                0x000000009d009f20                TCPIP_IPV4_PacketFormatTx

.text.DRV_ETHMAC_LibRxBuffersAppend
                0x000000009d00a158      0x22c
 .text.DRV_ETHMAC_LibRxBuffersAppend
                0x000000009d00a158      0x22c build/default/production/_ext/732082881/drv_ethmac_lib.o
                0x000000009d00a158                DRV_ETHMAC_LibRxBuffersAppend

.text.malloc    0x000000009d00a384      0x224
 .text.malloc   0x000000009d00a384      0x224 y:/program files/microchip/xc32/v3.01/bin/bin/../../lib/gcc/pic32mx/8.3.1/../../../../pic32mx/lib/fpu64\libc.a(malloc.o)
                0x000000009d00a384                malloc

.text._TCPIP_HEAP_Free
                0x000000009d00a5a8      0x220
 .text._TCPIP_HEAP_Free
                0x000000009d00a5a8      0x220 build/default/production/_ext/1033058136/tcpip_heap_internal.o

.text.TCPIP_UDP_Bind
                0x000000009d00a7c8      0x218
 .text.TCPIP_UDP_Bind
                0x000000009d00a7c8      0x218 build/default/production/_ext/1033058136/udp.o
                0x000000009d00a7c8                TCPIP_UDP_Bind

.text._LoadNetworkConfig
                0x000000009d00a9e0      0x210
 .text._LoadNetworkConfig
                0x000000009d00a9e0      0x210 build/default/production/_ext/1033058136/tcpip_manager.o

.text.TCPIP_Helper_StringToIPAddress
                0x000000009d00abf0      0x1fc
 .text.TCPIP_Helper_StringToIPAddress
                0x000000009d00abf0      0x1fc build/default/production/_ext/1033058136/tcpip_helpers.o
                0x000000009d00abf0                TCPIP_Helper_StringToIPAddress

.text.TCPIP_ARP_EntryRemoveNet
                0x000000009d00adec      0x1ec
 .text.TCPIP_ARP_EntryRemoveNet
                0x000000009d00adec      0x1ec build/default/production/_ext/1033058136/arp.o
                0x000000009d00adec                TCPIP_ARP_EntryRemoveNet

.text.TCPIP_UDP_OptionsGet
                0x000000009d00afd8      0x1e4
 .text.TCPIP_UDP_OptionsGet
                0x000000009d00afd8      0x1e4 build/default/production/_ext/1033058136/udp.o
                0x000000009d00afd8                TCPIP_UDP_OptionsGet

.text.SYS_TIME_PLIBCallback
                0x000000009d00b1bc      0x1e0
 .text.SYS_TIME_PLIBCallback
                0x000000009d00b1bc      0x1e0 build/default/production/_ext/101884895/sys_time.o

.text.TCPIP_IPV4_Initialize
                0x000000009d00b39c      0x1d8
 .text.TCPIP_IPV4_Initialize
                0x000000009d00b39c      0x1d8 build/default/production/_ext/1033058136/ipv4.o
                0x000000009d00b39c                TCPIP_IPV4_Initialize

.text.TCPIP_UDP_Deinitialize
                0x000000009d00b574      0x1d8
 .text.TCPIP_UDP_Deinitialize
                0x000000009d00b574      0x1d8 build/default/production/_ext/1033058136/udp.o
                0x000000009d00b574                TCPIP_UDP_Deinitialize

.text.CORE_TIMER_Handler
                0x000000009d00b74c      0x1d0
 .text.CORE_TIMER_Handler
                0x000000009d00b74c      0x1d0 build/default/production/_ext/1171490990/interrupts.o
                0x000000009d00b74c                CORE_TIMER_Handler

.text.UART2_FAULT_Handler
                0x000000009d00b91c      0x1d0
 .text.UART2_FAULT_Handler
                0x000000009d00b91c      0x1d0 build/default/production/_ext/1171490990/interrupts.o
                0x000000009d00b91c                UART2_FAULT_Handler

.text.UART2_RX_Handler
                0x000000009d00baec      0x1d0
 .text.UART2_RX_Handler
                0x000000009d00baec      0x1d0 build/default/production/_ext/1171490990/interrupts.o
                0x000000009d00baec                UART2_RX_Handler

.text.UART2_TX_Handler
                0x000000009d00bcbc      0x1d0
 .text.UART2_TX_Handler
                0x000000009d00bcbc      0x1d0 build/default/production/_ext/1171490990/interrupts.o
                0x000000009d00bcbc                UART2_TX_Handler

.text.ETHERNET_Handler
                0x000000009d00be8c      0x1d0
 .text.ETHERNET_Handler
                0x000000009d00be8c      0x1d0 build/default/production/_ext/1171490990/interrupts.o
                0x000000009d00be8c                ETHERNET_Handler

.text.FLASH_CONTROL_Handler
                0x000000009d00c05c      0x1d0
 .text.FLASH_CONTROL_Handler
                0x000000009d00c05c      0x1d0 build/default/production/_ext/1171490990/interrupts.o
                0x000000009d00c05c                FLASH_CONTROL_Handler

.text.TCPIP_UDP_ArrayGet
                0x000000009d00c22c      0x1c0
 .text.TCPIP_UDP_ArrayGet
                0x000000009d00c22c      0x1c0 build/default/production/_ext/1033058136/udp.o
                0x000000009d00c22c                TCPIP_UDP_ArrayGet

.text.DRV_ETHMAC_LibRxAcknowledgeBuffer
                0x000000009d00c3ec      0x1bc
 .text.DRV_ETHMAC_LibRxAcknowledgeBuffer
                0x000000009d00c3ec      0x1bc build/default/production/_ext/732082881/drv_ethmac_lib.o
                0x000000009d00c3ec                DRV_ETHMAC_LibRxAcknowledgeBuffer

.text.APP_Tasks
                0x000000009d00c5a8      0x1bc
 .text.APP_Tasks
                0x000000009d00c5a8      0x1bc build/default/production/_ext/1360937237/app.o
                0x000000009d00c5a8                APP_Tasks

.text.DRV_ETHMAC_PIC32MACPacketTx
                0x000000009d00c764      0x1b4
 .text.DRV_ETHMAC_PIC32MACPacketTx
                0x000000009d00c764      0x1b4 build/default/production/_ext/732082881/drv_ethmac.o
                0x000000009d00c764                DRV_ETHMAC_PIC32MACPacketTx

.text._EthAckPacket
                0x000000009d00c918      0x1b4
 .text._EthAckPacket
                0x000000009d00c918      0x1b4 build/default/production/_ext/732082881/drv_ethmac_lib.o

.text.TCPIP_SNTP_Initialize
                0x000000009d00cacc      0x1a8
 .text.TCPIP_SNTP_Initialize
                0x000000009d00cacc      0x1a8 build/default/production/_ext/1033058136/sntp.o
                0x000000009d00cacc                TCPIP_SNTP_Initialize

.text.xTaskIncrementTick
                0x000000009d00cc74      0x1a4
 .text.xTaskIncrementTick
                0x000000009d00cc74      0x1a4 build/default/production/_ext/404212886/FreeRTOS_tasks.o
                0x000000009d00cc74                xTaskIncrementTick

.text._EthAppendBusyList
                0x000000009d00ce18      0x1a0
 .text._EthAppendBusyList
                0x000000009d00ce18      0x1a0 build/default/production/_ext/732082881/drv_ethmac_lib.o

.rodata         0x000000009d00cfb8      0x1a0
 .rodata        0x000000009d00cfb8      0x1a0 build/default/production/_ext/1171490990/initialization.o
                0x000000009d00cfb8                debugInit
                0x000000009d00cfc4                sysCmdInit
                0x000000009d00cfc8                sysConsole0Init
                0x000000009d00cfd4                sysConsole0UARTInitData
                0x000000009d00cfd8                sysConsole0UARTPlibAPI
                0x000000009d00cff0                sysTimeInitData
                0x000000009d00cff8                sysTimePlibAPI
                0x000000009d00d014                TCPIP_STACK_MODULE_CONFIG_TBL_SIZE
                0x000000009d00d018                TCPIP_STACK_MODULE_CONFIG_TBL
                0x000000009d00d058                TCPIP_HOSTS_CONFIGURATION_SIZE
                0x000000009d00d05c                TCPIP_HOSTS_CONFIGURATION
                0x000000009d00d094                tcpipIPv4InitData
                0x000000009d00d0ac                tcpipMACPIC32INTInitData
                0x000000009d00d0cc                tcpipPhyInitData
                0x000000009d00d0f0                tcpipICMPInitData
                0x000000009d00d0f4                tcpipDHCPInitData
                0x000000009d00d104                tcpipSNTPInitData
                0x000000009d00d120                tcpipUDPInitData
                0x000000009d00d128                tcpipARPInitData

.text           0x000000009d00d158      0x1a0
 .text          0x000000009d00d158      0x1a0 y:/program files/microchip/xc32/v3.01/bin/bin/../../lib/gcc/pic32mx/8.3.1/../../../../pic32mx/lib/fpu64\libpic32.a(strcpy.o)
                0x000000009d00d158                strcpy

.text._TCPIP_HEAP_Malloc
                0x000000009d00d2f8      0x19c
 .text._TCPIP_HEAP_Malloc
                0x000000009d00d2f8      0x19c build/default/production/_ext/1033058136/tcpip_heap_internal.o

.text._DRV_MIIM_StartOp
                0x000000009d00d494      0x198
 .text._DRV_MIIM_StartOp
                0x000000009d00d494      0x198 build/default/production/_ext/438849557/drv_miim.o

.text.DRV_ETHMAC_LibRxGetPacket
                0x000000009d00d62c      0x194
 .text.DRV_ETHMAC_LibRxGetPacket
                0x000000009d00d62c      0x194 build/default/production/_ext/732082881/drv_ethmac_lib.o
                0x000000009d00d62c                DRV_ETHMAC_LibRxGetPacket

.text.TCPIP_ICMP_Task
                0x000000009d00d7c0      0x194
 .text.TCPIP_ICMP_Task
                0x000000009d00d7c0      0x194 build/default/production/_ext/1033058136/icmp.o
                0x000000009d00d7c0                TCPIP_ICMP_Task

.text._ARPProbeAddress
                0x000000009d00d954      0x190
 .text._ARPProbeAddress
                0x000000009d00d954      0x190 build/default/production/_ext/1033058136/arp.o

.text._DRV_ETHMAC_AddRxBuffers
                0x000000009d00dae4      0x18c
 .text._DRV_ETHMAC_AddRxBuffers
                0x000000009d00dae4      0x18c build/default/production/_ext/732082881/drv_ethmac.o

.text.UART2_RX_InterruptHandler
                0x000000009d00dc70      0x18c
 .text.UART2_RX_InterruptHandler
                0x000000009d00dc70      0x18c build/default/production/_ext/1865657120/plib_uart2.o
                0x000000009d00dc70                UART2_RX_InterruptHandler

.text.DRV_MIIM_Setup
                0x000000009d00ddfc      0x188
 .text.DRV_MIIM_Setup
                0x000000009d00ddfc      0x188 build/default/production/_ext/438849557/drv_miim.o
                0x000000009d00ddfc                DRV_MIIM_Setup

.text.TCPIP_Helper_StringToMACAddress
                0x000000009d00df84      0x184
 .text.TCPIP_Helper_StringToMACAddress
                0x000000009d00df84      0x184 build/default/production/_ext/1033058136/tcpip_helpers.o
                0x000000009d00df84                TCPIP_Helper_StringToMACAddress

.text.UART2_TX_InterruptHandler
                0x000000009d00e108      0x184
 .text.UART2_TX_InterruptHandler
                0x000000009d00e108      0x184 build/default/production/_ext/1865657120/plib_uart2.o
                0x000000009d00e108                UART2_TX_InterruptHandler

.text._DRV_MIIM_ClientDeallocate
                0x000000009d00e28c      0x17c
 .text._DRV_MIIM_ClientDeallocate
                0x000000009d00e28c      0x17c build/default/production/_ext/438849557/drv_miim.o

.text.TCPIP_IPV4_ArpHandler
                0x000000009d00e408      0x17c
 .text.TCPIP_IPV4_ArpHandler
                0x000000009d00e408      0x17c build/default/production/_ext/1033058136/ipv4.o

.text.TCPIP_UDP_Initialize
                0x000000009d00e584      0x17c
 .text.TCPIP_UDP_Initialize
                0x000000009d00e584      0x17c build/default/production/_ext/1033058136/udp.o
                0x000000009d00e584                TCPIP_UDP_Initialize

.text.SYS_TIME_HwTimerCompareUpdate
                0x000000009d00e700      0x17c
 .text.SYS_TIME_HwTimerCompareUpdate
                0x000000009d00e700      0x17c build/default/production/_ext/101884895/sys_time.o

.text.DRV_EXTPHY_MDIXConfigure
                0x000000009d00e87c      0x178
 .text.DRV_EXTPHY_MDIXConfigure
                0x000000009d00e87c      0x178 build/default/production/_ext/444070925/drv_extphy_smsc8740.o

.text.DRV_ETHMAC_PIC32MACTasks
                0x000000009d00e9f4      0x170
 .text.DRV_ETHMAC_PIC32MACTasks
                0x000000009d00e9f4      0x170 build/default/production/_ext/732082881/drv_ethmac.o
                0x000000009d00e9f4                DRV_ETHMAC_PIC32MACTasks

.text.DRV_ETHMAC_LibTxSendPacket
                0x000000009d00eb64      0x170
 .text.DRV_ETHMAC_LibTxSendPacket
                0x000000009d00eb64      0x170 build/default/production/_ext/732082881/drv_ethmac_lib.o
                0x000000009d00eb64                DRV_ETHMAC_LibTxSendPacket

.text.TCPIP_IPV4_DeInitialize
                0x000000009d00ecd4      0x170
 .text.TCPIP_IPV4_DeInitialize
                0x000000009d00ecd4      0x170 build/default/production/_ext/1033058136/ipv4.o
                0x000000009d00ecd4                TCPIP_IPV4_DeInitialize

.text.DRV_ETHMAC_PIC32MACEventMaskSet
                0x000000009d00ee44      0x168
 .text.DRV_ETHMAC_PIC32MACEventMaskSet
                0x000000009d00ee44      0x168 build/default/production/_ext/732082881/drv_ethmac.o
                0x000000009d00ee44                DRV_ETHMAC_PIC32MACEventMaskSet

.text.DRV_ETHPHY_Setup
                0x000000009d00efac      0x168
 .text.DRV_ETHPHY_Setup
                0x000000009d00efac      0x168 build/default/production/_ext/444070925/drv_ethphy.o
                0x000000009d00efac                DRV_ETHPHY_Setup

.text           0x000000009d00f114      0x2d0
 .text          0x000000009d00f114      0x168 y:/program files/microchip/xc32/v3.01/bin/bin/../../lib/gcc/pic32mx/8.3.1/../../../../pic32mx/lib/fpu64\libpic32.a(memcpy.o)
                0x000000009d00f114                memcpy
 .text          0x000000009d00f27c      0x168 y:/program files/microchip/xc32/v3.01/bin/bin/../../lib/gcc/pic32mx/8.3.1/../../../../pic32mx/lib/fpu64\libpic32.a(strlen.o)
                0x000000009d00f27c                strlen

.rodata         0x000000009d00f3e8      0x160
 .rodata        0x000000009d00f3e8      0x160 y:/program files/microchip/xc32/v3.01/bin/bin/../../lib/gcc/pic32mx/8.3.1/../../../../pic32mx/lib/fpu64\libc.a(ldpowers.o)
                0x000000009d00f3e8                _npowers_
                0x000000009d00f498                _powers_

.text._DRV_ETHPHY_NegResultPhase_ANAD
                0x000000009d00f548      0x15c
 .text._DRV_ETHPHY_NegResultPhase_ANAD
                0x000000009d00f548      0x15c build/default/production/_ext/444070925/drv_ethphy.o

.text.DRV_EXTPHY_MIIConfigure
                0x000000009d00f6a4      0x158
 .text.DRV_EXTPHY_MIIConfigure
                0x000000009d00f6a4      0x158 build/default/production/_ext/444070925/drv_extphy_smsc8740.o

.text.scale     0x000000009d00f7fc      0x158
 .text.scale    0x000000009d00f7fc      0x158 y:/program files/microchip/xc32/v3.01/bin/bin/../../lib/gcc/pic32mx/8.3.1/../../../../pic32mx/lib/fpu64\libc.a(doprnt.o)

.text._sbrk_init
                0x000000009d00f954      0x154
 .text._sbrk_init
                0x000000009d00f954      0x154 y:/program files/microchip/xc32/v3.01/bin/bin/../../lib/gcc/pic32mx/8.3.1/../../../../pic32mx/lib/fpu64\libpic32.a(sbrk.o)
                0x000000009d00f954                _sbrk_init

.text._ARPSendIfPkt
                0x000000009d00faa8      0x150
 .text._ARPSendIfPkt
                0x000000009d00faa8      0x150 build/default/production/_ext/1033058136/arp.o

.text.TCPIP_HEAP_CreateInternal
                0x000000009d00fbf8      0x150
 .text.TCPIP_HEAP_CreateInternal
                0x000000009d00fbf8      0x150 build/default/production/_ext/1033058136/tcpip_heap_internal.o
                0x000000009d00fbf8                TCPIP_HEAP_CreateInternal

.text.TCPIP_STACK_KillStack
                0x000000009d00fd48      0x14c
 .text.TCPIP_STACK_KillStack
                0x000000009d00fd48      0x14c build/default/production/_ext/1033058136/tcpip_manager.o

.text._ARPDeleteResources
                0x000000009d00fe94      0x148
 .text._ARPDeleteResources
                0x000000009d00fe94      0x148 build/default/production/_ext/1033058136/arp.o

.text.TCPIP_IPV4_MacPacketSwitchTxToRx
                0x000000009d00ffdc      0x144
 .text.TCPIP_IPV4_MacPacketSwitchTxToRx
                0x000000009d00ffdc      0x144 build/default/production/_ext/1033058136/ipv4.o
                0x000000009d00ffdc                TCPIP_IPV4_MacPacketSwitchTxToRx

.text.SYS_TIME_Initialize
                0x000000009d010120      0x144
 .text.SYS_TIME_Initialize
                0x000000009d010120      0x144 build/default/production/_ext/101884895/sys_time.o
                0x000000009d010120                SYS_TIME_Initialize

.text.DRV_ETHMAC_Tasks_ISR
                0x000000009d010264      0x140
 .text.DRV_ETHMAC_Tasks_ISR
                0x000000009d010264      0x140 build/default/production/_ext/732082881/drv_ethmac.o
                0x000000009d010264                DRV_ETHMAC_Tasks_ISR

.text._DRV_ETHPHY_SetupPhaseReset
                0x000000009d0103a4      0x140
 .text._DRV_ETHPHY_SetupPhaseReset
                0x000000009d0103a4      0x140 build/default/production/_ext/444070925/drv_ethphy.o

.text.DRV_MIIM_OperationResult
                0x000000009d0104e4      0x140
 .text.DRV_MIIM_OperationResult
                0x000000009d0104e4      0x140 build/default/production/_ext/438849557/drv_miim.o
                0x000000009d0104e4                DRV_MIIM_OperationResult

.text._UDPv4TxAckFnc
                0x000000009d010624      0x140
 .text._UDPv4TxAckFnc
                0x000000009d010624      0x140 build/default/production/_ext/1033058136/udp.o

.text.UART2_Write
                0x000000009d010764      0x140
 .text.UART2_Write
                0x000000009d010764      0x140 build/default/production/_ext/1865657120/plib_uart2.o
                0x000000009d010764                UART2_Write

.text.DisplayNodeMsg
                0x000000009d0108a4      0x138
 .text.DisplayNodeMsg
                0x000000009d0108a4      0x138 build/default/production/_ext/1376093119/sys_command.o

.text.DRV_ETHMAC_PIC32MACRxFilterHashTableEntrySet
                0x000000009d0109dc      0x134
 .text.DRV_ETHMAC_PIC32MACRxFilterHashTableEntrySet
                0x000000009d0109dc      0x134 build/default/production/_ext/732082881/drv_ethmac.o
                0x000000009d0109dc                DRV_ETHMAC_PIC32MACRxFilterHashTableEntrySet

.text.TCPIP_ARP_IsResolved
                0x000000009d010b10      0x134
 .text.TCPIP_ARP_IsResolved
                0x000000009d010b10      0x134 build/default/production/_ext/1033058136/arp.o
                0x000000009d010b10                TCPIP_ARP_IsResolved

.text.DRV_ETHMAC_LibDescriptorsPoolAdd
                0x000000009d010c44      0x130
 .text.DRV_ETHMAC_LibDescriptorsPoolAdd
                0x000000009d010c44      0x130 build/default/production/_ext/732082881/drv_ethmac_lib.o
                0x000000009d010c44                DRV_ETHMAC_LibDescriptorsPoolAdd

.text.SYS_TIME_TimerObjectCreate
                0x000000009d010d74      0x130
 .text.SYS_TIME_TimerObjectCreate
                0x000000009d010d74      0x130 build/default/production/_ext/101884895/sys_time.o

.text.DRV_ETHMAC_LibInit
                0x000000009d010ea4      0x12c
 .text.DRV_ETHMAC_LibInit
                0x000000009d010ea4      0x12c build/default/production/_ext/732082881/drv_ethmac_lib.o
                0x000000009d010ea4                DRV_ETHMAC_LibInit

.text.TCPIP_DHCP_InfoGet
                0x000000009d010fd0      0x128
 .text.TCPIP_DHCP_InfoGet
                0x000000009d010fd0      0x128 build/default/production/_ext/1033058136/dhcp.o
                0x000000009d010fd0                TCPIP_DHCP_InfoGet

.text.fputc     0x000000009d0110f8      0x128
 .text.fputc    0x000000009d0110f8      0x128 y:/program files/microchip/xc32/v3.01/bin/bin/../../lib/gcc/pic32mx/8.3.1/../../../../pic32mx/lib/fpu64\libc.a(_fputc_simple.o)
                0x000000009d0110f8                fputc

.text._DRV_ETHPHY_SetupPhaseDetect
                0x000000009d011220      0x124
 .text._DRV_ETHPHY_SetupPhaseDetect
                0x000000009d011220      0x124 build/default/production/_ext/444070925/drv_ethphy.o

.text.vTaskSwitchContext
                0x000000009d011344      0x124
 .text.vTaskSwitchContext
                0x000000009d011344      0x124 build/default/production/_ext/404212886/FreeRTOS_tasks.o
                0x000000009d011344                vTaskSwitchContext

.text._DHCPProcessReceiveData
                0x000000009d011468      0x120
 .text._DHCPProcessReceiveData
                0x000000009d011468      0x120 build/default/production/_ext/1033058136/dhcp.o

.text           0x000000009d011588      0x120
 .text          0x000000009d011588      0x120 y:/program files/microchip/xc32/v3.01/bin/bin/../../lib/gcc/pic32mx/8.3.1/../../../../pic32mx/lib/fpu64\libpic32.a(strcmp.o)
                0x000000009d011588                strcmp

.text.DRV_ETHMAC_PIC32MACStatisticsGet
                0x000000009d0116a8      0x11c
 .text.DRV_ETHMAC_PIC32MACStatisticsGet
                0x000000009d0116a8      0x11c build/default/production/_ext/732082881/drv_ethmac.o
                0x000000009d0116a8                DRV_ETHMAC_PIC32MACStatisticsGet

.text._DRV_PHY_SMITransferStart
                0x000000009d0117c4      0x11c
 .text._DRV_PHY_SMITransferStart
                0x000000009d0117c4      0x11c build/default/production/_ext/444070925/drv_ethphy.o

.text.TCPIP_Helper_PacketChecksum
                0x000000009d0118e0      0x11c
 .text.TCPIP_Helper_PacketChecksum
                0x000000009d0118e0      0x11c build/default/production/_ext/1033058136/tcpip_helpers.o
                0x000000009d0118e0                TCPIP_Helper_PacketChecksum

.text._MACDeinit
                0x000000009d0119fc      0x118
 .text._MACDeinit
                0x000000009d0119fc      0x118 build/default/production/_ext/732082881/drv_ethmac.o

.rodata         0x000000009d011b14      0x114
 .rodata        0x000000009d011b14      0x114 build/default/production/_ext/732082881/drv_ethmac.o
                0x000000009d011bd0                DRV_ETHMAC_PIC32MACObject

.text._UDPsetPacketInfo
                0x000000009d011c28      0x114
 .text._UDPsetPacketInfo
                0x000000009d011c28      0x114 build/default/production/_ext/1033058136/udp.o

.text._DHCPSetLeaseTimeParams
                0x000000009d011d3c      0x110
 .text._DHCPSetLeaseTimeParams
                0x000000009d011d3c      0x110 build/default/production/_ext/1033058136/dhcp.o

.text._OAHashFindBkt
                0x000000009d011e4c      0x110
 .text._OAHashFindBkt
                0x000000009d011e4c      0x110 build/default/production/_ext/1033058136/oahash.o

.text.TCPIP_UDP_RemoteBind
                0x000000009d011f5c      0x10c
 .text.TCPIP_UDP_RemoteBind
                0x000000009d011f5c      0x10c build/default/production/_ext/1033058136/udp.o
                0x000000009d011f5c                TCPIP_UDP_RemoteBind

.text._flsbuf   0x000000009d012068      0x10c
 .text._flsbuf  0x000000009d012068      0x10c y:/program files/microchip/xc32/v3.01/bin/bin/../../lib/gcc/pic32mx/8.3.1/../../../../pic32mx/lib/fpu64\libc.a(_flsbuf_simple.o)
                0x000000009d012068                _flsbuf

.text._UDPv4AllocateSktTxBuffer
                0x000000009d012174      0x108
 .text._UDPv4AllocateSktTxBuffer
                0x000000009d012174      0x108 build/default/production/_ext/1033058136/udp.o

.text.SYS_Initialize
                0x000000009d01227c      0x108
 .text.SYS_Initialize
                0x000000009d01227c      0x108 build/default/production/_ext/1171490990/initialization.o
                0x000000009d01227c                SYS_Initialize

.text._DRV_ETHPHY_SetupPhaseNegotiate_SubPhase0
                0x000000009d012384      0x104
 .text._DRV_ETHPHY_SetupPhaseNegotiate_SubPhase0
                0x000000009d012384      0x104 build/default/production/_ext/444070925/drv_ethphy.o

.text._DHCPEnable
                0x000000009d012488      0x104
 .text._DHCPEnable
                0x000000009d012488      0x104 build/default/production/_ext/1033058136/dhcp.o

.text._DHCPClientClose
                0x000000009d01258c      0x104
 .text._DHCPClientClose
                0x000000009d01258c      0x104 build/default/production/_ext/1033058136/dhcp.o

.rodata         0x000000009d012690      0x104
 .rodata        0x000000009d012690      0x104 y:/program files/microchip/xc32/v3.01/bin/bin/../../lib/gcc/pic32mx/8.3.1/../../../../pic32mx/lib/fpu64\libc.a(ctype.o)
                0x000000009d012690                _ctype

.text.TCPIP_SNTP_CurrTime
                0x000000009d012794      0x100
 .text.TCPIP_SNTP_CurrTime
                0x000000009d012794      0x100 build/default/production/_ext/1033058136/sntp.o

.text.TCPIP_UDP_Disconnect
                0x000000009d012894      0x100
 .text.TCPIP_UDP_Disconnect
                0x000000009d012894      0x100 build/default/production/_ext/1033058136/udp.o
                0x000000009d012894                TCPIP_UDP_Disconnect

.text.SYS_TIME_AddToList
                0x000000009d012994      0x100
 .text.SYS_TIME_AddToList
                0x000000009d012994      0x100 build/default/production/_ext/101884895/sys_time.o

.text.DRV_ETHMAC_LibMACOpen
                0x000000009d012a94       0xfc
 .text.DRV_ETHMAC_LibMACOpen
                0x000000009d012a94       0xfc build/default/production/_ext/732082881/drv_ethmac_lib.o
                0x000000009d012a94                DRV_ETHMAC_LibMACOpen

.text.DRV_MIIM_Open
                0x000000009d012b90       0xfc
 .text.DRV_MIIM_Open
                0x000000009d012b90       0xfc build/default/production/_ext/438849557/drv_miim.o
                0x000000009d012b90                DRV_MIIM_Open

.text._MacRxPacketAck
                0x000000009d012c8c       0xf8
 .text._MacRxPacketAck
                0x000000009d012c8c       0xf8 build/default/production/_ext/732082881/drv_ethmac.o

.rodata         0x000000009d012d84       0xf8
 .rodata        0x000000009d012d84       0xf8 build/default/production/_ext/444070925/drv_ethphy.o
                0x000000009d012da4                DRV_ETHPHY_OBJECT_BASE_Default

.text.DRV_MIIM_Initialize
                0x000000009d012e7c       0xf4
 .text.DRV_MIIM_Initialize
                0x000000009d012e7c       0xf4 build/default/production/_ext/438849557/drv_miim.o
                0x000000009d012e7c                DRV_MIIM_Initialize

.text._TCPIP_StackSyncFunction
                0x000000009d012f70       0xf4
 .text._TCPIP_StackSyncFunction
                0x000000009d012f70       0xf4 build/default/production/_ext/1033058136/tcpip_manager.o

.text.DRV_ETHMAC_PIC32MACProcess
                0x000000009d000010       0xf0
 .text.DRV_ETHMAC_PIC32MACProcess
                0x000000009d000010       0xf0 build/default/production/_ext/732082881/drv_ethmac.o
                0x000000009d000010                DRV_ETHMAC_PIC32MACProcess

.text._DHCPPacketFilter
                0x000000009d013064       0xec
 .text._DHCPPacketFilter
                0x000000009d013064       0xec build/default/production/_ext/1033058136/dhcp.o

.text._TCPIP_PKT_PacketAlloc
                0x000000009d013150       0xec
 .text._TCPIP_PKT_PacketAlloc
                0x000000009d013150       0xec build/default/production/_ext/1033058136/tcpip_packet.o
                0x000000009d013150                _TCPIP_PKT_PacketAlloc

.text.TCPIP_OAHASH_EntryLookup
                0x000000009d01323c       0xe8
 .text.TCPIP_OAHASH_EntryLookup
                0x000000009d01323c       0xe8 build/default/production/_ext/1033058136/oahash.o
                0x000000009d01323c                TCPIP_OAHASH_EntryLookup

.text._DRV_ETHPHY_NegCompletePhaseAN_Restart
                0x000000009d013324       0xe4
 .text._DRV_ETHPHY_NegCompletePhaseAN_Restart
                0x000000009d013324       0xe4 build/default/production/_ext/444070925/drv_ethphy.o

.text.UART2_Initialize
                0x000000009d013408       0xe4
 .text.UART2_Initialize
                0x000000009d013408       0xe4 build/default/production/_ext/1865657120/plib_uart2.o
                0x000000009d013408                UART2_Initialize

.text.TCPIP_ARP_EntryRemove
                0x000000009d0134ec       0xe0
 .text.TCPIP_ARP_EntryRemove
                0x000000009d0134ec       0xe0 build/default/production/_ext/1033058136/arp.o
                0x000000009d0134ec                TCPIP_ARP_EntryRemove

.text.TCPIP_STACK_BringNetDown
                0x000000009d0135cc       0xe0
 .text.TCPIP_STACK_BringNetDown
                0x000000009d0135cc       0xe0 build/default/production/_ext/1033058136/tcpip_manager.o

.text._DRV_ETHPHY_SetupPhaseNegotiate_SubPhase4
                0x000000009d0136ac       0xdc
 .text._DRV_ETHPHY_SetupPhaseNegotiate_SubPhase4
                0x000000009d0136ac       0xdc build/default/production/_ext/444070925/drv_ethphy.o

.text.TCPIP_DHCP_ConnectionHandler
                0x000000009d013788       0xdc
 .text.TCPIP_DHCP_ConnectionHandler
                0x000000009d013788       0xdc build/default/production/_ext/1033058136/dhcp.o
                0x000000009d013788                TCPIP_DHCP_ConnectionHandler

.text.general_exception
                0x000000009d013864       0xdc
 .text.general_exception
                0x000000009d013864       0xdc y:/program files/microchip/xc32/v3.01/bin/bin/../../lib/gcc/pic32mx/8.3.1/../../../../pic32mx/lib/fpu64\libpic32.a(general-exception.o)
                0x000000009d013864                _general_exception_context

.text._cache_err_exception_context
                0x000000009d013940       0xd8
 .text._cache_err_exception_context
                0x000000009d013940       0xd8 y:/program files/microchip/xc32/v3.01/bin/bin/../../lib/gcc/pic32mx/8.3.1/../../../../pic32mx/lib/fpu64\libpic32.a(cache-err-exception.o)
                0x000000009d013940                _cache_err_exception_context

.text.simple_tlb_refill_context
                0x000000009d013a18       0xd8
 .text.simple_tlb_refill_context
                0x000000009d013a18       0xd8 y:/program files/microchip/xc32/v3.01/bin/bin/../../lib/gcc/pic32mx/8.3.1/../../../../pic32mx/lib/fpu64\libpic32.a(simple-tlb-refill-exception.o)
                0x000000009d013a18                _simple_tlb_refill_exception_context

.text._DRV_ETHMAC_LinkStateNegResult
                0x000000009d013af0       0xd0
 .text._DRV_ETHMAC_LinkStateNegResult
                0x000000009d013af0       0xd0 build/default/production/_ext/732082881/drv_ethmac.o

.text._DHCPCleanup
                0x000000009d013bc0       0xd0
 .text._DHCPCleanup
                0x000000009d013bc0       0xd0 build/default/production/_ext/1033058136/dhcp.o

.text._MacTxPendingPackets
                0x000000009d013c90       0xcc
 .text._MacTxPendingPackets
                0x000000009d013c90       0xcc build/default/production/_ext/732082881/drv_ethmac.o

.text.TCPIP_OAHASH_EntryLookupOrInsert
                0x000000009d013d5c       0xcc
 .text.TCPIP_OAHASH_EntryLookupOrInsert
                0x000000009d013d5c       0xcc build/default/production/_ext/1033058136/oahash.o
                0x000000009d013d5c                TCPIP_OAHASH_EntryLookupOrInsert

.text.TCPIP_STACK_Initialize
                0x000000009d013e28       0xcc
 .text.TCPIP_STACK_Initialize
                0x000000009d013e28       0xcc build/default/production/_ext/1033058136/tcpip_manager.o
                0x000000009d013e28                TCPIP_STACK_Initialize

.text.DRV_ETHPHY_Open
                0x000000009d013ef4       0xc8
 .text.DRV_ETHPHY_Open
                0x000000009d013ef4       0xc8 build/default/production/_ext/444070925/drv_ethphy.o
                0x000000009d013ef4                DRV_ETHPHY_Open

.text._ARPUpdateEntry
                0x000000009d013fbc       0xc8
 .text._ARPUpdateEntry
                0x000000009d013fbc       0xc8 build/default/production/_ext/1033058136/arp.o

.text._DHCPOptionWriteSrvIdent
                0x000000009d014084       0xc8
 .text._DHCPOptionWriteSrvIdent
                0x000000009d014084       0xc8 build/default/production/_ext/1033058136/dhcp.o

.text.DRV_ETHMAC_LibTxAcknowledgeBuffer
                0x000000009d01414c       0xc4
 .text.DRV_ETHMAC_LibTxAcknowledgeBuffer
                0x000000009d01414c       0xc4 build/default/production/_ext/732082881/drv_ethmac_lib.o
                0x000000009d01414c                DRV_ETHMAC_LibTxAcknowledgeBuffer

.text._DRV_ETHPHY_ResetPhaseRead
                0x000000009d014210       0xc4
 .text._DRV_ETHPHY_ResetPhaseRead
                0x000000009d014210       0xc4 build/default/production/_ext/444070925/drv_ethphy.o

.text.TCPIP_IPV4_SelectDestInterface
                0x000000009d0142d4       0xc4
 .text.TCPIP_IPV4_SelectDestInterface
                0x000000009d0142d4       0xc4 build/default/production/_ext/1033058136/ipv4.o
                0x000000009d0142d4                TCPIP_IPV4_SelectDestInterface

.text.TCPIP_UDP_SocketInfoGet
                0x000000009d014398       0xc4
 .text.TCPIP_UDP_SocketInfoGet
                0x000000009d014398       0xc4 build/default/production/_ext/1033058136/udp.o
                0x000000009d014398                TCPIP_UDP_SocketInfoGet

.text.SYS_CMDIO_ADD
                0x000000009d01445c       0xc4
 .text.SYS_CMDIO_ADD
                0x000000009d01445c       0xc4 build/default/production/_ext/1376093119/sys_command.o
                0x000000009d01445c                SYS_CMDIO_ADD

.text.fround    0x000000009d014520       0xc4
 .text.fround   0x000000009d014520       0xc4 y:/program files/microchip/xc32/v3.01/bin/bin/../../lib/gcc/pic32mx/8.3.1/../../../../pic32mx/lib/fpu64\libc.a(doprnt.o)

.text.DRV_ETHPHY_VendorSMIReadResultGet
                0x000000009d0145e4       0xc0
 .text.DRV_ETHPHY_VendorSMIReadResultGet
                0x000000009d0145e4       0xc0 build/default/production/_ext/444070925/drv_ethphy.o
                0x000000009d0145e4                DRV_ETHPHY_VendorSMIReadResultGet

.text.Ipv4FilterSetActive
                0x000000009d0146a4       0xc0
 .text.Ipv4FilterSetActive
                0x000000009d0146a4       0xc0 build/default/production/_ext/1033058136/ipv4.o
                0x000000009d0146a4                Ipv4FilterSetActive

.text._TCPIPStackModuleRxPurge
                0x000000009d014764       0xc0
 .text._TCPIPStackModuleRxPurge
                0x000000009d014764       0xc0 build/default/production/_ext/1033058136/tcpip_manager.o
                0x000000009d014764                _TCPIPStackModuleRxPurge

.text.UART2_Read
                0x000000009d014824       0xc0
 .text.UART2_Read
                0x000000009d014824       0xc0 build/default/production/_ext/1865657120/plib_uart2.o
                0x000000009d014824                UART2_Read

.text.SendCommandPrint
                0x000000009d0148e4       0xc0
 .text.SendCommandPrint
                0x000000009d0148e4       0xc0 build/default/production/_ext/1376093119/sys_command.o

.text.DRV_ETHMAC_PIC32MACEventAcknowledge
                0x000000009d0149a4       0xbc
 .text.DRV_ETHMAC_PIC32MACEventAcknowledge
                0x000000009d0149a4       0xbc build/default/production/_ext/732082881/drv_ethmac.o
                0x000000009d0149a4                DRV_ETHMAC_PIC32MACEventAcknowledge

.text.DRV_ETHPHY_VendorSMIReadStart
                0x000000009d014a60       0xbc
 .text.DRV_ETHPHY_VendorSMIReadStart
                0x000000009d014a60       0xbc build/default/production/_ext/444070925/drv_ethphy.o
                0x000000009d014a60                DRV_ETHPHY_VendorSMIReadStart

.text.DRV_MIIM_OperationAbort
                0x000000009d014b1c       0xbc
 .text.DRV_MIIM_OperationAbort
                0x000000009d014b1c       0xbc build/default/production/_ext/438849557/drv_miim.o
                0x000000009d014b1c                DRV_MIIM_OperationAbort

.text._DHCPOptionWriteIPRequest
                0x000000009d014bd8       0xbc
 .text._DHCPOptionWriteIPRequest
                0x000000009d014bd8       0xbc build/default/production/_ext/1033058136/dhcp.o

.text.UART2_FAULT_InterruptHandler
                0x000000009d014c94       0xbc
 .text.UART2_FAULT_InterruptHandler
                0x000000009d014c94       0xbc build/default/production/_ext/1865657120/plib_uart2.o
                0x000000009d014c94                UART2_FAULT_InterruptHandler

.tlb.__pic32_tlb_init_ebi_sqi
                0x000000009d014d50       0xbc
 .tlb.__pic32_tlb_init_ebi_sqi
                0x000000009d014d50       0xbc y:/program files/microchip/xc32/v3.01/bin/bin/../../lib/gcc/pic32mx/8.3.1/../../../../pic32mx/lib/fpu64\libpic32.a(pic32_init_tlb_ebi_sqi.o)
                0x000000009d014d50                __pic32_tlb_init_ebi_sqi

.text._EthTxSchedBuffer
                0x000000009d014e0c       0xb8
 .text._EthTxSchedBuffer
                0x000000009d014e0c       0xb8 build/default/production/_ext/732082881/drv_ethmac_lib.o

.text.DRV_ETHPHY_VendorSMIWriteStart
                0x000000009d014ec4       0xb8
 .text.DRV_ETHPHY_VendorSMIWriteStart
                0x000000009d014ec4       0xb8 build/default/production/_ext/444070925/drv_ethphy.o
                0x000000009d014ec4                DRV_ETHPHY_VendorSMIWriteStart

.text._DRV_ETHPHY_NegCompletePhaseRead2
                0x000000009d014f7c       0xb8
 .text._DRV_ETHPHY_NegCompletePhaseRead2
                0x000000009d014f7c       0xb8 build/default/production/_ext/444070925/drv_ethphy.o

.text._ARPNotifyClients
                0x000000009d015034       0xb8
 .text._ARPNotifyClients
                0x000000009d015034       0xb8 build/default/production/_ext/1033058136/arp.o

.text._DHCPOptionProcessNtpServer
                0x000000009d0150ec       0xb8
 .text._DHCPOptionProcessNtpServer
                0x000000009d0150ec       0xb8 build/default/production/_ext/1033058136/dhcp.o

.text._TCPIPStackInsertRxPacket
                0x000000009d0151a4       0xb8
 .text._TCPIPStackInsertRxPacket
                0x000000009d0151a4       0xb8 build/default/production/_ext/1033058136/tcpip_manager.o
                0x000000009d0151a4                _TCPIPStackInsertRxPacket

.text.TCPIP_UDP_ArrayPut
                0x000000009d01525c       0xb8
 .text.TCPIP_UDP_ArrayPut
                0x000000009d01525c       0xb8 build/default/production/_ext/1033058136/udp.o
                0x000000009d01525c                TCPIP_UDP_ArrayPut

.text._DRV_ETHMAC_LinkStateWaitLinkUp
                0x000000009d015314       0xb4
 .text._DRV_ETHMAC_LinkStateWaitLinkUp
                0x000000009d015314       0xb4 build/default/production/_ext/732082881/drv_ethmac.o

.text.TCPIP_ARP_Probe
                0x000000009d0153c8       0xb4
 .text.TCPIP_ARP_Probe
                0x000000009d0153c8       0xb4 build/default/production/_ext/1033058136/arp.o
                0x000000009d0153c8                TCPIP_ARP_Probe

.text.TCPIP_Notification_CbackRemove
                0x000000009d01547c       0xb4
 .text.TCPIP_Notification_CbackRemove
                0x000000009d01547c       0xb4 build/default/production/_ext/1033058136/tcpip_notify.o
                0x000000009d01547c                TCPIP_Notification_CbackRemove

.text.SYS_TIME_TimerStart
                0x000000009d015530       0xb4
 .text.SYS_TIME_TimerStart
                0x000000009d015530       0xb4 build/default/production/_ext/101884895/sys_time.o
                0x000000009d015530                SYS_TIME_TimerStart

.text.DRV_ETHPHY_Initialize
                0x000000009d0155e4       0xb0
 .text.DRV_ETHPHY_Initialize
                0x000000009d0155e4       0xb0 build/default/production/_ext/444070925/drv_ethphy.o
                0x000000009d0155e4                DRV_ETHPHY_Initialize

.text._DRV_ETHPHY_NegResultPhase_BMSTAT
                0x000000009d015694       0xb0
 .text._DRV_ETHPHY_NegResultPhase_BMSTAT
                0x000000009d015694       0xb0 build/default/production/_ext/444070925/drv_ethphy.o

.text.TCPIP_UDP_BcastIPV4AddressSet
                0x000000009d015744       0xb0
 .text.TCPIP_UDP_BcastIPV4AddressSet
                0x000000009d015744       0xb0 build/default/production/_ext/1033058136/udp.o
                0x000000009d015744                TCPIP_UDP_BcastIPV4AddressSet

.text.SYS_CONSOLE_Print
                0x000000009d0157f4       0xb0
 .text.SYS_CONSOLE_Print
                0x000000009d0157f4       0xb0 build/default/production/_ext/1832805299/sys_console.o
                0x000000009d0157f4                SYS_CONSOLE_Print

.text._sbrk     0x000000009d0158a4       0xb0
 .text._sbrk    0x000000009d0158a4       0xb0 y:/program files/microchip/xc32/v3.01/bin/bin/../../lib/gcc/pic32mx/8.3.1/../../../../pic32mx/lib/fpu64\libpic32.a(sbrk.o)
                0x000000009d0158a4                _sbrk

.text.TCPIP_IPV4_SelectSourceInterface
                0x000000009d015954       0xac
 .text.TCPIP_IPV4_SelectSourceInterface
                0x000000009d015954       0xac build/default/production/_ext/1033058136/ipv4.o
                0x000000009d015954                TCPIP_IPV4_SelectSourceInterface

.text.TCPIP_Helper_FormatNetBIOSName
                0x000000009d015a00       0xac
 .text.TCPIP_Helper_FormatNetBIOSName
                0x000000009d015a00       0xac build/default/production/_ext/1033058136/tcpip_helpers.o
                0x000000009d015a00                TCPIP_Helper_FormatNetBIOSName

.text.GPIO_Initialize
                0x000000009d015aac       0xac
 .text.GPIO_Initialize
                0x000000009d015aac       0xac build/default/production/_ext/1865254177/plib_gpio.o
                0x000000009d015aac                GPIO_Initialize

.text.SYS_TIME_CallbackRegisterMS
                0x000000009d015b58       0xac
 .text.SYS_TIME_CallbackRegisterMS
                0x000000009d015b58       0xac build/default/production/_ext/101884895/sys_time.o
                0x000000009d015b58                SYS_TIME_CallbackRegisterMS

.text.DRV_ETHMAC_PIC32MACRegisterStatisticsGet
                0x000000009d015c04       0xa8
 .text.DRV_ETHMAC_PIC32MACRegisterStatisticsGet
                0x000000009d015c04       0xa8 build/default/production/_ext/732082881/drv_ethmac.o
                0x000000009d015c04                DRV_ETHMAC_PIC32MACRegisterStatisticsGet

.text._EthTxSchedList
                0x000000009d015cac       0xa8
 .text._EthTxSchedList
                0x000000009d015cac       0xa8 build/default/production/_ext/732082881/drv_ethmac_lib.o

.text._DRV_ETHPHY_SetupPhaseIdle
                0x000000009d015d54       0xa8
 .text._DRV_ETHPHY_SetupPhaseIdle
                0x000000009d015d54       0xa8 build/default/production/_ext/444070925/drv_ethphy.o

.text.TCPIP_ARP_Deinitialize
                0x000000009d015dfc       0xa8
 .text.TCPIP_ARP_Deinitialize
                0x000000009d015dfc       0xa8 build/default/production/_ext/1033058136/arp.o
                0x000000009d015dfc                TCPIP_ARP_Deinitialize

.text.SYS_CONSOLE_Status
                0x000000009d015ea4       0xa8
 .text.SYS_CONSOLE_Status
                0x000000009d015ea4       0xa8 build/default/production/_ext/1832805299/sys_console.o
                0x000000009d015ea4                SYS_CONSOLE_Status

.text           0x000000009d015f4c       0xa8
 .text          0x000000009d015f4c       0xa8 y:/program files/microchip/xc32/v3.01/bin/bin/../../lib/gcc/pic32mx/8.3.1/../../../../pic32mx/lib/fpu64\libpic32.a(memset.o)
                0x000000009d015f4c                memset

.text.DRV_ETHMAC_LibDescriptorsPoolCleanUp
                0x000000009d015ff4       0xa4
 .text.DRV_ETHMAC_LibDescriptorsPoolCleanUp
                0x000000009d015ff4       0xa4 build/default/production/_ext/732082881/drv_ethmac_lib.o
                0x000000009d015ff4                DRV_ETHMAC_LibDescriptorsPoolCleanUp

.text._DRV_MIIM_GetClientAndLock
                0x000000009d016098       0xa4
 .text._DRV_MIIM_GetClientAndLock
                0x000000009d016098       0xa4 build/default/production/_ext/438849557/drv_miim.o

.text.TCPIP_STACK_StringToMACId
                0x000000009d01613c       0xa4
 .text.TCPIP_STACK_StringToMACId
                0x000000009d01613c       0xa4 build/default/production/_ext/1033058136/tcpip_manager.o
                0x000000009d01613c                TCPIP_STACK_StringToMACId

.text.TCPIP_PKT_PacketMACFormat
                0x000000009d0161e0       0xa4
 .text.TCPIP_PKT_PacketMACFormat
                0x000000009d0161e0       0xa4 build/default/production/_ext/1033058136/tcpip_packet.o
                0x000000009d0161e0                TCPIP_PKT_PacketMACFormat

.text.TCPIP_PKT_DataSegmentGet
                0x000000009d016284       0xa4
 .text.TCPIP_PKT_DataSegmentGet
                0x000000009d016284       0xa4 build/default/production/_ext/1033058136/tcpip_packet.o
                0x000000009d016284                TCPIP_PKT_DataSegmentGet

.text.TCPIP_ARP_EntryGet
                0x000000009d016328       0xa0
 .text.TCPIP_ARP_EntryGet
                0x000000009d016328       0xa0 build/default/production/_ext/1033058136/arp.o
                0x000000009d016328                TCPIP_ARP_EntryGet

.text._TCPIP_HEAP_MaxSize
                0x000000009d0163c8       0xa0
 .text._TCPIP_HEAP_MaxSize
                0x000000009d0163c8       0xa0 build/default/production/_ext/1033058136/tcpip_heap_internal.o

.text.TCPIP_Helper_IPAddressToString
                0x000000009d016468       0xa0
 .text.TCPIP_Helper_IPAddressToString
                0x000000009d016468       0xa0 build/default/production/_ext/1033058136/tcpip_helpers.o
                0x000000009d016468                TCPIP_Helper_IPAddressToString

.text._TCPIPStackModuleSignalRequest
                0x000000009d016508       0xa0
 .text._TCPIPStackModuleSignalRequest
                0x000000009d016508       0xa0 build/default/production/_ext/1033058136/tcpip_manager.o
                0x000000009d016508                _TCPIPStackModuleSignalRequest

.text.SYS_TIME_RemoveFromList
                0x000000009d0165a8       0xa0
 .text.SYS_TIME_RemoveFromList
                0x000000009d0165a8       0xa0 build/default/production/_ext/101884895/sys_time.o

.text.strtok    0x000000009d016648       0xa0
 .text.strtok   0x000000009d016648       0xa0 y:/program files/microchip/xc32/v3.01/bin/bin/../../lib/gcc/pic32mx/8.3.1/../../../../pic32mx/lib/fpu64\libc.a(strtok.o)
                0x000000009d016648                strtok

.rodata         0x000000009d0166e8      0x140
 .rodata        0x000000009d0166e8       0xa0 y:/program files/microchip/xc32/v3.01/bin/bin/../../lib/gcc/pic32mx/8.3.1/../../../../pic32mx/lib/fpu64\libc.a(doprnt_cdnopsuxX.eo)
 .rodata        0x000000009d016788       0xa0 y:/program files/microchip/xc32/v3.01/bin/bin/../../lib/gcc/pic32mx/8.3.1/../../../../pic32mx/lib/fpu64\libc.a(doprnt.o)

.text._DRV_PHY_SMITransferWaitComplete
                0x000000009d016828       0x9c
 .text._DRV_PHY_SMITransferWaitComplete
                0x000000009d016828       0x9c build/default/production/_ext/444070925/drv_ethphy.o

.text.TCPIP_Helper_SingleListNodeRemove
                0x000000009d0168c4       0x9c
 .text.TCPIP_Helper_SingleListNodeRemove
                0x000000009d0168c4       0x9c build/default/production/_ext/1033058136/tcpip_helpers.o
                0x000000009d0168c4                TCPIP_Helper_SingleListNodeRemove

.text.TCPIP_UDP_PutIsReady
                0x000000009d016960       0x9c
 .text.TCPIP_UDP_PutIsReady
                0x000000009d016960       0x9c build/default/production/_ext/1033058136/udp.o
                0x000000009d016960                TCPIP_UDP_PutIsReady

.text.TCPIP_UDP_DestinationIPAddressSet
                0x000000009d0169fc       0x9c
 .text.TCPIP_UDP_DestinationIPAddressSet
                0x000000009d0169fc       0x9c build/default/production/_ext/1033058136/udp.o
                0x000000009d0169fc                TCPIP_UDP_DestinationIPAddressSet

.text._DRV_ETHMAC_LinkStateGetLink
                0x000000009d016a98       0x98
 .text._DRV_ETHMAC_LinkStateGetLink
                0x000000009d016a98       0x98 build/default/production/_ext/732082881/drv_ethmac.o

.text.DRV_ETHMAC_LibClose
                0x000000009d016b30       0x98
 .text.DRV_ETHMAC_LibClose
                0x000000009d016b30       0x98 build/default/production/_ext/732082881/drv_ethmac_lib.o
                0x000000009d016b30                DRV_ETHMAC_LibClose

.text._DRV_ETHPHY_LinkStatPhaseRead
                0x000000009d016bc8       0x98
 .text._DRV_ETHPHY_LinkStatPhaseRead
                0x000000009d016bc8       0x98 build/default/production/_ext/444070925/drv_ethphy.o

.text.IPv4RegisterFilter
                0x000000009d016c60       0x98
 .text.IPv4RegisterFilter
                0x000000009d016c60       0x98 build/default/production/_ext/1033058136/ipv4.o
                0x000000009d016c60                IPv4RegisterFilter

.text.TCPIP_Helper_ProtectedSingleListNodeRemove
                0x000000009d016cf8       0x98
 .text.TCPIP_Helper_ProtectedSingleListNodeRemove
                0x000000009d016cf8       0x98 build/default/production/_ext/1033058136/tcpip_helpers.o
                0x000000009d016cf8                TCPIP_Helper_ProtectedSingleListNodeRemove

.text.TCPIP_Helper_ProtectedSingleListRemoveAll
                0x000000009d016d90       0x98
 .text.TCPIP_Helper_ProtectedSingleListRemoveAll
                0x000000009d016d90       0x98 build/default/production/_ext/1033058136/tcpip_helpers.o
                0x000000009d016d90                TCPIP_Helper_ProtectedSingleListRemoveAll

.text           0x000000009d016e28       0x98
 .text          0x000000009d016e28       0x98 y:/program files/microchip/xc32/v3.01/bin/bin/../../lib/gcc/pic32mx/8.3.1/../../../../pic32mx/lib/fpu64\libpic32.a(memcmp.o)
                0x000000009d016e28                memcmp

.text._frexpx   0x000000009d016ec0       0x98
 .text._frexpx  0x000000009d016ec0       0x98 y:/program files/microchip/xc32/v3.01/bin/bin/../../lib/gcc/pic32mx/8.3.1/../../../../pic32mx/lib/fpu64\libmfd.a(s_frexp.o)
                0x000000009d016ec0                _frexpx

.text._DRV_ETHMAC_LinkStateNegComplete
                0x000000009d016f58       0x94
 .text._DRV_ETHMAC_LinkStateNegComplete
                0x000000009d016f58       0x94 build/default/production/_ext/732082881/drv_ethmac.o

.text.TCPIP_Helper_ProtectedSingleListTailAdd
                0x000000009d016fec       0x94
 .text.TCPIP_Helper_ProtectedSingleListTailAdd
                0x000000009d016fec       0x94 build/default/production/_ext/1033058136/tcpip_helpers.o
                0x000000009d016fec                TCPIP_Helper_ProtectedSingleListTailAdd

.text._TCPIPStackIpAddFromAnyNet
                0x000000009d017080       0x94
 .text._TCPIPStackIpAddFromAnyNet
                0x000000009d017080       0x94 build/default/production/_ext/1033058136/tcpip_manager.o
                0x000000009d017080                _TCPIPStackIpAddFromAnyNet

.text._UDPSetNewRxPacket
                0x000000009d017114       0x94
 .text._UDPSetNewRxPacket
                0x000000009d017114       0x94 build/default/production/_ext/1033058136/udp.o

.text.CLK_Initialize
                0x000000009d0171a8       0x94
 .text.CLK_Initialize
                0x000000009d0171a8       0x94 build/default/production/_ext/60165520/plib_clk.o
                0x000000009d0171a8                CLK_Initialize

.text._DRV_MIIM_GetObjectAndLock
                0x000000009d01723c       0x90
 .text._DRV_MIIM_GetObjectAndLock
                0x000000009d01723c       0x90 build/default/production/_ext/438849557/drv_miim.o

.text.Helper_SingleListNodeRemove
                0x000000009d0172cc       0x90
 .text.Helper_SingleListNodeRemove
                0x000000009d0172cc       0x90 build/default/production/_ext/438849557/drv_miim.o
                0x000000009d0172cc                Helper_SingleListNodeRemove

.text._DRV_MIIM_ReleaseOpDcpt
                0x000000009d01735c       0x90
 .text._DRV_MIIM_ReleaseOpDcpt
                0x000000009d01735c       0x90 build/default/production/_ext/438849557/drv_miim.o

.text._DHCPNotifyClients
                0x000000009d0173ec       0x90
 .text._DHCPNotifyClients
                0x000000009d0173ec       0x90 build/default/production/_ext/1033058136/dhcp.o

.text.TCPIP_Helper_ProtectedSingleListHeadRemove
                0x000000009d01747c       0x90
 .text.TCPIP_Helper_ProtectedSingleListHeadRemove
                0x000000009d01747c       0x90 build/default/production/_ext/1033058136/tcpip_helpers.o
                0x000000009d01747c                TCPIP_Helper_ProtectedSingleListHeadRemove

.text.TCPIP_UDP_TxOffsetSet
                0x000000009d01750c       0x90
 .text.TCPIP_UDP_TxOffsetSet
                0x000000009d01750c       0x90 build/default/production/_ext/1033058136/udp.o
                0x000000009d01750c                TCPIP_UDP_TxOffsetSet

.text.SYS_TIME_TimerAdd
                0x000000009d01759c       0x90
 .text.SYS_TIME_TimerAdd
                0x000000009d01759c       0x90 build/default/production/_ext/101884895/sys_time.o

.text._DRV_ETHPHY_ResetPhaseWrite
                0x000000009d01762c       0x8c
 .text._DRV_ETHPHY_ResetPhaseWrite
                0x000000009d01762c       0x8c build/default/production/_ext/444070925/drv_ethphy.o

.text._TCPIP_PKT_PacketAcknowledge
                0x000000009d0176b8       0x8c
 .text._TCPIP_PKT_PacketAcknowledge
                0x000000009d0176b8       0x8c build/default/production/_ext/1033058136/tcpip_packet.o
                0x000000009d0176b8                _TCPIP_PKT_PacketAcknowledge

.text.TCPIP_SNTP_ConnectionParamSet
                0x000000009d017744       0x8c
 .text.TCPIP_SNTP_ConnectionParamSet
                0x000000009d017744       0x8c build/default/production/_ext/1033058136/sntp.o
                0x000000009d017744                TCPIP_SNTP_ConnectionParamSet

.text.SYS_TIME_GetTimerObject
                0x000000009d0177d0       0x8c
 .text.SYS_TIME_GetTimerObject
                0x000000009d0177d0       0x8c build/default/production/_ext/101884895/sys_time.o

.text.main      0x000000009d01785c       0x8c
 .text.main     0x000000009d01785c       0x8c build/default/production/_ext/1360937237/main.o
                0x000000009d01785c                main

.text._TCPIP_PKT_PacketFree
                0x000000009d0178e8       0x88
 .text._TCPIP_PKT_PacketFree
                0x000000009d0178e8       0x88 build/default/production/_ext/1033058136/tcpip_packet.o
                0x000000009d0178e8                _TCPIP_PKT_PacketFree

.text.TCPIP_UDP_Close
                0x000000009d017970       0x88
 .text.TCPIP_UDP_Close
                0x000000009d017970       0x88 build/default/production/_ext/1033058136/udp.o
                0x000000009d017970                TCPIP_UDP_Close

.text.write     0x000000009d0179f8       0x88
 .text.write    0x000000009d0179f8       0x88 y:/program files/microchip/xc32/v3.01/bin/bin/../../lib/gcc/pic32mx/8.3.1/../../../../pic32mx/lib/fpu64\libpic32.a(write.o)
                0x000000009d0179f8                write

.text.DRV_MIIM_RegisterCallback
                0x000000009d017a80       0x84
 .text.DRV_MIIM_RegisterCallback
                0x000000009d017a80       0x84 build/default/production/_ext/438849557/drv_miim.o
                0x000000009d017a80                DRV_MIIM_RegisterCallback

.text.TCPIP_IPV4_Cleanup
                0x000000009d017b04       0x84
 .text.TCPIP_IPV4_Cleanup
                0x000000009d017b04       0x84 build/default/production/_ext/1033058136/ipv4.o

.text._UDPAllocateEphemeralPort
                0x000000009d017b88       0x84
 .text._UDPAllocateEphemeralPort
                0x000000009d017b88       0x84 build/default/production/_ext/1033058136/udp.o

.text.TCPIP_UDP_SourceIPAddressSet
                0x000000009d017c0c       0x84
 .text.TCPIP_UDP_SourceIPAddressSet
                0x000000009d017c0c       0x84 build/default/production/_ext/1033058136/udp.o
                0x000000009d017c0c                TCPIP_UDP_SourceIPAddressSet

.text.SYS_CONSOLE_Initialize
                0x000000009d017c90       0x84
 .text.SYS_CONSOLE_Initialize
                0x000000009d017c90       0x84 build/default/production/_ext/1832805299/sys_console.o
                0x000000009d017c90                SYS_CONSOLE_Initialize

.text           0x000000009d017d14       0x84
 .text          0x000000009d017d14       0x84 y:/program files/microchip/xc32/v3.01/bin/bin/../../lib/gcc/pic32mx/8.3.1/../../../../pic32mx/lib/fpu64\libpic32.a(pic32_data_init.o)
                0x000000009d017d14                __pic32_data_init

.text._DRV_ETHPHY_NegCompletePhaseAN_Complete
                0x000000009d017d98       0x80
 .text._DRV_ETHPHY_NegCompletePhaseAN_Complete
                0x000000009d017d98       0x80 build/default/production/_ext/444070925/drv_ethphy.o

.text.hexatob   0x000000009d017e18       0x80
 .text.hexatob  0x000000009d017e18       0x80 build/default/production/_ext/1033058136/helpers.o
                0x000000009d017e18                hexatob

.text.TCPIP_Helper_StringToPowerMode
                0x000000009d017e98       0x80
 .text.TCPIP_Helper_StringToPowerMode
                0x000000009d017e98       0x80 build/default/production/_ext/1033058136/tcpip_helpers.o
                0x000000009d017e98                TCPIP_Helper_StringToPowerMode

.text.TCPIP_Helper_ProtectedSingleListDeinitialize
                0x000000009d017f18       0x80
 .text.TCPIP_Helper_ProtectedSingleListDeinitialize
                0x000000009d017f18       0x80 build/default/production/_ext/1033058136/tcpip_helpers.o
                0x000000009d017f18                TCPIP_Helper_ProtectedSingleListDeinitialize

.text._TCPIP_SelectDefaultNet
                0x000000009d017f98       0x80
 .text._TCPIP_SelectDefaultNet
                0x000000009d017f98       0x80 build/default/production/_ext/1033058136/tcpip_manager.o

.text.TCPIP_STACK_NetHandleGet
                0x000000009d018018       0x80
 .text.TCPIP_STACK_NetHandleGet
                0x000000009d018018       0x80 build/default/production/_ext/1033058136/tcpip_manager.o
                0x000000009d018018                TCPIP_STACK_NetHandleGet

.text.TCPIP_STACK_AddressServiceEvent
                0x000000009d018098       0x80
 .text.TCPIP_STACK_AddressServiceEvent
                0x000000009d018098       0x80 build/default/production/_ext/1033058136/tcpip_manager.o
                0x000000009d018098                TCPIP_STACK_AddressServiceEvent

.text.NVM_StartOperationAtAddress
                0x000000009d018118       0x80
 .text.NVM_StartOperationAtAddress
                0x000000009d018118       0x80 build/default/production/_ext/60176403/plib_nvm.o

.rodata         0x000000009d018198       0xfc
 .rodata        0x000000009d018198       0x80 build/default/production/_ext/1376093119/sys_command.o
                0x000000009d0181bc                sysConsoleApi
 .rodata        0x000000009d018218       0x7c build/default/production/_ext/1033058136/dhcp.o

.text._TCPIP_MacEventCB
                0x000000009d018294       0x7c
 .text._TCPIP_MacEventCB
                0x000000009d018294       0x7c build/default/production/_ext/1033058136/tcpip_manager.o

.text._TCPIPStackAnyNetLinked
                0x000000009d018310       0x7c
 .text._TCPIPStackAnyNetLinked
                0x000000009d018310       0x7c build/default/production/_ext/1033058136/tcpip_manager.o
                0x000000009d018310                _TCPIPStackAnyNetLinked

.text._TCPIPStackModuleRxInsert
                0x000000009d01838c       0x7c
 .text._TCPIPStackModuleRxInsert
                0x000000009d01838c       0x7c build/default/production/_ext/1033058136/tcpip_manager.o
                0x000000009d01838c                _TCPIPStackModuleRxInsert

.text.TCPIP_Notification_Add
                0x000000009d018408       0x7c
 .text.TCPIP_Notification_Add
                0x000000009d018408       0x7c build/default/production/_ext/1033058136/tcpip_notify.o
                0x000000009d018408                TCPIP_Notification_Add

.text.TCPIP_SNTP_TimeStampStatus
                0x000000009d018484       0x7c
 .text.TCPIP_SNTP_TimeStampStatus
                0x000000009d018484       0x7c build/default/production/_ext/1033058136/sntp.o
                0x000000009d018484                TCPIP_SNTP_TimeStampStatus

.text.TCPIP_UDP_RxOffsetSet
                0x000000009d018500       0x7c
 .text.TCPIP_UDP_RxOffsetSet
                0x000000009d018500       0x7c build/default/production/_ext/1033058136/udp.o
                0x000000009d018500                TCPIP_UDP_RxOffsetSet

.text.SYS_TIME_TimerDestroy
                0x000000009d01857c       0x7c
 .text.SYS_TIME_TimerDestroy
                0x000000009d01857c       0x7c build/default/production/_ext/101884895/sys_time.o
                0x000000009d01857c                SYS_TIME_TimerDestroy

.text._EnetPoolFreeDcptList
                0x000000009d0185f8       0x78
 .text._EnetPoolFreeDcptList
                0x000000009d0185f8       0x78 build/default/production/_ext/732082881/drv_ethmac_lib.o

.rodata.str1.4  0x000000009d018670       0x78
 .rodata.str1.4
                0x000000009d018670       0x78 build/default/production/_ext/1033058136/ipv4.o

.text._DHCPOptionProcessRouter
                0x000000009d0186e8       0x78
 .text._DHCPOptionProcessRouter
                0x000000009d0186e8       0x78 build/default/production/_ext/1033058136/dhcp.o

.text.TCPIP_SNTP_TimeGet
                0x000000009d018760       0x78
 .text.TCPIP_SNTP_TimeGet
                0x000000009d018760       0x78 build/default/production/_ext/1033058136/sntp.o
                0x000000009d018760                TCPIP_SNTP_TimeGet

.text._keyEndProcess
                0x000000009d0187d8       0x78
 .text._keyEndProcess
                0x000000009d0187d8       0x78 build/default/production/_ext/1376093119/sys_command.o

.text._keyHomeProcess
                0x000000009d018850       0x78
 .text._keyHomeProcess
                0x000000009d018850       0x78 build/default/production/_ext/1376093119/sys_command.o

.text.SYS_TIME_Counter64Get
                0x000000009d0188c8       0x78
 .text.SYS_TIME_Counter64Get
                0x000000009d0188c8       0x78 build/default/production/_ext/101884895/sys_time.o
                0x000000009d0188c8                SYS_TIME_Counter64Get

.text.rand      0x000000009d018940       0x78
 .text.rand     0x000000009d018940       0x78 y:/program files/microchip/xc32/v3.01/bin/bin/../../lib/gcc/pic32mx/8.3.1/../../../../pic32mx/lib/fpu64\libc.a(rand.o)
                0x000000009d018940                rand

.text.DRV_ETHMAC_PIC32MACConfigGet
                0x000000009d0189b8       0x74
 .text.DRV_ETHMAC_PIC32MACConfigGet
                0x000000009d0189b8       0x74 build/default/production/_ext/732082881/drv_ethmac.o
                0x000000009d0189b8                DRV_ETHMAC_PIC32MACConfigGet

.text._DRV_ETHPHY_SetupPhaseNegotiate_SubPhase2
                0x000000009d018a2c       0x74
 .text._DRV_ETHPHY_SetupPhaseNegotiate_SubPhase2
                0x000000009d018a2c       0x74 build/default/production/_ext/444070925/drv_ethphy.o

.text.DRV_MIIM_DeregisterCallback
                0x000000009d018aa0       0x74
 .text.DRV_MIIM_DeregisterCallback
                0x000000009d018aa0       0x74 build/default/production/_ext/438849557/drv_miim.o
                0x000000009d018aa0                DRV_MIIM_DeregisterCallback

.text.DRV_MIIM_Deinitialize
                0x000000009d018b14       0x74
 .text.DRV_MIIM_Deinitialize
                0x000000009d018b14       0x74 build/default/production/_ext/438849557/drv_miim.o
                0x000000009d018b14                DRV_MIIM_Deinitialize

.text._TCPIP_HEAP_Delete
                0x000000009d018b88       0x74
 .text._TCPIP_HEAP_Delete
                0x000000009d018b88       0x74 build/default/production/_ext/1033058136/tcpip_heap_internal.o

.text._DHCPOptionProcessSubNet
                0x000000009d018bfc       0x74
 .text._DHCPOptionProcessSubNet
                0x000000009d018bfc       0x74 build/default/production/_ext/1033058136/dhcp.o

.text._TCPIPStackSignalHandlerRegister
                0x000000009d018c70       0x74
 .text._TCPIPStackSignalHandlerRegister
                0x000000009d018c70       0x74 build/default/production/_ext/1033058136/tcpip_manager.o
                0x000000009d018c70                _TCPIPStackSignalHandlerRegister

.text.RTCC_Initialize
                0x000000009d018ce4       0x74
 .text.RTCC_Initialize
                0x000000009d018ce4       0x74 build/default/production/_ext/1865585524/plib_rtcc.o
                0x000000009d018ce4                RTCC_Initialize

.text.SYS_TIME_UpdateTimerList
                0x000000009d018d58       0x74
 .text.SYS_TIME_UpdateTimerList
                0x000000009d018d58       0x74 build/default/production/_ext/101884895/sys_time.o

.text._MacRxFreeCallback
                0x000000009d000110       0x70
 .text._MacRxFreeCallback
                0x000000009d000110       0x70 build/default/production/_ext/732082881/drv_ethmac.o

.text._DRV_ETHPHY_SetupPhaseNegotiate_SubPhase7
                0x000000009d000190       0x70
 .text._DRV_ETHPHY_SetupPhaseNegotiate_SubPhase7
                0x000000009d000190       0x70 build/default/production/_ext/444070925/drv_ethphy.o

.text._DRV_ETHPHY_SetupPhaseNegotiate_SubPhase1
                0x000000009d018dcc       0x70
 .text._DRV_ETHPHY_SetupPhaseNegotiate_SubPhase1
                0x000000009d018dcc       0x70 build/default/production/_ext/444070925/drv_ethphy.o

.text._DRV_ETHPHY_SetupPhaseNegotiate_SubPhase3
                0x000000009d018e3c       0x70
 .text._DRV_ETHPHY_SetupPhaseNegotiate_SubPhase3
                0x000000009d018e3c       0x70 build/default/production/_ext/444070925/drv_ethphy.o

.text._DRV_ETHPHY_SetupPhaseNegotiate_SubPhase6
                0x000000009d018eac       0x70
 .text._DRV_ETHPHY_SetupPhaseNegotiate_SubPhase6
                0x000000009d018eac       0x70 build/default/production/_ext/444070925/drv_ethphy.o

.text._DRV_ETHPHY_NegRestartPhaseRead
                0x000000009d018f1c       0x70
 .text._DRV_ETHPHY_NegRestartPhaseRead
                0x000000009d018f1c       0x70 build/default/production/_ext/444070925/drv_ethphy.o

.text.TCPIP_ICMP_Initialize
                0x000000009d018f8c       0x70
 .text.TCPIP_ICMP_Initialize
                0x000000009d018f8c       0x70 build/default/production/_ext/1033058136/icmp.o
                0x000000009d018f8c                TCPIP_ICMP_Initialize

.text._ARPSetEntry
                0x000000009d018ffc       0x70
 .text._ARPSetEntry
                0x000000009d018ffc       0x70 build/default/production/_ext/1033058136/arp.o

.text._UDPClose
                0x000000009d01906c       0x70
 .text._UDPClose
                0x000000009d01906c       0x70 build/default/production/_ext/1033058136/udp.o

.text.TCPIP_UDP_SocketNetSet
                0x000000009d0190dc       0x70
 .text.TCPIP_UDP_SocketNetSet
                0x000000009d0190dc       0x70 build/default/production/_ext/1033058136/udp.o
                0x000000009d0190dc                TCPIP_UDP_SocketNetSet

.text.TCPIP_UDP_SignalHandlerRegister
                0x000000009d01914c       0x70
 .text.TCPIP_UDP_SignalHandlerRegister
                0x000000009d01914c       0x70 build/default/production/_ext/1033058136/udp.o
                0x000000009d01914c                TCPIP_UDP_SignalHandlerRegister

.text.SYS_CMD_Initialize
                0x000000009d0191bc       0x70
 .text.SYS_CMD_Initialize
                0x000000009d0191bc       0x70 build/default/production/_ext/1376093119/sys_command.o
                0x000000009d0191bc                SYS_CMD_Initialize

.text.Console_UART_Read
                0x000000009d01922c       0x70
 .text.Console_UART_Read
                0x000000009d01922c       0x70 build/default/production/_ext/1832805299/sys_console_uart.o
                0x000000009d01922c                Console_UART_Read

.text.Console_UART_Write
                0x000000009d01929c       0x70
 .text.Console_UART_Write
                0x000000009d01929c       0x70 build/default/production/_ext/1832805299/sys_console_uart.o
                0x000000009d01929c                Console_UART_Write

.text.DRV_ETHMAC_PIC32MACParametersGet
                0x000000009d01930c       0x6c
 .text.DRV_ETHMAC_PIC32MACParametersGet
                0x000000009d01930c       0x6c build/default/production/_ext/732082881/drv_ethmac.o
                0x000000009d01930c                DRV_ETHMAC_PIC32MACParametersGet

.text._DRV_ETHPHY_NegCompletePhaseRead1
                0x000000009d019378       0x6c
 .text._DRV_ETHPHY_NegCompletePhaseRead1
                0x000000009d019378       0x6c build/default/production/_ext/444070925/drv_ethphy.o

.text._DHCPOptionClientId
                0x000000009d0193e4       0x6c
 .text._DHCPOptionClientId
                0x000000009d0193e4       0x6c build/default/production/_ext/1033058136/dhcp.o

.text.TCPIP_STACK_MatchNetAddress
                0x000000009d019450       0x6c
 .text.TCPIP_STACK_MatchNetAddress
                0x000000009d019450       0x6c build/default/production/_ext/1033058136/tcpip_manager.o
                0x000000009d019450                TCPIP_STACK_MatchNetAddress

.rodata         0x000000009d0194bc       0x6c
 .rodata        0x000000009d0194bc       0x6c build/default/production/_ext/1033058136/tcpip_manager.o

.text._TCPIP_PKT_SocketAlloc
                0x000000009d019528       0x6c
 .text._TCPIP_PKT_SocketAlloc
                0x000000009d019528       0x6c build/default/production/_ext/1033058136/tcpip_packet.o
                0x000000009d019528                _TCPIP_PKT_SocketAlloc

.text.SYS_CONSOLE_Message
                0x000000009d019594       0x6c
 .text.SYS_CONSOLE_Message
                0x000000009d019594       0x6c build/default/production/_ext/1832805299/sys_console.o
                0x000000009d019594                SYS_CONSOLE_Message

.text._MacTxFreeCallback
                0x000000009d019600       0x68
 .text._MacTxFreeCallback
                0x000000009d019600       0x68 build/default/production/_ext/732082881/drv_ethmac.o

.text._ARPRemoveEntry
                0x000000009d019668       0x68
 .text._ARPRemoveEntry
                0x000000009d019668       0x68 build/default/production/_ext/1033058136/arp.o

.text._DHCPSetRunFail
                0x000000009d0196d0       0x68
 .text._DHCPSetRunFail
                0x000000009d0196d0       0x68 build/default/production/_ext/1033058136/dhcp.o

.text._DHCPSetTimeout
                0x000000009d019738       0x68
 .text._DHCPSetTimeout
                0x000000009d019738       0x68 build/default/production/_ext/1033058136/dhcp.o

.text._DHCPSetBoundState
                0x000000009d0197a0       0x68
 .text._DHCPSetBoundState
                0x000000009d0197a0       0x68 build/default/production/_ext/1033058136/dhcp.o

.text.TCPIP_DHCP_Deinitialize
                0x000000009d019808       0x68
 .text.TCPIP_DHCP_Deinitialize
                0x000000009d019808       0x68 build/default/production/_ext/1033058136/dhcp.o
                0x000000009d019808                TCPIP_DHCP_Deinitialize

.text.TCPIP_UDP_IsConnected
                0x000000009d019870       0x68
 .text.TCPIP_UDP_IsConnected
                0x000000009d019870       0x68 build/default/production/_ext/1033058136/udp.o
                0x000000009d019870                TCPIP_UDP_IsConnected

.text.Console_UART_WriteCountGet
                0x000000009d0198d8       0x68
 .text.Console_UART_WriteCountGet
                0x000000009d0198d8       0x68 build/default/production/_ext/1832805299/sys_console_uart.o
                0x000000009d0198d8                Console_UART_WriteCountGet

.text.Console_UART_WriteFreeBufferCountGet
                0x000000009d019940       0x68
 .text.Console_UART_WriteFreeBufferCountGet
                0x000000009d019940       0x68 build/default/production/_ext/1832805299/sys_console_uart.o
                0x000000009d019940                Console_UART_WriteFreeBufferCountGet

.text.Console_UART_ReadFreeBufferCountGet
                0x000000009d0199a8       0x68
 .text.Console_UART_ReadFreeBufferCountGet
                0x000000009d0199a8       0x68 build/default/production/_ext/1832805299/sys_console_uart.o
                0x000000009d0199a8                Console_UART_ReadFreeBufferCountGet

.text.Console_UART_ReadCountGet
                0x000000009d019a10       0x68
 .text.Console_UART_ReadCountGet
                0x000000009d019a10       0x68 build/default/production/_ext/1832805299/sys_console_uart.o
                0x000000009d019a10                Console_UART_ReadCountGet

.text._DRV_PHY_SMIReadStart
                0x000000009d019a78       0x64
 .text._DRV_PHY_SMIReadStart
                0x000000009d019a78       0x64 build/default/production/_ext/444070925/drv_ethphy.o

.text._DRV_PHY_SMIWriteStart
                0x000000009d019adc       0x64
 .text._DRV_PHY_SMIWriteStart
                0x000000009d019adc       0x64 build/default/production/_ext/444070925/drv_ethphy.o

.text.TCPIP_ARP_HashEntryDelete
                0x000000009d019b40       0x64
 .text.TCPIP_ARP_HashEntryDelete
                0x000000009d019b40       0x64 build/default/production/_ext/1033058136/arp.o
                0x000000009d019b40                TCPIP_ARP_HashEntryDelete

.text.TCPIP_OAHASH_EntriesRemoveAll
                0x000000009d019ba4       0x64
 .text.TCPIP_OAHASH_EntriesRemoveAll
                0x000000009d019ba4       0x64 build/default/production/_ext/1033058136/oahash.o
                0x000000009d019ba4                TCPIP_OAHASH_EntriesRemoveAll

.text.TCPIP_Helper_ProtectedSingleListLock
                0x000000009d019c08       0x64
 .text.TCPIP_Helper_ProtectedSingleListLock
                0x000000009d019c08       0x64 build/default/production/_ext/1033058136/tcpip_helpers.o
                0x000000009d019c08                TCPIP_Helper_ProtectedSingleListLock

.text.TCPIP_STACK_IsBcastAddress
                0x000000009d019c6c       0x64
 .text.TCPIP_STACK_IsBcastAddress
                0x000000009d019c6c       0x64 build/default/production/_ext/1033058136/tcpip_manager.o
                0x000000009d019c6c                TCPIP_STACK_IsBcastAddress

.text._UDPFreeTxResources
                0x000000009d019cd0       0x64
 .text._UDPFreeTxResources
                0x000000009d019cd0       0x64 build/default/production/_ext/1033058136/udp.o

.text.TCPIP_UDP_OpenClientSkt
                0x000000009d019d34       0x64
 .text.TCPIP_UDP_OpenClientSkt
                0x000000009d019d34       0x64 build/default/production/_ext/1033058136/udp.o
                0x000000009d019d34                TCPIP_UDP_OpenClientSkt

.text.CORETIMER_Start
                0x000000009d019d98       0x64
 .text.CORETIMER_Start
                0x000000009d019d98       0x64 build/default/production/_ext/1249264884/plib_coretimer.o
                0x000000009d019d98                CORETIMER_Start

.rodata.str1.4  0x000000009d019dfc       0x64
 .rodata.str1.4
                0x000000009d019dfc       0x64 build/default/production/_ext/1171490990/initialization.o

.text._sprintf_cdnopsuxX
                0x000000009d019e60       0x64
 .text._sprintf_cdnopsuxX
                0x000000009d019e60       0x64 y:/program files/microchip/xc32/v3.01/bin/bin/../../lib/gcc/pic32mx/8.3.1/../../../../pic32mx/lib/fpu64\libc.a(sprintf_cdnopsuxX.eo)
                0x000000009d019e60                _sprintf_cdnopuxX
                0x000000009d019e60                _sprintf_cdnopsuxX

.text._vsnprintf_cdnopsuxX
                0x000000009d019ec4       0x64
 .text._vsnprintf_cdnopsuxX
                0x000000009d019ec4       0x64 y:/program files/microchip/xc32/v3.01/bin/bin/../../lib/gcc/pic32mx/8.3.1/../../../../pic32mx/lib/fpu64\libc.a(vsnprintf_cdnopsuxX.eo)
                0x000000009d019ec4                _vsnprintf_cdnopsuxX

.text.vsnprintf
                0x000000009d019f28       0x64
 .text.vsnprintf
                0x000000009d019f28       0x64 y:/program files/microchip/xc32/v3.01/bin/bin/../../lib/gcc/pic32mx/8.3.1/../../../../pic32mx/lib/fpu64\libc.a(vsnprintf.o)
                0x000000009d019f28                vsnprintf

.text._MacTxDiscardQueues
                0x000000009d019f8c       0x60
 .text._MacTxDiscardQueues
                0x000000009d019f8c       0x60 build/default/production/_ext/732082881/drv_ethmac.o

.text._EnetDescriptorsCount
                0x000000009d019fec       0x60
 .text._EnetDescriptorsCount
                0x000000009d019fec       0x60 build/default/production/_ext/732082881/drv_ethmac_lib.o

.text._DRV_ETHPHY_LinkStatPhaseRefresh
                0x000000009d01a04c       0x60
 .text._DRV_ETHPHY_LinkStatPhaseRefresh
                0x000000009d01a04c       0x60 build/default/production/_ext/444070925/drv_ethphy.o

.text.TCPIP_IPV4_CheckPktTx
                0x000000009d01a0ac       0x60
 .text.TCPIP_IPV4_CheckPktTx
                0x000000009d01a0ac       0x60 build/default/production/_ext/1033058136/ipv4.o

.text._TCPIP_HEAP_BufferMapNonCached
                0x000000009d01a10c       0x60
 .text._TCPIP_HEAP_BufferMapNonCached
                0x000000009d01a10c       0x60 build/default/production/_ext/1033058136/tcpip_heap_alloc.o
                0x000000009d01a10c                _TCPIP_HEAP_BufferMapNonCached

.text._DHCPOptionProcessMsgType
                0x000000009d01a16c       0x60
 .text._DHCPOptionProcessMsgType
                0x000000009d01a16c       0x60 build/default/production/_ext/1033058136/dhcp.o

.text.TCPIP_SNTP_Deinitialize
                0x000000009d01a1cc       0x60
 .text.TCPIP_SNTP_Deinitialize
                0x000000009d01a1cc       0x60 build/default/production/_ext/1033058136/sntp.o
                0x000000009d01a1cc                TCPIP_SNTP_Deinitialize

.text.TCPIP_UDP_GetIsReady
                0x000000009d01a22c       0x60
 .text.TCPIP_UDP_GetIsReady
                0x000000009d01a22c       0x60 build/default/production/_ext/1033058136/udp.o
                0x000000009d01a22c                TCPIP_UDP_GetIsReady

.text.CommandQuit
                0x000000009d01a28c       0x60
 .text.CommandQuit
                0x000000009d01a28c       0x60 build/default/production/_ext/1376093119/sys_command.o

.text.SYS_CONSOLE_Read
                0x000000009d01a2ec       0x60
 .text.SYS_CONSOLE_Read
                0x000000009d01a2ec       0x60 build/default/production/_ext/1832805299/sys_console.o
                0x000000009d01a2ec                SYS_CONSOLE_Read

.text.SYS_CONSOLE_ReadCountGet
                0x000000009d01a34c       0x60
 .text.SYS_CONSOLE_ReadCountGet
                0x000000009d01a34c       0x60 build/default/production/_ext/1832805299/sys_console.o
                0x000000009d01a34c                SYS_CONSOLE_ReadCountGet

.text.SYS_CONSOLE_Write
                0x000000009d01a3ac       0x60
 .text.SYS_CONSOLE_Write
                0x000000009d01a3ac       0x60 build/default/production/_ext/1832805299/sys_console.o
                0x000000009d01a3ac                SYS_CONSOLE_Write

.text.DRV_ETHMAC_PIC32MACOpen
                0x000000009d01a40c       0x5c
 .text.DRV_ETHMAC_PIC32MACOpen
                0x000000009d01a40c       0x5c build/default/production/_ext/732082881/drv_ethmac.o
                0x000000009d01a40c                DRV_ETHMAC_PIC32MACOpen

.text.DRV_ETHPHY_LinkStatusGet
                0x000000009d01a468       0x5c
 .text.DRV_ETHPHY_LinkStatusGet
                0x000000009d01a468       0x5c build/default/production/_ext/444070925/drv_ethphy.o
                0x000000009d01a468                DRV_ETHPHY_LinkStatusGet

.text.DRV_ETHPHY_NegotiationResultGet
                0x000000009d01a4c4       0x5c
 .text.DRV_ETHPHY_NegotiationResultGet
                0x000000009d01a4c4       0x5c build/default/production/_ext/444070925/drv_ethphy.o
                0x000000009d01a4c4                DRV_ETHPHY_NegotiationResultGet

.text.TCPIP_ARP_HandlerRegister
                0x000000009d01a520       0x5c
 .text.TCPIP_ARP_HandlerRegister
                0x000000009d01a520       0x5c build/default/production/_ext/1033058136/arp.o
                0x000000009d01a520                TCPIP_ARP_HandlerRegister

.text.fnv_32_hash
                0x000000009d01a57c       0x5c
 .text.fnv_32_hash
                0x000000009d01a57c       0x5c build/default/production/_ext/1033058136/hash_fnv.o
                0x000000009d01a57c                fnv_32_hash

.text.TCPIP_STACK_MACIdToNet
                0x000000009d01a5d8       0x5c
 .text.TCPIP_STACK_MACIdToNet
                0x000000009d01a5d8       0x5c build/default/production/_ext/1033058136/tcpip_manager.o
                0x000000009d01a5d8                TCPIP_STACK_MACIdToNet

.text.TCPIP_STACK_NetByAddress
                0x000000009d01a634       0x5c
 .text.TCPIP_STACK_NetByAddress
                0x000000009d01a634       0x5c build/default/production/_ext/1033058136/tcpip_manager.o
                0x000000009d01a634                TCPIP_STACK_NetByAddress

.text.TCPIP_SNTP_SetErrorState
                0x000000009d01a690       0x5c
 .text.TCPIP_SNTP_SetErrorState
                0x000000009d01a690       0x5c build/default/production/_ext/1033058136/sntp.o

.text.EVIC_Initialize
                0x000000009d01a6ec       0x5c
 .text.EVIC_Initialize
                0x000000009d01a6ec       0x5c build/default/production/_ext/1865200349/plib_evic.o
                0x000000009d01a6ec                EVIC_Initialize

.text._keyRightProcess
                0x000000009d01a748       0x5c
 .text._keyRightProcess
                0x000000009d01a748       0x5c build/default/production/_ext/1376093119/sys_command.o

.text.strcspn   0x000000009d01a7a4       0x5c
 .text.strcspn  0x000000009d01a7a4       0x5c y:/program files/microchip/xc32/v3.01/bin/bin/../../lib/gcc/pic32mx/8.3.1/../../../../pic32mx/lib/fpu64\libc.a(strcspn.o)
                0x000000009d01a7a4                strcspn

.text.strspn    0x000000009d01a800       0x5c
 .text.strspn   0x000000009d01a800       0x5c y:/program files/microchip/xc32/v3.01/bin/bin/../../lib/gcc/pic32mx/8.3.1/../../../../pic32mx/lib/fpu64\libc.a(strspn.o)
                0x000000009d01a800                strspn

.text.DRV_ETHMAC_PIC32MACLinkCheck
                0x000000009d01a85c       0x58
 .text.DRV_ETHMAC_PIC32MACLinkCheck
                0x000000009d01a85c       0x58 build/default/production/_ext/732082881/drv_ethmac.o
                0x000000009d01a85c                DRV_ETHMAC_PIC32MACLinkCheck

.text._DRV_ETHMAC_LinkStateStartLink
                0x000000009d01a8b4       0x58
 .text._DRV_ETHMAC_LinkStateStartLink
                0x000000009d01a8b4       0x58 build/default/production/_ext/732082881/drv_ethmac.o

.text.DRV_ETHPHY_Close
                0x000000009d01a90c       0x58
 .text.DRV_ETHPHY_Close
                0x000000009d01a90c       0x58 build/default/production/_ext/444070925/drv_ethphy.o
                0x000000009d01a90c                DRV_ETHPHY_Close

.text._DHCPOptionProcessLease
                0x000000009d01a964       0x58
 .text._DHCPOptionProcessLease
                0x000000009d01a964       0x58 build/default/production/_ext/1033058136/dhcp.o

.text._DHCPOptionProcessRenewT
                0x000000009d01a9bc       0x58
 .text._DHCPOptionProcessRenewT
                0x000000009d01a9bc       0x58 build/default/production/_ext/1033058136/dhcp.o

.text._DHCPOptionProcessRebindT
                0x000000009d01aa14       0x58
 .text._DHCPOptionProcessRebindT
                0x000000009d01aa14       0x58 build/default/production/_ext/1033058136/dhcp.o

.text.TCPIP_Helper_ProtectedSingleListUnlock
                0x000000009d01aa6c       0x58
 .text.TCPIP_Helper_ProtectedSingleListUnlock
                0x000000009d01aa6c       0x58 build/default/production/_ext/1033058136/tcpip_helpers.o
                0x000000009d01aa6c                TCPIP_Helper_ProtectedSingleListUnlock

.text.TCPIP_Notification_Remove
                0x000000009d01aac4       0x58
 .text.TCPIP_Notification_Remove
                0x000000009d01aac4       0x58 build/default/production/_ext/1033058136/tcpip_notify.o
                0x000000009d01aac4                TCPIP_Notification_Remove

.text.SYS_INT_SourceDisable
                0x000000009d01ab1c       0x58
 .text.SYS_INT_SourceDisable
                0x000000009d01ab1c       0x58 build/default/production/_ext/1881668453/sys_int.o
                0x000000009d01ab1c                SYS_INT_SourceDisable

.text.SYS_TIME_ResourceLock
                0x000000009d01ab74       0x58
 .text.SYS_TIME_ResourceLock
                0x000000009d01ab74       0x58 build/default/production/_ext/101884895/sys_time.o

.text._MACTxPacketAckCallback
                0x000000009d01abcc       0x54
 .text._MACTxPacketAckCallback
                0x000000009d01abcc       0x54 build/default/production/_ext/732082881/drv_ethmac.o

.text._DRV_ETHPHY_NegResultPhase_ANEXP
                0x000000009d01ac20       0x54
 .text._DRV_ETHPHY_NegResultPhase_ANEXP
                0x000000009d01ac20       0x54 build/default/production/_ext/444070925/drv_ethphy.o

.text._DRV_ETHPHY_NegResultPhase_ANLPAD
                0x000000009d01ac74       0x54
 .text._DRV_ETHPHY_NegResultPhase_ANLPAD
                0x000000009d01ac74       0x54 build/default/production/_ext/444070925/drv_ethphy.o

.rodata         0x000000009d01acc8       0x54
 .rodata        0x000000009d01acc8       0x54 build/default/production/_ext/438849557/drv_miim.o
                0x000000009d01acc8                DRV_MIIM_OBJECT_BASE_Default

.text._ARPRemoveCacheEntries
                0x000000009d01ad1c       0x54
 .text._ARPRemoveCacheEntries
                0x000000009d01ad1c       0x54 build/default/production/_ext/1033058136/arp.o

.text.TCPIP_STACK_AddressServiceDefaultSet
                0x000000009d01ad70       0x54
 .text.TCPIP_STACK_AddressServiceDefaultSet
                0x000000009d01ad70       0x54 build/default/production/_ext/1033058136/tcpip_manager.o
                0x000000009d01ad70                TCPIP_STACK_AddressServiceDefaultSet

.text.TCPIP_PKT_Initialize
                0x000000009d01adc4       0x54
 .text.TCPIP_PKT_Initialize
                0x000000009d01adc4       0x54 build/default/production/_ext/1033058136/tcpip_packet.o
                0x000000009d01adc4                TCPIP_PKT_Initialize

.text.vPortIncrementTick
                0x000000009d01ae18       0x54
 .text.vPortIncrementTick
                0x000000009d01ae18       0x54 build/default/production/_ext/951553246/port.o
                0x000000009d01ae18                vPortIncrementTick

.text.main_entry
                0x000000009d01ae6c       0x54
 .text.main_entry
                0x000000009d01ae6c       0x54 C:\Users\DANIEL~1.RAI\AppData\Local\Temp\ccdMNJnB.o
                0x000000009d01aea0                __crt0_exit

.text._XtlEventsTcp2Eth
                0x000000009d01aec0       0x50
 .text._XtlEventsTcp2Eth
                0x000000009d01aec0       0x50 build/default/production/_ext/732082881/drv_ethmac.o

.text.DRV_MIIM_Close
                0x000000009d01af10       0x50
 .text.DRV_MIIM_Close
                0x000000009d01af10       0x50 build/default/production/_ext/438849557/drv_miim.o
                0x000000009d01af10                DRV_MIIM_Close

.text.TCPIP_Helper_ProtectedSingleListInitialize
                0x000000009d01af60       0x50
 .text.TCPIP_Helper_ProtectedSingleListInitialize
                0x000000009d01af60       0x50 build/default/production/_ext/1033058136/tcpip_helpers.o
                0x000000009d01af60                TCPIP_Helper_ProtectedSingleListInitialize

.text.TCPIP_STACK_IPAddToNet
                0x000000009d01afb0       0x50
 .text.TCPIP_STACK_IPAddToNet
                0x000000009d01afb0       0x50 build/default/production/_ext/1033058136/tcpip_manager.o
                0x000000009d01afb0                TCPIP_STACK_IPAddToNet

.text.TCPIP_Notification_RemoveAll
                0x000000009d01b000       0x50
 .text.TCPIP_Notification_RemoveAll
                0x000000009d01b000       0x50 build/default/production/_ext/1033058136/tcpip_notify.o
                0x000000009d01b000                TCPIP_Notification_RemoveAll

.text.TCPIP_SNTP_Cleanup
                0x000000009d01b050       0x50
 .text.TCPIP_SNTP_Cleanup
                0x000000009d01b050       0x50 build/default/production/_ext/1033058136/sntp.o

.text.DRV_ETH_MIIMReadStart
                0x000000009d01b0a0       0x4c
 .text.DRV_ETH_MIIMReadStart
                0x000000009d01b0a0       0x4c build/default/production/_ext/732082881/drv_eth_pic32_lib.o
                0x000000009d01b0a0                DRV_ETH_MIIMReadStart

.text.DRV_ETHPHY_Tasks
                0x000000009d01b0ec       0x4c
 .text.DRV_ETHPHY_Tasks
                0x000000009d01b0ec       0x4c build/default/production/_ext/444070925/drv_ethphy.o
                0x000000009d01b0ec                DRV_ETHPHY_Tasks

.text.DRV_ETHPHY_Reinitialize
                0x000000009d01b138       0x4c
 .text.DRV_ETHPHY_Reinitialize
                0x000000009d01b138       0x4c build/default/production/_ext/444070925/drv_ethphy.o
                0x000000009d01b138                DRV_ETHPHY_Reinitialize

.text._DRV_PHY_SetOperDoneResult
                0x000000009d01b184       0x4c
 .text._DRV_PHY_SetOperDoneResult
                0x000000009d01b184       0x4c build/default/production/_ext/444070925/drv_ethphy.o

.text.DRV_ETHPHY_Reset
                0x000000009d01b1d0       0x4c
 .text.DRV_ETHPHY_Reset
                0x000000009d01b1d0       0x4c build/default/production/_ext/444070925/drv_ethphy.o
                0x000000009d01b1d0                DRV_ETHPHY_Reset

.text.DRV_ETHPHY_NegotiationIsComplete
                0x000000009d01b21c       0x4c
 .text.DRV_ETHPHY_NegotiationIsComplete
                0x000000009d01b21c       0x4c build/default/production/_ext/444070925/drv_ethphy.o
                0x000000009d01b21c                DRV_ETHPHY_NegotiationIsComplete

.text._TCPIP_HEAP_Calloc
                0x000000009d01b268       0x4c
 .text._TCPIP_HEAP_Calloc
                0x000000009d01b268       0x4c build/default/production/_ext/1033058136/tcpip_heap_internal.o

.text._DHCPOptionProcessSrvIdent
                0x000000009d01b2b4       0x4c
 .text._DHCPOptionProcessSrvIdent
                0x000000009d01b2b4       0x4c build/default/production/_ext/1033058136/dhcp.o

.text.TCPIP_Helper_SingleListAppend
                0x000000009d01b300       0x4c
 .text.TCPIP_Helper_SingleListAppend
                0x000000009d01b300       0x4c build/default/production/_ext/1033058136/tcpip_helpers.o
                0x000000009d01b300                TCPIP_Helper_SingleListAppend

.text._UDPIsAvailablePort
                0x000000009d01b34c       0x4c
 .text._UDPIsAvailablePort
                0x000000009d01b34c       0x4c build/default/production/_ext/1033058136/udp.o

.text.SYS_RESET_SoftwareReset
                0x000000009d01b398       0x4c
 .text.SYS_RESET_SoftwareReset
                0x000000009d01b398       0x4c build/default/production/_ext/1000052432/sys_reset.o
                0x000000009d01b398                SYS_RESET_SoftwareReset

.text.SYS_TMR_TickCountGet
                0x000000009d01b3e4       0x4c
 .text.SYS_TMR_TickCountGet
                0x000000009d01b3e4       0x4c build/default/production/_ext/753841488/sys_time_h2_adapter.o
                0x000000009d01b3e4                SYS_TMR_TickCountGet

.text.SYS_TMR_TickCountGetLong
                0x000000009d01b430       0x4c
 .text.SYS_TMR_TickCountGetLong
                0x000000009d01b430       0x4c build/default/production/_ext/753841488/sys_time_h2_adapter.o
                0x000000009d01b430                SYS_TMR_TickCountGetLong

.text.TCPIP_STACK_Init
                0x000000009d01b47c       0x4c
 .text.TCPIP_STACK_Init
                0x000000009d01b47c       0x4c build/default/production/_ext/1171490990/initialization.o
                0x000000009d01b47c                TCPIP_STACK_Init

.text.sbrk      0x000000009d01b4c8       0x4c
 .text.sbrk     0x000000009d01b4c8       0x4c y:/program files/microchip/xc32/v3.01/bin/bin/../../lib/gcc/pic32mx/8.3.1/../../../../pic32mx/lib/fpu64\libpic32.a(sbrk.o)
                0x000000009d01b4c8                sbrk

.text.DRV_ETH_MIIMWriteDataSet
                0x000000009d01b514       0x48
 .text.DRV_ETH_MIIMWriteDataSet
                0x000000009d01b514       0x48 build/default/production/_ext/732082881/drv_eth_pic32_lib.o
                0x000000009d01b514                DRV_ETH_MIIMWriteDataSet

.text._DRV_ETHPHY_ClientOpReset
                0x000000009d01b55c       0x48
 .text._DRV_ETHPHY_ClientOpReset
                0x000000009d01b55c       0x48 build/default/production/_ext/444070925/drv_ethphy.o

.text._DRV_ETHPHY_ClientOpNegRestart
                0x000000009d01b5a4       0x48
 .text._DRV_ETHPHY_ClientOpNegRestart
                0x000000009d01b5a4       0x48 build/default/production/_ext/444070925/drv_ethphy.o

.text._DRV_ETHPHY_ClientOpNegResult
                0x000000009d01b5ec       0x48
 .text._DRV_ETHPHY_ClientOpNegResult
                0x000000009d01b5ec       0x48 build/default/production/_ext/444070925/drv_ethphy.o

.text._DRV_ETHPHY_ClientOpNegComplete
                0x000000009d01b634       0x48
 .text._DRV_ETHPHY_ClientOpNegComplete
                0x000000009d01b634       0x48 build/default/production/_ext/444070925/drv_ethphy.o

.text._DRV_ETHPHY_ClientOpLinkStat
                0x000000009d01b67c       0x48
 .text._DRV_ETHPHY_ClientOpLinkStat
                0x000000009d01b67c       0x48 build/default/production/_ext/444070925/drv_ethphy.o

.text._DRV_ETHPHY_ClientOpSetup
                0x000000009d01b6c4       0x48
 .text._DRV_ETHPHY_ClientOpSetup
                0x000000009d01b6c4       0x48 build/default/production/_ext/444070925/drv_ethphy.o

.text._DRV_ETHPHY_SetupPhaseNegotiate
                0x000000009d01b70c       0x48
 .text._DRV_ETHPHY_SetupPhaseNegotiate
                0x000000009d01b70c       0x48 build/default/production/_ext/444070925/drv_ethphy.o

.text.DRV_ETHPHY_RestartNegotiation
                0x000000009d01b754       0x48
 .text.DRV_ETHPHY_RestartNegotiation
                0x000000009d01b754       0x48 build/default/production/_ext/444070925/drv_ethphy.o
                0x000000009d01b754                DRV_ETHPHY_RestartNegotiation

.text.TCPIP_ARP_HandlerDeRegister
                0x000000009d01b79c       0x48
 .text.TCPIP_ARP_HandlerDeRegister
                0x000000009d01b79c       0x48 build/default/production/_ext/1033058136/arp.o
                0x000000009d01b79c                TCPIP_ARP_HandlerDeRegister

.text._DHCPOptionProcessDns
                0x000000009d01b7e4       0x48
 .text._DHCPOptionProcessDns
                0x000000009d01b7e4       0x48 build/default/production/_ext/1033058136/dhcp.o

.text._TCPIP_STACK_TickHandler
                0x000000009d01b82c       0x48
 .text._TCPIP_STACK_TickHandler
                0x000000009d01b82c       0x48 build/default/production/_ext/1033058136/tcpip_manager.o

.text._keyLeftProcess
                0x000000009d01b874       0x48
 .text._keyLeftProcess
                0x000000009d01b874       0x48 build/default/production/_ext/1376093119/sys_command.o

.text.SYS_TMR_TickCounterFrequencyGet
                0x000000009d01b8bc       0x48
 .text.SYS_TMR_TickCounterFrequencyGet
                0x000000009d01b8bc       0x48 build/default/production/_ext/753841488/sys_time_h2_adapter.o
                0x000000009d01b8bc                SYS_TMR_TickCounterFrequencyGet

.text.uxListRemove
                0x000000009d01b904       0x48
 .text.uxListRemove
                0x000000009d01b904       0x48 build/default/production/_ext/404212886/list.o
                0x000000009d01b904                uxListRemove

.text.DRV_ETHMAC_LibRxPendingBuffersGet
                0x000000009d01b94c       0x44
 .text.DRV_ETHMAC_LibRxPendingBuffersGet
                0x000000009d01b94c       0x44 build/default/production/_ext/732082881/drv_ethmac_lib.o
                0x000000009d01b94c                DRV_ETHMAC_LibRxPendingBuffersGet

.text.DRV_ETHMAC_LibRxScheduledBuffersGet
                0x000000009d01b990       0x44
 .text.DRV_ETHMAC_LibRxScheduledBuffersGet
                0x000000009d01b990       0x44 build/default/production/_ext/732082881/drv_ethmac_lib.o
                0x000000009d01b990                DRV_ETHMAC_LibRxScheduledBuffersGet

.text.DRV_ETHMAC_LibTxPendingBuffersGet
                0x000000009d01b9d4       0x44
 .text.DRV_ETHMAC_LibTxPendingBuffersGet
                0x000000009d01b9d4       0x44 build/default/production/_ext/732082881/drv_ethmac_lib.o
                0x000000009d01b9d4                DRV_ETHMAC_LibTxPendingBuffersGet

.text._DRV_PHY_SMITransfer_Wait
                0x000000009d01ba18       0x44
 .text._DRV_PHY_SMITransfer_Wait
                0x000000009d01ba18       0x44 build/default/production/_ext/444070925/drv_ethphy.o

.text._DRV_PHY_NegCompleteSetOperResult
                0x000000009d01ba5c       0x44
 .text._DRV_PHY_NegCompleteSetOperResult
                0x000000009d01ba5c       0x44 build/default/production/_ext/444070925/drv_ethphy.o

.text.TCPIP_ICMP_Deinitialize
                0x000000009d01baa0       0x44
 .text.TCPIP_ICMP_Deinitialize
                0x000000009d01baa0       0x44 build/default/production/_ext/1033058136/icmp.o
                0x000000009d01baa0                TCPIP_ICMP_Deinitialize

.text._SwapARPPacket
                0x000000009d01bae4       0x44
 .text._SwapARPPacket
                0x000000009d01bae4       0x44 build/default/production/_ext/1033058136/arp.o

.text.Ipv4DeRegisterFilter
                0x000000009d01bb28       0x44
 .text.Ipv4DeRegisterFilter
                0x000000009d01bb28       0x44 build/default/production/_ext/1033058136/ipv4.o
                0x000000009d01bb28                Ipv4DeRegisterFilter

.text._DHCPOptionWriteMsgType
                0x000000009d01bb6c       0x44
 .text._DHCPOptionWriteMsgType
                0x000000009d01bb6c       0x44 build/default/production/_ext/1033058136/dhcp.o

.text.TCPIP_STACK_IndexToNet
                0x000000009d01bbb0       0x44
 .text.TCPIP_STACK_IndexToNet
                0x000000009d01bbb0       0x44 build/default/production/_ext/1033058136/tcpip_manager.o
                0x000000009d01bbb0                TCPIP_STACK_IndexToNet

.text._TCPIPStackSetConfigAddress
                0x000000009d01bbf4       0x44
 .text._TCPIPStackSetConfigAddress
                0x000000009d01bbf4       0x44 build/default/production/_ext/1033058136/tcpip_manager.o
                0x000000009d01bbf4                _TCPIPStackSetConfigAddress

.text._TCPIPStackSignalHandlerSetParams
                0x000000009d01bc38       0x44
 .text._TCPIPStackSignalHandlerSetParams
                0x000000009d01bc38       0x44 build/default/production/_ext/1033058136/tcpip_manager.o
                0x000000009d01bc38                _TCPIPStackSignalHandlerSetParams

.text._UDPFreeRxQueue
                0x000000009d01bc7c       0x44
 .text._UDPFreeRxQueue
                0x000000009d01bc7c       0x44 build/default/production/_ext/1033058136/udp.o

.rodata.str1.4  0x000000009d01bcc0       0x44
 .rodata.str1.4
                0x000000009d01bcc0       0x44 build/default/production/_ext/1033058136/udp.o

.text.SYS_TIME_ResourceUnlock
                0x000000009d01bd04       0x44
 .text.SYS_TIME_ResourceUnlock
                0x000000009d01bd04       0x44 build/default/production/_ext/101884895/sys_time.o

.text           0x000000009d01bd48       0x44
 .text          0x000000009d01bd48       0x44 y:/program files/microchip/xc32/v3.01/bin/bin/../../lib/gcc/pic32mx/8.3.1/../../../../pic32mx/lib/fpu64\pic32_software_reset.o
                0x000000009d01bd48                __pic32_software_reset

.text.calloc    0x000000009d01bd8c       0x44
 .text.calloc   0x000000009d01bd8c       0x44 y:/program files/microchip/xc32/v3.01/bin/bin/../../lib/gcc/pic32mx/8.3.1/../../../../pic32mx/lib/fpu64\libc.a(calloc.o)
                0x000000009d01bd8c                calloc

.text.strncpy   0x000000009d01bdd0       0x44
 .text.strncpy  0x000000009d01bdd0       0x44 y:/program files/microchip/xc32/v3.01/bin/bin/../../lib/gcc/pic32mx/8.3.1/../../../../pic32mx/lib/fpu64\libc.a(strncpy.o)
                0x000000009d01bdd0                strncpy

.text._DRV_ETHPHY_NegCompletePhaseResultNoWait
                0x000000009d01be14       0x40
 .text._DRV_ETHPHY_NegCompletePhaseResultNoWait
                0x000000009d01be14       0x40 build/default/production/_ext/444070925/drv_ethphy.o

.text._DRV_ETHPHY_ResetPhaseIdle
                0x000000009d01be54       0x40
 .text._DRV_ETHPHY_ResetPhaseIdle
                0x000000009d01be54       0x40 build/default/production/_ext/444070925/drv_ethphy.o

.text._DRV_ETHPHY_SetupPhaseNegotiate_SubPhase5
                0x000000009d01be94       0x40
 .text._DRV_ETHPHY_SetupPhaseNegotiate_SubPhase5
                0x000000009d01be94       0x40 build/default/production/_ext/444070925/drv_ethphy.o

.text.TCPIP_HEAP_Create
                0x000000009d01bed4       0x40
 .text.TCPIP_HEAP_Create
                0x000000009d01bed4       0x40 build/default/production/_ext/1033058136/tcpip_heap_alloc.o
                0x000000009d01bed4                TCPIP_HEAP_Create

.text._DHCPOptionWriteParamRequest
                0x000000009d01bf14       0x40
 .text._DHCPOptionWriteParamRequest
                0x000000009d01bf14       0x40 build/default/production/_ext/1033058136/dhcp.o

.rodata.str1.4  0x000000009d01bf54       0x40
 .rodata.str1.4
                0x000000009d01bf54       0x40 build/default/production/_ext/1033058136/tcpip_helpers.o

.text._TCPIPSignalEntryNotify
                0x000000009d01bf94       0x40
 .text._TCPIPSignalEntryNotify
                0x000000009d01bf94       0x40 build/default/production/_ext/1033058136/tcpip_manager.o

.text.TCPIP_STACK_NetIsBcastAddress
                0x000000009d01bfd4       0x40
 .text.TCPIP_STACK_NetIsBcastAddress
                0x000000009d01bfd4       0x40 build/default/production/_ext/1033058136/tcpip_manager.o
                0x000000009d01bfd4                TCPIP_STACK_NetIsBcastAddress

.text.TCPIP_UDP_Discard
                0x000000009d01c014       0x40
 .text.TCPIP_UDP_Discard
                0x000000009d01c014       0x40 build/default/production/_ext/1033058136/udp.o
                0x000000009d01c014                TCPIP_UDP_Discard

.text.SendCommandCharacter
                0x000000009d01c054       0x40
 .text.SendCommandCharacter
                0x000000009d01c054       0x40 build/default/production/_ext/1376093119/sys_command.o

.text._keyDownProcess
                0x000000009d01c094       0x40
 .text._keyDownProcess
                0x000000009d01c094       0x40 build/default/production/_ext/1376093119/sys_command.o

.text._keyUpProcess
                0x000000009d01c0d4       0x40
 .text._keyUpProcess
                0x000000009d01c0d4       0x40 build/default/production/_ext/1376093119/sys_command.o

.text.SYS_Tasks
                0x000000009d01c114       0x40
 .text.SYS_Tasks
                0x000000009d01c114       0x40 build/default/production/_ext/1171490990/tasks.o
                0x000000009d01c114                SYS_Tasks

.text._DRV_ETHMAC_LinkStateDown
                0x000000009d01c154       0x3c
 .text._DRV_ETHMAC_LinkStateDown
                0x000000009d01c154       0x3c build/default/production/_ext/732082881/drv_ethmac.o

.text.DRV_ETHMAC_SingleListHeadRemove
                0x000000009d01c190       0x3c
 .text.DRV_ETHMAC_SingleListHeadRemove
                0x000000009d01c190       0x3c build/default/production/_ext/732082881/drv_ethmac_lib.o
                0x000000009d01c190                DRV_ETHMAC_SingleListHeadRemove

.text._DRV_ETHPHY_LinkStatPhaseIdle
                0x000000009d01c1cc       0x3c
 .text._DRV_ETHPHY_LinkStatPhaseIdle
                0x000000009d01c1cc       0x3c build/default/production/_ext/444070925/drv_ethphy.o

.text._DRV_ETHPHY_NegCompletePhaseIdle
                0x000000009d01c208       0x3c
 .text._DRV_ETHPHY_NegCompletePhaseIdle
                0x000000009d01c208       0x3c build/default/production/_ext/444070925/drv_ethphy.o

.text._DRV_ETHPHY_NegResultPhaseIdle
                0x000000009d01c244       0x3c
 .text._DRV_ETHPHY_NegResultPhaseIdle
                0x000000009d01c244       0x3c build/default/production/_ext/444070925/drv_ethphy.o

.text._DRV_ETHPHY_NegRestartPhaseIdle
                0x000000009d01c280       0x3c
 .text._DRV_ETHPHY_NegRestartPhaseIdle
                0x000000009d01c280       0x3c build/default/production/_ext/444070925/drv_ethphy.o

.text.Helper_SingleListHeadRemove
                0x000000009d01c2bc       0x3c
 .text.Helper_SingleListHeadRemove
                0x000000009d01c2bc       0x3c build/default/production/_ext/438849557/drv_miim.o
                0x000000009d01c2bc                Helper_SingleListHeadRemove

.text.TCPIP_ARP_HashKeyHash
                0x000000009d01c2f8       0x3c
 .text.TCPIP_ARP_HashKeyHash
                0x000000009d01c2f8       0x3c build/default/production/_ext/1033058136/arp.o
                0x000000009d01c2f8                TCPIP_ARP_HashKeyHash

.text.TCPIP_OAHASH_Initialize
                0x000000009d01c334       0x3c
 .text.TCPIP_OAHASH_Initialize
                0x000000009d01c334       0x3c build/default/production/_ext/1033058136/oahash.o
                0x000000009d01c334                TCPIP_OAHASH_Initialize

.text.TCPIP_Helper_SingleListHeadRemove
                0x000000009d01c370       0x3c
 .text.TCPIP_Helper_SingleListHeadRemove
                0x000000009d01c370       0x3c build/default/production/_ext/1033058136/tcpip_helpers.o
                0x000000009d01c370                TCPIP_Helper_SingleListHeadRemove

.text._TCPIPStackModuleSignalGet
                0x000000009d01c3ac       0x3c
 .text._TCPIPStackModuleSignalGet
                0x000000009d01c3ac       0x3c build/default/production/_ext/1033058136/tcpip_manager.o
                0x000000009d01c3ac                _TCPIPStackModuleSignalGet

.text.CORE_TIMER_InterruptHandler
                0x000000009d01c3e8       0x3c
 .text.CORE_TIMER_InterruptHandler
                0x000000009d01c3e8       0x3c build/default/production/_ext/1249264884/plib_coretimer.o
                0x000000009d01c3e8                CORE_TIMER_InterruptHandler

.text.SYS_TIME_Counter64Update
                0x000000009d01c424       0x3c
 .text.SYS_TIME_Counter64Update
                0x000000009d01c424       0x3c build/default/production/_ext/101884895/sys_time.o

.text.strncmp   0x000000009d01c460       0x3c
 .text.strncmp  0x000000009d01c460       0x3c y:/program files/microchip/xc32/v3.01/bin/bin/../../lib/gcc/pic32mx/8.3.1/../../../../pic32mx/lib/fpu64\libc.a(strncmp.o)
                0x000000009d01c460                strncmp

.text           0x000000009d01c49c       0x3c
 .text          0x000000009d01c49c       0x3c y:/program files/microchip/xc32/v3.01/bin/bin/../../lib/gcc/pic32mx/8.3.1/fpu64\libgcc.a(_lshrdi3.o)
                0x000000009d01c49c                __lshrdi3

.text.DRV_MIIM_Status
                0x000000009d01c4d8       0x38
 .text.DRV_MIIM_Status
                0x000000009d01c4d8       0x38 build/default/production/_ext/438849557/drv_miim.o
                0x000000009d01c4d8                DRV_MIIM_Status

.text._ARPAllocateTxPacket
                0x000000009d01c510       0x38
 .text._ARPAllocateTxPacket
                0x000000009d01c510       0x38 build/default/production/_ext/1033058136/arp.o

.text._ARPTxAckFnc
                0x000000009d01c548       0x38
 .text._ARPTxAckFnc
                0x000000009d01c548       0x38 build/default/production/_ext/1033058136/arp.o

.text._TCPIPStackPacketTx
                0x000000009d01c580       0x38
 .text._TCPIPStackPacketTx
                0x000000009d01c580       0x38 build/default/production/_ext/1033058136/tcpip_manager.o
                0x000000009d01c580                _TCPIPStackPacketTx

.text._UDPTxPktValid
                0x000000009d01c5b8       0x38
 .text._UDPTxPktValid
                0x000000009d01c5b8       0x38 build/default/production/_ext/1033058136/udp.o

.text.SendCommandMessage
                0x000000009d01c5f0       0x38
 .text.SendCommandMessage
                0x000000009d01c5f0       0x38 build/default/production/_ext/1376093119/sys_command.o

.text.SYS_TIME_GetElapsedCount
                0x000000009d01c628       0x38
 .text.SYS_TIME_GetElapsedCount
                0x000000009d01c628       0x38 build/default/production/_ext/101884895/sys_time.o

.text.uxPortSetInterruptMaskFromISR
                0x000000009d01c660       0x38
 .text.uxPortSetInterruptMaskFromISR
                0x000000009d01c660       0x38 build/default/production/_ext/951553246/port.o
                0x000000009d01c660                uxPortSetInterruptMaskFromISR

.text.prvResetNextTaskUnblockTime
                0x000000009d01c698       0x38
 .text.prvResetNextTaskUnblockTime
                0x000000009d01c698       0x38 build/default/production/_ext/404212886/FreeRTOS_tasks.o

.rodata.cst8    0x000000009d01c6d0       0x38
 .rodata.cst8   0x000000009d01c6d0       0x38 y:/program files/microchip/xc32/v3.01/bin/bin/../../lib/gcc/pic32mx/8.3.1/../../../../pic32mx/lib/fpu64\libc.a(doprnt.o)

.text.DRV_ETHMAC_PIC32MACDeinitialize
                0x000000009d01c708       0x34
 .text.DRV_ETHMAC_PIC32MACDeinitialize
                0x000000009d01c708       0x34 build/default/production/_ext/732082881/drv_ethmac.o
                0x000000009d01c708                DRV_ETHMAC_PIC32MACDeinitialize

.text.DRV_ETHMAC_LibDescriptorGetBuffer
                0x000000009d01c73c       0x34
 .text.DRV_ETHMAC_LibDescriptorGetBuffer
                0x000000009d01c73c       0x34 build/default/production/_ext/732082881/drv_ethmac_lib.o
                0x000000009d01c73c                DRV_ETHMAC_LibDescriptorGetBuffer

.text.DRV_ETH_RxSetBufferSize
                0x000000009d01c770       0x34
 .text.DRV_ETH_RxSetBufferSize
                0x000000009d01c770       0x34 build/default/production/_ext/732082881/drv_eth_pic32_lib.o
                0x000000009d01c770                DRV_ETH_RxSetBufferSize

.text.DRV_ETH_MACSetAddress
                0x000000009d01c7a4       0x34
 .text.DRV_ETH_MACSetAddress
                0x000000009d01c7a4       0x34 build/default/production/_ext/732082881/drv_eth_pic32_lib.o
                0x000000009d01c7a4                DRV_ETH_MACSetAddress

.text.DRV_ETH_MACGetAddress
                0x000000009d01c7d8       0x34
 .text.DRV_ETH_MACGetAddress
                0x000000009d01c7d8       0x34 build/default/production/_ext/732082881/drv_eth_pic32_lib.o
                0x000000009d01c7d8                DRV_ETH_MACGetAddress

.text.DRV_ETHPHY_PhyAddressGet
                0x000000009d01c80c       0x34
 .text.DRV_ETHPHY_PhyAddressGet
                0x000000009d01c80c       0x34 build/default/production/_ext/444070925/drv_ethphy.o
                0x000000009d01c80c                DRV_ETHPHY_PhyAddressGet

.text._DHCPSocketRxSignalHandler
                0x000000009d01c840       0x34
 .text._DHCPSocketRxSignalHandler
                0x000000009d01c840       0x34 build/default/production/_ext/1033058136/dhcp.o

.text._TCPIPStackHandleToNetLinked
                0x000000009d01c874       0x34
 .text._TCPIPStackHandleToNetLinked
                0x000000009d01c874       0x34 build/default/production/_ext/1033058136/tcpip_manager.o
                0x000000009d01c874                _TCPIPStackHandleToNetLinked

.text.TCPIP_STACK_NetIsReady
                0x000000009d01c8a8       0x34
 .text.TCPIP_STACK_NetIsReady
                0x000000009d01c8a8       0x34 build/default/production/_ext/1033058136/tcpip_manager.o
                0x000000009d01c8a8                TCPIP_STACK_NetIsReady

.text.TCPIP_PKT_PayloadLen
                0x000000009d01c8dc       0x34
 .text.TCPIP_PKT_PayloadLen
                0x000000009d01c8dc       0x34 build/default/production/_ext/1033058136/tcpip_packet.o
                0x000000009d01c8dc                TCPIP_PKT_PayloadLen

.text.TCPIP_SNTP_SocketRxSignalHandler
                0x000000009d01c910       0x34
 .text.TCPIP_SNTP_SocketRxSignalHandler
                0x000000009d01c910       0x34 build/default/production/_ext/1033058136/sntp.o

.text.TCPIP_SNTP_ConnectionInitiate
                0x000000009d01c944       0x34
 .text.TCPIP_SNTP_ConnectionInitiate
                0x000000009d01c944       0x34 build/default/production/_ext/1033058136/sntp.o
                0x000000009d01c944                TCPIP_SNTP_ConnectionInitiate

.text._UDPUpdatePacketLock
                0x000000009d01c978       0x34
 .text._UDPUpdatePacketLock
                0x000000009d01c978       0x34 build/default/production/_ext/1033058136/udp.o

.text.CORETIMER_Stop
                0x000000009d01c9ac       0x34
 .text.CORETIMER_Stop
                0x000000009d01c9ac       0x34 build/default/production/_ext/1249264884/plib_coretimer.o
                0x000000009d01c9ac                CORETIMER_Stop

.text.NVM_InterruptHandler
                0x000000009d01c9e0       0x34
 .text.NVM_InterruptHandler
                0x000000009d01c9e0       0x34 build/default/production/_ext/60176403/plib_nvm.o
                0x000000009d01c9e0                NVM_InterruptHandler

.text.UART2_WritePendingBytesGet
                0x000000009d01ca14       0x34
 .text.UART2_WritePendingBytesGet
                0x000000009d01ca14       0x34 build/default/production/_ext/1865657120/plib_uart2.o

.text.UART2_ReadCountGet
                0x000000009d01ca48       0x34
 .text.UART2_ReadCountGet
                0x000000009d01ca48       0x34 build/default/production/_ext/1865657120/plib_uart2.o
                0x000000009d01ca48                UART2_ReadCountGet

.text.CommandReset
                0x000000009d01ca7c       0x34
 .text.CommandReset
                0x000000009d01ca7c       0x34 build/default/production/_ext/1376093119/sys_command.o

.text.SYS_TIME_MSToCount
                0x000000009d01cab0       0x34
 .text.SYS_TIME_MSToCount
                0x000000009d01cab0       0x34 build/default/production/_ext/101884895/sys_time.o
                0x000000009d01cab0                SYS_TIME_MSToCount

.text           0x000000009d01cae4       0x34
 .text          0x000000009d01cae4       0x34 y:/program files/microchip/xc32/v3.01/bin/bin/../../lib/gcc/pic32mx/8.3.1/fpu64\libgcc.a(_cmpdi2.o)
                0x000000009d01cae4                __cmpdi2

.text.DRV_ETHMAC_SingleListTailAdd
                0x000000009d01cb18       0x30
 .text.DRV_ETHMAC_SingleListTailAdd
                0x000000009d01cb18       0x30 build/default/production/_ext/732082881/drv_ethmac_lib.o
                0x000000009d01cb18                DRV_ETHMAC_SingleListTailAdd

.text.DRV_ETHPHY_HWConfigFlagsGet
                0x000000009d01cb48       0x30
 .text.DRV_ETHPHY_HWConfigFlagsGet
                0x000000009d01cb48       0x30 build/default/production/_ext/444070925/drv_ethphy.o
                0x000000009d01cb48                DRV_ETHPHY_HWConfigFlagsGet

.text.DRV_ETHPHY_VendorDataGet
                0x000000009d01cb78       0x30
 .text.DRV_ETHPHY_VendorDataGet
                0x000000009d01cb78       0x30 build/default/production/_ext/444070925/drv_ethphy.o
                0x000000009d01cb78                DRV_ETHPHY_VendorDataGet

.text.DRV_ETHPHY_ClientOperationAbort
                0x000000009d01cba8       0x30
 .text.DRV_ETHPHY_ClientOperationAbort
                0x000000009d01cba8       0x30 build/default/production/_ext/444070925/drv_ethphy.o
                0x000000009d01cba8                DRV_ETHPHY_ClientOperationAbort

.text.Helper_SingleListTailAdd
                0x000000009d01cbd8       0x30
 .text.Helper_SingleListTailAdd
                0x000000009d01cbd8       0x30 build/default/production/_ext/438849557/drv_miim.o
                0x000000009d01cbd8                Helper_SingleListTailAdd

.text.DRV_MIIM_Read
                0x000000009d01cc08       0x30
 .text.DRV_MIIM_Read
                0x000000009d01cc08       0x30 build/default/production/_ext/438849557/drv_miim.o
                0x000000009d01cc08                DRV_MIIM_Read

.text.DRV_MIIM_Write
                0x000000009d01cc38       0x30
 .text.DRV_MIIM_Write
                0x000000009d01cc38       0x30 build/default/production/_ext/438849557/drv_miim.o
                0x000000009d01cc38                DRV_MIIM_Write

.text.DRV_MIIM_Scan
                0x000000009d01cc68       0x30
 .text.DRV_MIIM_Scan
                0x000000009d01cc68       0x30 build/default/production/_ext/438849557/drv_miim.o
                0x000000009d01cc68                DRV_MIIM_Scan

.text.TCPIP_OAHASH_EntryRemove
                0x000000009d01cc98       0x30
 .text.TCPIP_OAHASH_EntryRemove
                0x000000009d01cc98       0x30 build/default/production/_ext/1033058136/oahash.o
                0x000000009d01cc98                TCPIP_OAHASH_EntryRemove

.text.TCPIP_Helper_SingleListTailAdd
                0x000000009d01ccc8       0x30
 .text.TCPIP_Helper_SingleListTailAdd
                0x000000009d01ccc8       0x30 build/default/production/_ext/1033058136/tcpip_helpers.o
                0x000000009d01ccc8                TCPIP_Helper_SingleListTailAdd

.text.TCPIP_STACK_NetAddressBcast
                0x000000009d01ccf8       0x30
 .text.TCPIP_STACK_NetAddressBcast
                0x000000009d01ccf8       0x30 build/default/production/_ext/1033058136/tcpip_manager.o
                0x000000009d01ccf8                TCPIP_STACK_NetAddressBcast

.text.TCPIP_STACK_AddressServiceSelect
                0x000000009d01cd28       0x30
 .text.TCPIP_STACK_AddressServiceSelect
                0x000000009d01cd28       0x30 build/default/production/_ext/1033058136/tcpip_manager.o
                0x000000009d01cd28                TCPIP_STACK_AddressServiceSelect

.text._TCPIPStackModuleRxExtract
                0x000000009d01cd58       0x30
 .text._TCPIPStackModuleRxExtract
                0x000000009d01cd58       0x30 build/default/production/_ext/1033058136/tcpip_manager.o
                0x000000009d01cd58                _TCPIPStackModuleRxExtract

.text._UDPSocketDcpt
                0x000000009d01cd88       0x30
 .text._UDPSocketDcpt
                0x000000009d01cd88       0x30 build/default/production/_ext/1033058136/udp.o

.text.UART2_ReadFreeBufferCountGet
                0x000000009d01cdb8       0x30
 .text.UART2_ReadFreeBufferCountGet
                0x000000009d01cdb8       0x30 build/default/production/_ext/1865657120/plib_uart2.o
                0x000000009d01cdb8                UART2_ReadFreeBufferCountGet

.text.UART2_WriteFreeBufferCountGet
                0x000000009d01cde8       0x30
 .text.UART2_WriteFreeBufferCountGet
                0x000000009d01cde8       0x30 build/default/production/_ext/1865657120/plib_uart2.o
                0x000000009d01cde8                UART2_WriteFreeBufferCountGet

.rodata         0x000000009d01ce18       0x30
 .rodata        0x000000009d01ce18       0x30 build/default/production/_ext/1832805299/sys_console_uart.o
                0x000000009d01ce18                sysConsoleUARTDevDesc

.text.vListInsertEnd
                0x000000009d01ce48       0x30
 .text.vListInsertEnd
                0x000000009d01ce48       0x30 build/default/production/_ext/404212886/list.o
                0x000000009d01ce48                vListInsertEnd

.text.free      0x000000009d01ce78       0x30
 .text.free     0x000000009d01ce78       0x30 y:/program files/microchip/xc32/v3.01/bin/bin/../../lib/gcc/pic32mx/8.3.1/../../../../pic32mx/lib/fpu64\libc.a(malloc.o)
                0x000000009d01ce78                free

.rodata.str1.4  0x000000009d01cea8       0x60
 .rodata.str1.4
                0x000000009d01cea8       0x30 y:/program files/microchip/xc32/v3.01/bin/bin/../../lib/gcc/pic32mx/8.3.1/../../../../pic32mx/lib/fpu64\libc.a(doprnt_cdnopsuxX.eo)
 .rodata.str1.4
                0x000000009d01ced8       0x30 y:/program files/microchip/xc32/v3.01/bin/bin/../../lib/gcc/pic32mx/8.3.1/../../../../pic32mx/lib/fpu64\libc.a(doprnt.o)

.text._MacCallocCallback
                0x000000009d01cf08       0x2c
 .text._MacCallocCallback
                0x000000009d01cf08       0x2c build/default/production/_ext/732082881/drv_ethmac.o

.text.TCPIP_ICMP_Cleanup
                0x000000009d01cf34       0x2c
 .text.TCPIP_ICMP_Cleanup
                0x000000009d01cf34       0x2c build/default/production/_ext/1033058136/icmp.o

.rodata.str1.4  0x000000009d01cf60       0x2c
 .rodata.str1.4
                0x000000009d01cf60       0x2c build/default/production/_ext/1033058136/dhcp.o

.text.TCPIP_STACK_NetAddress
                0x000000009d01cf8c       0x2c
 .text.TCPIP_STACK_NetAddress
                0x000000009d01cf8c       0x2c build/default/production/_ext/1033058136/tcpip_manager.o
                0x000000009d01cf8c                TCPIP_STACK_NetAddress

.text._TCPIPStackSignalHandlerDeregister
                0x000000009d01cfb8       0x2c
 .text._TCPIPStackSignalHandlerDeregister
                0x000000009d01cfb8       0x2c build/default/production/_ext/1033058136/tcpip_manager.o
                0x000000009d01cfb8                _TCPIPStackSignalHandlerDeregister

.text.TCPIP_Notification_Deinitialize
                0x000000009d01cfe4       0x2c
 .text.TCPIP_Notification_Deinitialize
                0x000000009d01cfe4       0x2c build/default/production/_ext/1033058136/tcpip_notify.o
                0x000000009d01cfe4                TCPIP_Notification_Deinitialize

.text.CORETIMER_Initialize
                0x000000009d01d010       0x2c
 .text.CORETIMER_Initialize
                0x000000009d01d010       0x2c build/default/production/_ext/1249264884/plib_coretimer.o
                0x000000009d01d010                CORETIMER_Initialize

.text.Console_UART_Initialize
                0x000000009d01d03c       0x2c
 .text.Console_UART_Initialize
                0x000000009d01d03c       0x2c build/default/production/_ext/1832805299/sys_console_uart.o
                0x000000009d01d03c                Console_UART_Initialize

.text.SYS_INT_SourceRestore
                0x000000009d01d068       0x2c
 .text.SYS_INT_SourceRestore
                0x000000009d01d068       0x2c build/default/production/_ext/1881668453/sys_int.o
                0x000000009d01d068                SYS_INT_SourceRestore

.text.SYS_TMR_CallbackPeriodic
                0x000000009d01d094       0x2c
 .text.SYS_TMR_CallbackPeriodic
                0x000000009d01d094       0x2c build/default/production/_ext/753841488/sys_time_h2_adapter.o
                0x000000009d01d094                SYS_TMR_CallbackPeriodic

.text._stub_sbd_memlayout
                0x000000009d01d0c0       0x2c
 .text._stub_sbd_memlayout
                0x000000009d01d0c0       0x2c y:/program files/microchip/xc32/v3.01/bin/bin/../../lib/gcc/pic32mx/8.3.1/../../../../pic32mx/lib/fpu64\libpic32.a(sbrk.o)
                0x000000009d01d0c0                _sbd_memlayout
                0x000000009d01d0c0                _stub_sbd_memlayout

.rodata.str1.4  0x000000009d01d0ec       0x28
 .rodata.str1.4
                0x000000009d01d0ec       0x28 build/default/production/_ext/732082881/drv_ethmac.o

.text.DRV_MIIM_ClientStatus
                0x000000009d01d114       0x28
 .text.DRV_MIIM_ClientStatus
                0x000000009d01d114       0x28 build/default/production/_ext/438849557/drv_miim.o
                0x000000009d01d114                DRV_MIIM_ClientStatus

.text._DHCPOptionWriteEnd
                0x000000009d01d13c       0x28
 .text._DHCPOptionWriteEnd
                0x000000009d01d13c       0x28 build/default/production/_ext/1033058136/dhcp.o

.text.TCPIP_OAHASH_EntryGet
                0x000000009d01d164       0x28
 .text.TCPIP_OAHASH_EntryGet
                0x000000009d01d164       0x28 build/default/production/_ext/1033058136/oahash.o
                0x000000009d01d164                TCPIP_OAHASH_EntryGet

.text.TCPIP_STACK_NetAddressGet
                0x000000009d01d18c       0x28
 .text.TCPIP_STACK_NetAddressGet
                0x000000009d01d18c       0x28 build/default/production/_ext/1033058136/tcpip_manager.o
                0x000000009d01d18c                TCPIP_STACK_NetAddressGet

.text.TCPIP_STACK_NetMaskGet
                0x000000009d01d1b4       0x28
 .text.TCPIP_STACK_NetMaskGet
                0x000000009d01d1b4       0x28 build/default/production/_ext/1033058136/tcpip_manager.o
                0x000000009d01d1b4                TCPIP_STACK_NetMaskGet

.text.TCPIP_STACK_NetworkIsLinked
                0x000000009d01d1dc       0x28
 .text.TCPIP_STACK_NetworkIsLinked
                0x000000009d01d1dc       0x28 build/default/production/_ext/1033058136/tcpip_manager.o
                0x000000009d01d1dc                TCPIP_STACK_NetworkIsLinked

.text.TCPIP_STACK_NetUpMACAddressGet
                0x000000009d01d204       0x28
 .text.TCPIP_STACK_NetUpMACAddressGet
                0x000000009d01d204       0x28 build/default/production/_ext/1033058136/tcpip_manager.o
                0x000000009d01d204                TCPIP_STACK_NetUpMACAddressGet

.text.TCPIP_SNTP_Event
                0x000000009d01d22c       0x28
 .text.TCPIP_SNTP_Event
                0x000000009d01d22c       0x28 build/default/production/_ext/1033058136/sntp.o

.text.EVIC_SourceEnable
                0x000000009d01d254       0x28
 .text.EVIC_SourceEnable
                0x000000009d01d254       0x28 build/default/production/_ext/1865200349/plib_evic.o
                0x000000009d01d254                EVIC_SourceEnable

.text.EVIC_SourceDisable
                0x000000009d01d27c       0x28
 .text.EVIC_SourceDisable
                0x000000009d01d27c       0x28 build/default/production/_ext/1865200349/plib_evic.o
                0x000000009d01d27c                EVIC_SourceDisable

.text.EVIC_SourceStatusClear
                0x000000009d01d2a4       0x28
 .text.EVIC_SourceStatusClear
                0x000000009d01d2a4       0x28 build/default/production/_ext/1865200349/plib_evic.o
                0x000000009d01d2a4                EVIC_SourceStatusClear

.text.EVIC_INT_Restore
                0x000000009d01d2cc       0x28
 .text.EVIC_INT_Restore
                0x000000009d01d2cc       0x28 build/default/production/_ext/1865200349/plib_evic.o
                0x000000009d01d2cc                EVIC_INT_Restore

.text.NVM_WriteUnlockSequence
                0x000000009d01d2f4       0x28
 .text.NVM_WriteUnlockSequence
                0x000000009d01d2f4       0x28 build/default/production/_ext/60176403/plib_nvm.o

.text.GetCommandCharacter
                0x000000009d01d31c       0x28
 .text.GetCommandCharacter
                0x000000009d01d31c       0x28 build/default/production/_ext/1376093119/sys_command.o

.text.retTimeSNTP
                0x000000009d01d344       0x28
 .text.retTimeSNTP
                0x000000009d01d344       0x28 build/default/production/_ext/1360937237/main.o
                0x000000009d01d344                retTimeSNTP

.text.toupper   0x000000009d01d36c       0x28
 .text.toupper  0x000000009d01d36c       0x28 y:/program files/microchip/xc32/v3.01/bin/bin/../../lib/gcc/pic32mx/8.3.1/../../../../pic32mx/lib/fpu64\libc.a(ctypef.o)
                0x000000009d01d36c                toupper

.text.strchr    0x000000009d01d394       0x28
 .text.strchr   0x000000009d01d394       0x28 y:/program files/microchip/xc32/v3.01/bin/bin/../../lib/gcc/pic32mx/8.3.1/../../../../pic32mx/lib/fpu64\libc.a(strchr.o)
                0x000000009d01d394                strchr

.text.DRV_ETHMAC_PIC32MACClose
                0x000000009d01d3bc       0x24
 .text.DRV_ETHMAC_PIC32MACClose
                0x000000009d01d3bc       0x24 build/default/production/_ext/732082881/drv_ethmac.o
                0x000000009d01d3bc                DRV_ETHMAC_PIC32MACClose

.text._TCPIP_HEAP_FreeSize
                0x000000009d01d3e0       0x24
 .text._TCPIP_HEAP_FreeSize
                0x000000009d01d3e0       0x24 build/default/production/_ext/1033058136/tcpip_heap_internal.o

.rodata         0x000000009d01d404       0x24
 .rodata        0x000000009d01d404       0x24 build/default/production/_ext/1033058136/tcpip_heap_internal.o

.text.NVM_Initialize
                0x000000009d01d428       0x24
 .text.NVM_Initialize
                0x000000009d01d428       0x24 build/default/production/_ext/60176403/plib_nvm.o
                0x000000009d01d428                NVM_Initialize

.text.SYS_DEBUG_Initialize
                0x000000009d01d44c       0x24
 .text.SYS_DEBUG_Initialize
                0x000000009d01d44c       0x24 build/default/production/_ext/944882569/sys_debug.o
                0x000000009d01d44c                SYS_DEBUG_Initialize

.text.vApplicationStackOverflowHook
                0x000000009d01d470       0x24
 .text.vApplicationStackOverflowHook
                0x000000009d01d470       0x24 build/default/production/_ext/1171490990/freertos_hooks.o
                0x000000009d01d470                vApplicationStackOverflowHook

.text._snprintf_cdnopsuxX
                0x000000009d01d494       0x24
 .text._snprintf_cdnopsuxX
                0x000000009d01d494       0x24 y:/program files/microchip/xc32/v3.01/bin/bin/../../lib/gcc/pic32mx/8.3.1/../../../../pic32mx/lib/fpu64\libc.a(snprintf_cdnopsuxX.eo)
                0x000000009d01d494                _snprintf_cdnopsuxX

.text.DRV_ETHMAC_PIC32MACStatus
                0x000000009d01d4b8       0x20
 .text.DRV_ETHMAC_PIC32MACStatus
                0x000000009d01d4b8       0x20 build/default/production/_ext/732082881/drv_ethmac.o
                0x000000009d01d4b8                DRV_ETHMAC_PIC32MACStatus

.rodata.str1.4  0x000000009d01d4d8       0x20
 .rodata.str1.4
                0x000000009d01d4d8       0x20 build/default/production/_ext/444070925/drv_ethphy.o

.text.Ipv4DeRegisterCallback
                0x000000009d01d4f8       0x20
 .text.Ipv4DeRegisterCallback
                0x000000009d01d4f8       0x20 build/default/production/_ext/1033058136/ipv4.o

.text.TCPIP_IPV4_PacketTransmit
                0x000000009d01d518       0x20
 .text.TCPIP_IPV4_PacketTransmit
                0x000000009d01d518       0x20 build/default/production/_ext/1033058136/ipv4.o
                0x000000009d01d518                TCPIP_IPV4_PacketTransmit

.text.TCPIP_HEAP_MallocOutline
                0x000000009d01d538       0x20
 .text.TCPIP_HEAP_MallocOutline
                0x000000009d01d538       0x20 build/default/production/_ext/1033058136/tcpip_heap_alloc.o
                0x000000009d01d538                TCPIP_HEAP_MallocOutline

.text.TCPIP_HEAP_CallocOutline
                0x000000009d01d558       0x20
 .text.TCPIP_HEAP_CallocOutline
                0x000000009d01d558       0x20 build/default/production/_ext/1033058136/tcpip_heap_alloc.o
                0x000000009d01d558                TCPIP_HEAP_CallocOutline

.text.TCPIP_HEAP_FreeOutline
                0x000000009d01d578       0x20
 .text.TCPIP_HEAP_FreeOutline
                0x000000009d01d578       0x20 build/default/production/_ext/1033058136/tcpip_heap_alloc.o
                0x000000009d01d578                TCPIP_HEAP_FreeOutline

.rodata         0x000000009d01d598       0x20
 .rodata        0x000000009d01d598       0x20 build/default/production/_ext/1033058136/tcpip_helpers.o

.text.TCPIP_STACK_Status
                0x000000009d01d5b8       0x20
 .text.TCPIP_STACK_Status
                0x000000009d01d5b8       0x20 build/default/production/_ext/1033058136/tcpip_manager.o
                0x000000009d01d5b8                TCPIP_STACK_Status

.rodata.str1.4  0x000000009d01d5d8       0x20
 .rodata.str1.4
                0x000000009d01d5d8       0x20 build/default/production/_ext/1033058136/tcpip_packet.o

.text.EVIC_SourceIsEnabled
                0x000000009d01d5f8       0x20
 .text.EVIC_SourceIsEnabled
                0x000000009d01d5f8       0x20 build/default/production/_ext/1865200349/plib_evic.o
                0x000000009d01d5f8                EVIC_SourceIsEnabled

.text.EVIC_INT_Disable
                0x000000009d01d618       0x20
 .text.EVIC_INT_Disable
                0x000000009d01d618       0x20 build/default/production/_ext/1865200349/plib_evic.o
                0x000000009d01d618                EVIC_INT_Disable

.text.sy_time_h2_adapter_callback
                0x000000009d01d638       0x20
 .text.sy_time_h2_adapter_callback
                0x000000009d01d638       0x20 build/default/production/_ext/753841488/sys_time_h2_adapter.o
                0x000000009d01d638                sy_time_h2_adapter_callback

.text._DRV_ETHMAC_GetMCollisionCount
                0x000000009d01d658       0x1c
 .text._DRV_ETHMAC_GetMCollisionCount
                0x000000009d01d658       0x1c build/default/production/_ext/732082881/drv_ethmac.o

.text._DRV_ETHMAC_GetSCollisionCount
                0x000000009d01d674       0x1c
 .text._DRV_ETHMAC_GetSCollisionCount
                0x000000009d01d674       0x1c build/default/production/_ext/732082881/drv_ethmac.o

.text._DRV_ETHMAC_GetAlignError
                0x000000009d01d690       0x1c
 .text._DRV_ETHMAC_GetAlignError
                0x000000009d01d690       0x1c build/default/production/_ext/732082881/drv_ethmac.o

.text._DRV_ETHMAC_GetFrmFcsError
                0x000000009d01d6ac       0x1c
 .text._DRV_ETHMAC_GetFrmFcsError
                0x000000009d01d6ac       0x1c build/default/production/_ext/732082881/drv_ethmac.o

.text._DRV_ETHMAC_GetFrmRxOvflow
                0x000000009d01d6c8       0x1c
 .text._DRV_ETHMAC_GetFrmRxOvflow
                0x000000009d01d6c8       0x1c build/default/production/_ext/732082881/drv_ethmac.o

.text._DRV_ETHMAC_GetFrmPktCount
                0x000000009d01d6e4       0x1c
 .text._DRV_ETHMAC_GetFrmPktCount
                0x000000009d01d6e4       0x1c build/default/production/_ext/732082881/drv_ethmac.o

.text._DRV_ETHMAC_GetFrmRxOk
                0x000000009d01d700       0x1c
 .text._DRV_ETHMAC_GetFrmRxOk
                0x000000009d01d700       0x1c build/default/production/_ext/732082881/drv_ethmac.o

.text._DRV_ETHMAC_GetFrmTxOk
                0x000000009d01d71c       0x1c
 .text._DRV_ETHMAC_GetFrmTxOk
                0x000000009d01d71c       0x1c build/default/production/_ext/732082881/drv_ethmac.o

.text.ETHERNET_InterruptHandler
                0x000000009d01d738       0x1c
 .text.ETHERNET_InterruptHandler
                0x000000009d01d738       0x1c build/default/production/_ext/732082881/drv_ethmac.o
                0x000000009d01d738                ETHERNET_InterruptHandler

.text.DRV_ETH_NonBackToBackIPG1Set
                0x000000009d01d754       0x1c
 .text.DRV_ETH_NonBackToBackIPG1Set
                0x000000009d01d754       0x1c build/default/production/_ext/732082881/drv_eth_pic32_lib.o
                0x000000009d01d754                DRV_ETH_NonBackToBackIPG1Set

.text.DRV_ETHPHY_Deinitialize
                0x000000009d01d770       0x1c
 .text.DRV_ETHPHY_Deinitialize
                0x000000009d01d770       0x1c build/default/production/_ext/444070925/drv_ethphy.o
                0x000000009d01d770                DRV_ETHPHY_Deinitialize

.text.DRV_ETHPHY_VendorDataSet
                0x000000009d01d78c       0x1c
 .text.DRV_ETHPHY_VendorDataSet
                0x000000009d01d78c       0x1c build/default/production/_ext/444070925/drv_ethphy.o
                0x000000009d01d78c                DRV_ETHPHY_VendorDataSet

.text._DRV_ETHPHY_NegRestartPhaseWrite
                0x000000009d01d7a8       0x1c
 .text._DRV_ETHPHY_NegRestartPhaseWrite
                0x000000009d01d7a8       0x1c build/default/production/_ext/444070925/drv_ethphy.o

.text.TCPIP_ARP_HashKeyCompare
                0x000000009d01d7c4       0x1c
 .text.TCPIP_ARP_HashKeyCompare
                0x000000009d01d7c4       0x1c build/default/production/_ext/1033058136/arp.o
                0x000000009d01d7c4                TCPIP_ARP_HashKeyCompare

.text._TCPIP_HEAP_Size
                0x000000009d01d7e0       0x1c
 .text._TCPIP_HEAP_Size
                0x000000009d01d7e0       0x1c build/default/production/_ext/1033058136/tcpip_heap_internal.o

.text._TCPIP_HEAP_HighWatermark
                0x000000009d01d7fc       0x1c
 .text._TCPIP_HEAP_HighWatermark
                0x000000009d01d7fc       0x1c build/default/production/_ext/1033058136/tcpip_heap_internal.o

.text._TCPIP_HEAP_LastError
                0x000000009d01d818       0x1c
 .text._TCPIP_HEAP_LastError
                0x000000009d01d818       0x1c build/default/production/_ext/1033058136/tcpip_heap_internal.o

.text.TCPIP_Helper_ChecksumFold
                0x000000009d01d834       0x1c
 .text.TCPIP_Helper_ChecksumFold
                0x000000009d01d834       0x1c build/default/production/_ext/1033058136/tcpip_helpers.o
                0x000000009d01d834                TCPIP_Helper_ChecksumFold

.text.TCPIP_STACK_GatewayAddressSet
                0x000000009d01d850       0x1c
 .text.TCPIP_STACK_GatewayAddressSet
                0x000000009d01d850       0x1c build/default/production/_ext/1033058136/tcpip_manager.o
                0x000000009d01d850                TCPIP_STACK_GatewayAddressSet

.text.TCPIP_Notification_Initialize
                0x000000009d01d86c       0x1c
 .text.TCPIP_Notification_Initialize
                0x000000009d01d86c       0x1c build/default/production/_ext/1033058136/tcpip_notify.o
                0x000000009d01d86c                TCPIP_Notification_Initialize

.text.TCPIP_UDP_ClientOpen
                0x000000009d01d888       0x1c
 .text.TCPIP_UDP_ClientOpen
                0x000000009d01d888       0x1c build/default/production/_ext/1033058136/udp.o
                0x000000009d01d888                TCPIP_UDP_ClientOpen

.text.TCPIP_UDP_TxPutIsReady
                0x000000009d01d8a4       0x1c
 .text.TCPIP_UDP_TxPutIsReady
                0x000000009d01d8a4       0x1c build/default/production/_ext/1033058136/udp.o
                0x000000009d01d8a4                TCPIP_UDP_TxPutIsReady

.text.CORETIMER_CompareSet
                0x000000009d01d8c0       0x1c
 .text.CORETIMER_CompareSet
                0x000000009d01d8c0       0x1c build/default/production/_ext/1249264884/plib_coretimer.o
                0x000000009d01d8c0                CORETIMER_CompareSet

.text.UART2_WriteCountGet
                0x000000009d01d8dc       0x1c
 .text.UART2_WriteCountGet
                0x000000009d01d8dc       0x1c build/default/production/_ext/1865657120/plib_uart2.o
                0x000000009d01d8dc                UART2_WriteCountGet

.text.IsCommandReady
                0x000000009d01d8f8       0x1c
 .text.IsCommandReady
                0x000000009d01d8f8       0x1c build/default/production/_ext/1376093119/sys_command.o

.text.Console_UART_Status
                0x000000009d01d914       0x1c
 .text.Console_UART_Status
                0x000000009d01d914       0x1c build/default/production/_ext/1832805299/sys_console_uart.o
                0x000000009d01d914                Console_UART_Status

.text.SYS_INT_Disable
                0x000000009d01d930       0x1c
 .text.SYS_INT_Disable
                0x000000009d01d930       0x1c build/default/production/_ext/1881668453/sys_int.o
                0x000000009d01d930                SYS_INT_Disable

.text.SYS_INT_Restore
                0x000000009d01d94c       0x1c
 .text.SYS_INT_Restore
                0x000000009d01d94c       0x1c build/default/production/_ext/1881668453/sys_int.o
                0x000000009d01d94c                SYS_INT_Restore

.text.srand     0x000000009d01d968       0x1c
 .text.srand    0x000000009d01d968       0x1c y:/program files/microchip/xc32/v3.01/bin/bin/../../lib/gcc/pic32mx/8.3.1/../../../../pic32mx/lib/fpu64\libc.a(rand.o)
                0x000000009d01d968                srand

.MIPS.abiflags  0x000000009d01d988       0x18
 .MIPS.abiflags
                0x000000009d01d988       0x18 y:/program files/microchip/xc32/v3.01/bin/bin/../../lib/gcc/pic32mx/8.3.1/../../../../pic32mx/lib/fpu64\debug-exception-return.o

.text.DRV_ETH_BackToBackIPGSet
                0x000000009d01d9a0       0x18
 .text.DRV_ETH_BackToBackIPGSet
                0x000000009d01d9a0       0x18 build/default/production/_ext/732082881/drv_eth_pic32_lib.o
                0x000000009d01d9a0                DRV_ETH_BackToBackIPGSet

.text.DRV_ETH_NonBackToBackIPG2Set
                0x000000009d01d9b8       0x18
 .text.DRV_ETH_NonBackToBackIPG2Set
                0x000000009d01d9b8       0x18 build/default/production/_ext/732082881/drv_eth_pic32_lib.o
                0x000000009d01d9b8                DRV_ETH_NonBackToBackIPG2Set

.text.DRV_ETHPHY_Status
                0x000000009d01d9d0       0x18
 .text.DRV_ETHPHY_Status
                0x000000009d01d9d0       0x18 build/default/production/_ext/444070925/drv_ethphy.o
                0x000000009d01d9d0                DRV_ETHPHY_Status

.text.DRV_ETHPHY_ClientStatus
                0x000000009d01d9e8       0x18
 .text.DRV_ETHPHY_ClientStatus
                0x000000009d01d9e8       0x18 build/default/production/_ext/444070925/drv_ethphy.o
                0x000000009d01d9e8                DRV_ETHPHY_ClientStatus

.text.DRV_ETHPHY_ClientOperationResult
                0x000000009d01da00       0x18
 .text.DRV_ETHPHY_ClientOperationResult
                0x000000009d01da00       0x18 build/default/production/_ext/444070925/drv_ethphy.o
                0x000000009d01da00                DRV_ETHPHY_ClientOperationResult

.text.TCPIP_STACK_NetIxGet
                0x000000009d01da18       0x18
 .text.TCPIP_STACK_NetIxGet
                0x000000009d01da18       0x18 build/default/production/_ext/1033058136/tcpip_manager.o
                0x000000009d01da18                TCPIP_STACK_NetIxGet

.text.CORETIMER_CounterGet
                0x000000009d01da30       0x18
 .text.CORETIMER_CounterGet
                0x000000009d01da30       0x18 build/default/production/_ext/1249264884/plib_coretimer.o
                0x000000009d01da30                CORETIMER_CounterGet

.text._general_exception_handler
                0x000000009d01da48       0x18
 .text._general_exception_handler
                0x000000009d01da48       0x18 build/default/production/_ext/1171490990/exceptions.o
                0x000000009d01da48                _general_exception_handler

.text._bootstrap_exception_handler
                0x000000009d01da60       0x18
 .text._bootstrap_exception_handler
                0x000000009d01da60       0x18 build/default/production/_ext/1171490990/exceptions.o
                0x000000009d01da60                _bootstrap_exception_handler

.text._cache_err_exception_handler
                0x000000009d01da78       0x18
 .text._cache_err_exception_handler
                0x000000009d01da78       0x18 build/default/production/_ext/1171490990/exceptions.o
                0x000000009d01da78                _cache_err_exception_handler

.text._simple_tlb_refill_exception_handler
                0x000000009d01da90       0x18
 .text._simple_tlb_refill_exception_handler
                0x000000009d01da90       0x18 build/default/production/_ext/1171490990/exceptions.o
                0x000000009d01da90                _simple_tlb_refill_exception_handler

.text.APP_Initialize
                0x000000009d01daa8       0x18
 .text.APP_Initialize
                0x000000009d01daa8       0x18 build/default/production/_ext/1360937237/app.o
                0x000000009d01daa8                APP_Initialize

.rodata.str1.4  0x000000009d01dac0       0x18
 .rodata.str1.4
                0x000000009d01dac0       0x18 build/default/production/_ext/1360937237/main.o

.text           0x000000009d01dad8       0x18
 .text          0x000000009d01dad8       0x18 y:/program files/microchip/xc32/v3.01/bin/bin/../../lib/gcc/pic32mx/8.3.1/../../../../pic32mx/lib/fpu64\libpic32.a(default-nmi-handler.o)
                0x000000009d01dad8                _nmi_handler

.text.DRV_ETH_TxPacketDescAddrSet
                0x000000009d01daf0       0x14
 .text.DRV_ETH_TxPacketDescAddrSet
                0x000000009d01daf0       0x14 build/default/production/_ext/732082881/drv_eth_pic32_lib.o
                0x000000009d01daf0                DRV_ETH_TxPacketDescAddrSet

.text.DRV_ETH_RxPacketDescAddrSet
                0x000000009d01db04       0x14
 .text.DRV_ETH_RxPacketDescAddrSet
                0x000000009d01db04       0x14 build/default/production/_ext/732082881/drv_eth_pic32_lib.o
                0x000000009d01db04                DRV_ETH_RxPacketDescAddrSet

.rodata         0x000000009d01db18       0x14
 .rodata        0x000000009d01db18       0x14 build/default/production/_ext/444070925/drv_extphy_smsc8740.o
                0x000000009d01db18                DRV_ETHPHY_OBJECT_SMSC_LAN8740

.text.DRV_ETH_RxBufferCountDecrement
                0x000000009d01db2c       0x10
 .text.DRV_ETH_RxBufferCountDecrement
                0x000000009d01db2c       0x10 build/default/production/_ext/732082881/drv_eth_pic32_lib.o
                0x000000009d01db2c                DRV_ETH_RxBufferCountDecrement

.text.DRV_ETH_MIIResetEnable
                0x000000009d01db3c       0x10
 .text.DRV_ETH_MIIResetEnable
                0x000000009d01db3c       0x10 build/default/production/_ext/732082881/drv_eth_pic32_lib.o
                0x000000009d01db3c                DRV_ETH_MIIResetEnable

.text.DRV_ETH_MIIResetDisable
                0x000000009d01db4c       0x10
 .text.DRV_ETH_MIIResetDisable
                0x000000009d01db4c       0x10 build/default/production/_ext/732082881/drv_eth_pic32_lib.o
                0x000000009d01db4c                DRV_ETH_MIIResetDisable

.text.DRV_ETH_Disable
                0x000000009d01db5c       0x10
 .text.DRV_ETH_Disable
                0x000000009d01db5c       0x10 build/default/production/_ext/732082881/drv_eth_pic32_lib.o
                0x000000009d01db5c                DRV_ETH_Disable

.text.DRV_ETH_Enable
                0x000000009d01db6c       0x10
 .text.DRV_ETH_Enable
                0x000000009d01db6c       0x10 build/default/production/_ext/732082881/drv_eth_pic32_lib.o
                0x000000009d01db6c                DRV_ETH_Enable

.text.DRV_ETH_TxRTSDisable
                0x000000009d01db7c       0x10
 .text.DRV_ETH_TxRTSDisable
                0x000000009d01db7c       0x10 build/default/production/_ext/732082881/drv_eth_pic32_lib.o
                0x000000009d01db7c                DRV_ETH_TxRTSDisable

.text.DRV_ETH_TxRTSEnable
                0x000000009d01db8c       0x10
 .text.DRV_ETH_TxRTSEnable
                0x000000009d01db8c       0x10 build/default/production/_ext/732082881/drv_eth_pic32_lib.o
                0x000000009d01db8c                DRV_ETH_TxRTSEnable

.text.DRV_ETH_RxDisable
                0x000000009d01db9c       0x10
 .text.DRV_ETH_RxDisable
                0x000000009d01db9c       0x10 build/default/production/_ext/732082881/drv_eth_pic32_lib.o
                0x000000009d01db9c                DRV_ETH_RxDisable

.text.DRV_ETH_RxEnable
                0x000000009d01dbac       0x10
 .text.DRV_ETH_RxEnable
                0x000000009d01dbac       0x10 build/default/production/_ext/732082881/drv_eth_pic32_lib.o
                0x000000009d01dbac                DRV_ETH_RxEnable

.text.DRV_ETH_CollisionWindowSet
                0x000000009d01dbbc       0x10
 .text.DRV_ETH_CollisionWindowSet
                0x000000009d01dbbc       0x10 build/default/production/_ext/732082881/drv_eth_pic32_lib.o
                0x000000009d01dbbc                DRV_ETH_CollisionWindowSet

.text.DRV_ETH_ReTxMaxSet
                0x000000009d01dbcc       0x10
 .text.DRV_ETH_ReTxMaxSet
                0x000000009d01dbcc       0x10 build/default/production/_ext/732082881/drv_eth_pic32_lib.o
                0x000000009d01dbcc                DRV_ETH_ReTxMaxSet

.text.DRV_ETH_RMIIResetEnable
                0x000000009d01dbdc       0x10
 .text.DRV_ETH_RMIIResetEnable
                0x000000009d01dbdc       0x10 build/default/production/_ext/732082881/drv_eth_pic32_lib.o
                0x000000009d01dbdc                DRV_ETH_RMIIResetEnable

.text.DRV_ETH_RMIIResetDisable
                0x000000009d01dbec       0x10
 .text.DRV_ETH_RMIIResetDisable
                0x000000009d01dbec       0x10 build/default/production/_ext/732082881/drv_eth_pic32_lib.o
                0x000000009d01dbec                DRV_ETH_RMIIResetDisable

.text.DRV_ETH_RMIISpeedSet
                0x000000009d01dbfc       0x10
 .text.DRV_ETH_RMIISpeedSet
                0x000000009d01dbfc       0x10 build/default/production/_ext/732082881/drv_eth_pic32_lib.o
                0x000000009d01dbfc                DRV_ETH_RMIISpeedSet

.text.DRV_ETH_RxFiltersClr
                0x000000009d01dc0c       0x10
 .text.DRV_ETH_RxFiltersClr
                0x000000009d01dc0c       0x10 build/default/production/_ext/732082881/drv_eth_pic32_lib.o
                0x000000009d01dc0c                DRV_ETH_RxFiltersClr

.text.DRV_ETH_RxFiltersSet
                0x000000009d01dc1c       0x10
 .text.DRV_ETH_RxFiltersSet
                0x000000009d01dc1c       0x10 build/default/production/_ext/732082881/drv_eth_pic32_lib.o
                0x000000009d01dc1c                DRV_ETH_RxFiltersSet

.text.DRV_ETH_PauseTimerSet
                0x000000009d01dc2c       0x10
 .text.DRV_ETH_PauseTimerSet
                0x000000009d01dc2c       0x10 build/default/production/_ext/732082881/drv_eth_pic32_lib.o
                0x000000009d01dc2c                DRV_ETH_PauseTimerSet

.text.DRV_ETH_TxPauseEnable
                0x000000009d01dc3c       0x10
 .text.DRV_ETH_TxPauseEnable
                0x000000009d01dc3c       0x10 build/default/production/_ext/732082881/drv_eth_pic32_lib.o
                0x000000009d01dc3c                DRV_ETH_TxPauseEnable

.text.DRV_ETH_RxPauseEnable
                0x000000009d01dc4c       0x10
 .text.DRV_ETH_RxPauseEnable
                0x000000009d01dc4c       0x10 build/default/production/_ext/732082881/drv_eth_pic32_lib.o
                0x000000009d01dc4c                DRV_ETH_RxPauseEnable

.text.DRV_ETH_AutoFlowControlEnable
                0x000000009d01dc5c       0x10
 .text.DRV_ETH_AutoFlowControlEnable
                0x000000009d01dc5c       0x10 build/default/production/_ext/732082881/drv_eth_pic32_lib.o
                0x000000009d01dc5c                DRV_ETH_AutoFlowControlEnable

.text.DRV_ETH_RxFiltersHTSet
                0x000000009d01dc6c       0x10
 .text.DRV_ETH_RxFiltersHTSet
                0x000000009d01dc6c       0x10 build/default/production/_ext/732082881/drv_eth_pic32_lib.o
                0x000000009d01dc6c                DRV_ETH_RxFiltersHTSet

.text.DRV_ETH_MIIMNoPreEnable
                0x000000009d01dc7c       0x10
 .text.DRV_ETH_MIIMNoPreEnable
                0x000000009d01dc7c       0x10 build/default/production/_ext/732082881/drv_eth_pic32_lib.o
                0x000000009d01dc7c                DRV_ETH_MIIMNoPreEnable

.text.DRV_ETH_MIIMNoPreDisable
                0x000000009d01dc8c       0x10
 .text.DRV_ETH_MIIMNoPreDisable
                0x000000009d01dc8c       0x10 build/default/production/_ext/732082881/drv_eth_pic32_lib.o
                0x000000009d01dc8c                DRV_ETH_MIIMNoPreDisable

.text.DRV_ETH_MIIMScanIncrEnable
                0x000000009d01dc9c       0x10
 .text.DRV_ETH_MIIMScanIncrEnable
                0x000000009d01dc9c       0x10 build/default/production/_ext/732082881/drv_eth_pic32_lib.o
                0x000000009d01dc9c                DRV_ETH_MIIMScanIncrEnable

.text.DRV_ETH_MIIMScanIncrDisable
                0x000000009d01dcac       0x10
 .text.DRV_ETH_MIIMScanIncrDisable
                0x000000009d01dcac       0x10 build/default/production/_ext/732082881/drv_eth_pic32_lib.o
                0x000000009d01dcac                DRV_ETH_MIIMScanIncrDisable

.text.DRV_ETH_PHYAddressSet
                0x000000009d01dcbc       0x10
 .text.DRV_ETH_PHYAddressSet
                0x000000009d01dcbc       0x10 build/default/production/_ext/732082881/drv_eth_pic32_lib.o
                0x000000009d01dcbc                DRV_ETH_PHYAddressSet

.text.DRV_ETH_RegisterAddressSet
                0x000000009d01dccc       0x10
 .text.DRV_ETH_RegisterAddressSet
                0x000000009d01dccc       0x10 build/default/production/_ext/732082881/drv_eth_pic32_lib.o
                0x000000009d01dccc                DRV_ETH_RegisterAddressSet

.text.DRV_ETH_ClearDataValid
                0x000000009d01dcdc       0x10
 .text.DRV_ETH_ClearDataValid
                0x000000009d01dcdc       0x10 build/default/production/_ext/732082881/drv_eth_pic32_lib.o
                0x000000009d01dcdc                DRV_ETH_ClearDataValid

.text.DRV_ETH_MIIMScanModeEnable
                0x000000009d01dcec       0x10
 .text.DRV_ETH_MIIMScanModeEnable
                0x000000009d01dcec       0x10 build/default/production/_ext/732082881/drv_eth_pic32_lib.o
                0x000000009d01dcec                DRV_ETH_MIIMScanModeEnable

.text.DRV_ETH_MIIMScanModeDisable
                0x000000009d01dcfc       0x10
 .text.DRV_ETH_MIIMScanModeDisable
                0x000000009d01dcfc       0x10 build/default/production/_ext/732082881/drv_eth_pic32_lib.o
                0x000000009d01dcfc                DRV_ETH_MIIMScanModeDisable

.text.DRV_ETH_MIIMWriteStart
                0x000000009d01dd0c       0x10
 .text.DRV_ETH_MIIMWriteStart
                0x000000009d01dd0c       0x10 build/default/production/_ext/732082881/drv_eth_pic32_lib.o
                0x000000009d01dd0c                DRV_ETH_MIIMWriteStart

.text.DRV_ETH_MIIMResetEnable
                0x000000009d01dd1c       0x10
 .text.DRV_ETH_MIIMResetEnable
                0x000000009d01dd1c       0x10 build/default/production/_ext/732082881/drv_eth_pic32_lib.o
                0x000000009d01dd1c                DRV_ETH_MIIMResetEnable

.text.DRV_ETH_MIIMResetDisable
                0x000000009d01dd2c       0x10
 .text.DRV_ETH_MIIMResetDisable
                0x000000009d01dd2c       0x10 build/default/production/_ext/732082881/drv_eth_pic32_lib.o
                0x000000009d01dd2c                DRV_ETH_MIIMResetDisable

.text.DRV_ETH_MIIMClockSet
                0x000000009d01dd3c       0x10
 .text.DRV_ETH_MIIMClockSet
                0x000000009d01dd3c       0x10 build/default/production/_ext/732082881/drv_eth_pic32_lib.o
                0x000000009d01dd3c                DRV_ETH_MIIMClockSet

.text.TCPIP_ARP_HashKeyCopy
                0x000000009d01dd4c       0x10
 .text.TCPIP_ARP_HashKeyCopy
                0x000000009d01dd4c       0x10 build/default/production/_ext/1033058136/arp.o
                0x000000009d01dd4c                TCPIP_ARP_HashKeyCopy

.text.TCPIP_Helper_SingleListInitialize
                0x000000009d01dd5c       0x10
 .text.TCPIP_Helper_SingleListInitialize
                0x000000009d01dd5c       0x10 build/default/production/_ext/1033058136/tcpip_helpers.o
                0x000000009d01dd5c                TCPIP_Helper_SingleListInitialize

.text.CORETIMER_CallbackSet
                0x000000009d01dd6c       0x10
 .text.CORETIMER_CallbackSet
                0x000000009d01dd6c       0x10 build/default/production/_ext/1249264884/plib_coretimer.o
                0x000000009d01dd6c                CORETIMER_CallbackSet

.text.DRV_ETHMAC_PIC32MACEventPendingGet
                0x000000009d01dd7c        0xc
 .text.DRV_ETHMAC_PIC32MACEventPendingGet
                0x000000009d01dd7c        0xc build/default/production/_ext/732082881/drv_ethmac.o
                0x000000009d01dd7c                DRV_ETHMAC_PIC32MACEventPendingGet

.text.DRV_ETH_EthernetIsBusy
                0x000000009d01dd88        0xc
 .text.DRV_ETH_EthernetIsBusy
                0x000000009d01dd88        0xc build/default/production/_ext/732082881/drv_eth_pic32_lib.o
                0x000000009d01dd88                DRV_ETH_EthernetIsBusy

.text.DRV_ETH_TransmitIsBusy
                0x000000009d01dd94        0xc
 .text.DRV_ETH_TransmitIsBusy
                0x000000009d01dd94        0xc build/default/production/_ext/732082881/drv_eth_pic32_lib.o
                0x000000009d01dd94                DRV_ETH_TransmitIsBusy

.text.DRV_ETH_ReceiveIsBusy
                0x000000009d01dda0        0xc
 .text.DRV_ETH_ReceiveIsBusy
                0x000000009d01dda0        0xc build/default/production/_ext/732082881/drv_eth_pic32_lib.o
                0x000000009d01dda0                DRV_ETH_ReceiveIsBusy

.text.DRV_ETH_EventsClr
                0x000000009d01ddac        0xc
 .text.DRV_ETH_EventsClr
                0x000000009d01ddac        0xc build/default/production/_ext/732082881/drv_eth_pic32_lib.o
                0x000000009d01ddac                DRV_ETH_EventsClr

.text.DRV_ETH_EventsEnableSet
                0x000000009d01ddb8        0xc
 .text.DRV_ETH_EventsEnableSet
                0x000000009d01ddb8        0xc build/default/production/_ext/732082881/drv_eth_pic32_lib.o
                0x000000009d01ddb8                DRV_ETH_EventsEnableSet

.text.DRV_ETH_EventsEnableClr
                0x000000009d01ddc4        0xc
 .text.DRV_ETH_EventsEnableClr
                0x000000009d01ddc4        0xc build/default/production/_ext/732082881/drv_eth_pic32_lib.o
                0x000000009d01ddc4                DRV_ETH_EventsEnableClr

.text.DRV_ETH_EventsClear
                0x000000009d01ddd0        0xc
 .text.DRV_ETH_EventsClear
                0x000000009d01ddd0        0xc build/default/production/_ext/732082881/drv_eth_pic32_lib.o
                0x000000009d01ddd0                DRV_ETH_EventsClear

.text.DRV_ETH_IsEnabled
                0x000000009d01dddc        0xc
 .text.DRV_ETH_IsEnabled
                0x000000009d01dddc        0xc build/default/production/_ext/732082881/drv_eth_pic32_lib.o
                0x000000009d01dddc                DRV_ETH_IsEnabled

.text.DRV_ETH_MIIMIsBusy
                0x000000009d01dde8        0xc
 .text.DRV_ETH_MIIMIsBusy
                0x000000009d01dde8        0xc build/default/production/_ext/732082881/drv_eth_pic32_lib.o
                0x000000009d01dde8                DRV_ETH_MIIMIsBusy

.text.DRV_ETH_DataNotValid
                0x000000009d01ddf4        0xc
 .text.DRV_ETH_DataNotValid
                0x000000009d01ddf4        0xc build/default/production/_ext/732082881/drv_eth_pic32_lib.o
                0x000000009d01ddf4                DRV_ETH_DataNotValid

.text.DRV_EXTPHY_SMIClockGet
                0x000000009d01de00        0xc
 .text.DRV_EXTPHY_SMIClockGet
                0x000000009d01de00        0xc build/default/production/_ext/444070925/drv_extphy_smsc8740.o

.text.TCPIP_STACK_NumberOfNetworksGet
                0x000000009d01de0c        0xc
 .text.TCPIP_STACK_NumberOfNetworksGet
                0x000000009d01de0c        0xc build/default/production/_ext/1033058136/tcpip_manager.o
                0x000000009d01de0c                TCPIP_STACK_NumberOfNetworksGet

.text.TCPIP_STACK_NetBIOSName
                0x000000009d01de18        0xc
 .text.TCPIP_STACK_NetBIOSName
                0x000000009d01de18        0xc build/default/production/_ext/1033058136/tcpip_manager.o
                0x000000009d01de18                TCPIP_STACK_NetBIOSName

.text.CORETIMER_FrequencyGet
                0x000000009d01de24        0xc
 .text.CORETIMER_FrequencyGet
                0x000000009d01de24        0xc build/default/production/_ext/1249264884/plib_coretimer.o
                0x000000009d01de24                CORETIMER_FrequencyGet

.text.SYS_TIME_FrequencyGet
                0x000000009d01de30        0xc
 .text.SYS_TIME_FrequencyGet
                0x000000009d01de30        0xc build/default/production/_ext/101884895/sys_time.o
                0x000000009d01de30                SYS_TIME_FrequencyGet

.text.getTimeSNTP
                0x000000009d01de3c        0xc
 .text.getTimeSNTP
                0x000000009d01de3c        0xc build/default/production/_ext/1360937237/app.o
                0x000000009d01de3c                getTimeSNTP

.text.BSP_Initialize
                0x000000009d01de48        0x8
 .text.BSP_Initialize
                0x000000009d01de48        0x8 build/default/production/_ext/1434821282/bsp.o
                0x000000009d01de48                BSP_Initialize

.text.DRV_ETHMAC_PIC32MACReinitialize
                0x000000009d01de50        0x8
 .text.DRV_ETHMAC_PIC32MACReinitialize
                0x000000009d01de50        0x8 build/default/production/_ext/732082881/drv_ethmac.o
                0x000000009d01de50                DRV_ETHMAC_PIC32MACReinitialize

.text.DRV_ETHMAC_PIC32MACPowerMode
                0x000000009d01de58        0x8
 .text.DRV_ETHMAC_PIC32MACPowerMode
                0x000000009d01de58        0x8 build/default/production/_ext/732082881/drv_ethmac.o
                0x000000009d01de58                DRV_ETHMAC_PIC32MACPowerMode

.text.DRV_ETH_MaxFrameLengthSet
                0x000000009d01de60        0x8
 .text.DRV_ETH_MaxFrameLengthSet
                0x000000009d01de60        0x8 build/default/production/_ext/732082881/drv_eth_pic32_lib.o
                0x000000009d01de60                DRV_ETH_MaxFrameLengthSet

.text.DRV_ETH_RxPacketCountGet
                0x000000009d01de68        0x8
 .text.DRV_ETH_RxPacketCountGet
                0x000000009d01de68        0x8 build/default/production/_ext/732082881/drv_eth_pic32_lib.o
                0x000000009d01de68                DRV_ETH_RxPacketCountGet

.text.DRV_ETH_TxPacketDescAddrGet
                0x000000009d01de70        0x8
 .text.DRV_ETH_TxPacketDescAddrGet
                0x000000009d01de70        0x8 build/default/production/_ext/732082881/drv_eth_pic32_lib.o
                0x000000009d01de70                DRV_ETH_TxPacketDescAddrGet

.text.DRV_ETH_RxPacketDescAddrGet
                0x000000009d01de78        0x8
 .text.DRV_ETH_RxPacketDescAddrGet
                0x000000009d01de78        0x8 build/default/production/_ext/732082881/drv_eth_pic32_lib.o
                0x000000009d01de78                DRV_ETH_RxPacketDescAddrGet

.text.DRV_ETH_RxFullWmarkSet
                0x000000009d01de80        0x8
 .text.DRV_ETH_RxFullWmarkSet
                0x000000009d01de80        0x8 build/default/production/_ext/732082881/drv_eth_pic32_lib.o
                0x000000009d01de80                DRV_ETH_RxFullWmarkSet

.text.DRV_ETH_RxEmptyWmarkSet
                0x000000009d01de88        0x8
 .text.DRV_ETH_RxEmptyWmarkSet
                0x000000009d01de88        0x8 build/default/production/_ext/732082881/drv_eth_pic32_lib.o
                0x000000009d01de88                DRV_ETH_RxEmptyWmarkSet

.text.DRV_ETH_FramesTxdOkCountGet
                0x000000009d01de90        0x8
 .text.DRV_ETH_FramesTxdOkCountGet
                0x000000009d01de90        0x8 build/default/production/_ext/732082881/drv_eth_pic32_lib.o
                0x000000009d01de90                DRV_ETH_FramesTxdOkCountGet

.text.DRV_ETH_FramesRxdOkCountGet
                0x000000009d01de98        0x8
 .text.DRV_ETH_FramesRxdOkCountGet
                0x000000009d01de98        0x8 build/default/production/_ext/732082881/drv_eth_pic32_lib.o
                0x000000009d01de98                DRV_ETH_FramesRxdOkCountGet

.text.DRV_ETH_RxOverflowCountGet
                0x000000009d01dea0        0x8
 .text.DRV_ETH_RxOverflowCountGet
                0x000000009d01dea0        0x8 build/default/production/_ext/732082881/drv_eth_pic32_lib.o
                0x000000009d01dea0                DRV_ETH_RxOverflowCountGet

.text.DRV_ETH_FCSErrorCountGet
                0x000000009d01dea8        0x8
 .text.DRV_ETH_FCSErrorCountGet
                0x000000009d01dea8        0x8 build/default/production/_ext/732082881/drv_eth_pic32_lib.o
                0x000000009d01dea8                DRV_ETH_FCSErrorCountGet

.text.DRV_ETH_AlignErrorCountGet
                0x000000009d01deb0        0x8
 .text.DRV_ETH_AlignErrorCountGet
                0x000000009d01deb0        0x8 build/default/production/_ext/732082881/drv_eth_pic32_lib.o
                0x000000009d01deb0                DRV_ETH_AlignErrorCountGet

.text.DRV_ETH_SingleCollisionCountGet
                0x000000009d01deb8        0x8
 .text.DRV_ETH_SingleCollisionCountGet
                0x000000009d01deb8        0x8 build/default/production/_ext/732082881/drv_eth_pic32_lib.o
                0x000000009d01deb8                DRV_ETH_SingleCollisionCountGet

.text.DRV_ETH_MultipleCollisionCountGet
                0x000000009d01dec0        0x8
 .text.DRV_ETH_MultipleCollisionCountGet
                0x000000009d01dec0        0x8 build/default/production/_ext/732082881/drv_eth_pic32_lib.o
                0x000000009d01dec0                DRV_ETH_MultipleCollisionCountGet

.text.DRV_ETH_EventsGet
                0x000000009d01dec8        0x8
 .text.DRV_ETH_EventsGet
                0x000000009d01dec8        0x8 build/default/production/_ext/732082881/drv_eth_pic32_lib.o
                0x000000009d01dec8                DRV_ETH_EventsGet

.text.DRV_ETH_MIIMReadDataGet
                0x000000009d01ded0        0x8
 .text.DRV_ETH_MIIMReadDataGet
                0x000000009d01ded0        0x8 build/default/production/_ext/732082881/drv_eth_pic32_lib.o
                0x000000009d01ded0                DRV_ETH_MIIMReadDataGet

.text._DRV_ETHPHY_ClientOpNone
                0x000000009d01ded8        0x8
 .text._DRV_ETHPHY_ClientOpNone
                0x000000009d01ded8        0x8 build/default/production/_ext/444070925/drv_ethphy.o

.text.DRV_MIIM_Reinitialize
                0x000000009d01dee0        0x8
 .text.DRV_MIIM_Reinitialize
                0x000000009d01dee0        0x8 build/default/production/_ext/438849557/drv_miim.o
                0x000000009d01dee0                DRV_MIIM_Reinitialize

.text._DHCPOptionProcessEnd
                0x000000009d01dee8        0x8
 .text._DHCPOptionProcessEnd
                0x000000009d01dee8        0x8 build/default/production/_ext/1033058136/dhcp.o

.text.TCPIP_DNS_Resolve
                0x000000009d01def0        0x8
 .text.TCPIP_DNS_Resolve
                0x000000009d01def0        0x8 build/default/production/_ext/1033058136/dns.o
                0x000000009d01def0                TCPIP_DNS_Resolve

.text.TCPIP_DNS_IsResolved
                0x000000009d01def8        0x8
 .text.TCPIP_DNS_IsResolved
                0x000000009d01def8        0x8 build/default/production/_ext/1033058136/dns.o
                0x000000009d01def8                TCPIP_DNS_IsResolved

.text.TCPIP_PKT_Deinitialize
                0x000000009d01df00        0x8
 .text.TCPIP_PKT_Deinitialize
                0x000000009d01df00        0x8 build/default/production/_ext/1033058136/tcpip_packet.o
                0x000000009d01df00                TCPIP_PKT_Deinitialize

.text.TCPIP_PKT_SegLoadOffset
                0x000000009d01df08        0x8
 .text.TCPIP_PKT_SegLoadOffset
                0x000000009d01df08        0x8 build/default/production/_ext/1033058136/tcpip_packet.o
                0x000000009d01df08                TCPIP_PKT_SegLoadOffset

.text._mon_putc
                0x000000009d01df10        0x8
 .text._mon_putc
                0x000000009d01df10        0x8 build/default/production/_ext/163028504/xc32_monitor.o
                0x000000009d01df10                _mon_putc

.text.Console_UART_Flush
                0x000000009d01df18        0x8
 .text.Console_UART_Flush
                0x000000009d01df18        0x8 build/default/production/_ext/1832805299/sys_console_uart.o
                0x000000009d01df18                Console_UART_Flush

.text.Console_UART_Tasks
                0x000000009d01df20        0x8
 .text.Console_UART_Tasks
                0x000000009d01df20        0x8 build/default/production/_ext/1832805299/sys_console_uart.o
                0x000000009d01df20                Console_UART_Tasks

.text.SYS_DEBUG_ConsoleInstanceGet
                0x000000009d01df28        0x8
 .text.SYS_DEBUG_ConsoleInstanceGet
                0x000000009d01df28        0x8 build/default/production/_ext/944882569/sys_debug.o
                0x000000009d01df28                SYS_DEBUG_ConsoleInstanceGet

.text.SYS_DEBUG_ErrorLevelGet
                0x000000009d01df30        0x8
 .text.SYS_DEBUG_ErrorLevelGet
                0x000000009d01df30        0x8 build/default/production/_ext/944882569/sys_debug.o
                0x000000009d01df30                SYS_DEBUG_ErrorLevelGet

.text.registerUTCCallback
                0x000000009d01df38        0x8
 .text.registerUTCCallback
                0x000000009d01df38        0x8 build/default/production/_ext/1360937237/app.o
                0x000000009d01df38                registerUTCCallback

.text._on_reset
                0x000000009d01df40        0x8
 .text._on_reset
                0x000000009d01df40        0x8 y:/program files/microchip/xc32/v3.01/bin/bin/../../lib/gcc/pic32mx/8.3.1/../../../../pic32mx/lib/fpu64\libpic32.a(default-on-reset.o)
                0x000000009d01df40                _on_reset

.text._on_bootstrap
                0x000000009d01df48        0x8
 .text._on_bootstrap
                0x000000009d01df48        0x8 y:/program files/microchip/xc32/v3.01/bin/bin/../../lib/gcc/pic32mx/8.3.1/../../../../pic32mx/lib/fpu64\libpic32.a(default-on-bootstrap.o)
                0x000000009d01df48                _on_bootstrap

.rodata.cst8    0x000000009d01df50        0x8
 .rodata.cst8   0x000000009d01df50        0x8 y:/program files/microchip/xc32/v3.01/bin/bin/../../lib/gcc/pic32mx/8.3.1/../../../../pic32mx/lib/fpu64\libmfd.a(s_frexp.o)

.rodata         0x000000009d00f3e4        0x4
 .rodata        0x000000009d00f3e4        0x4 build/default/production/_ext/951553246/port.o
                0x000000009d00f3e4                xISRStackTop
